
SAME70_FONTS.elf:     file format elf32-littlearm

Sections:
Idx Name          Size      VMA       LMA       File off  Algn
  0 .text         0001b760  00400000  00400000  00010000  2**2
                  CONTENTS, ALLOC, LOAD, READONLY, CODE
  1 .relocate     0000043c  20400000  0041b760  00030000  2**3
                  CONTENTS, ALLOC, LOAD, DATA
  2 .bss          00000490  2040043c  0041bb9c  0003043c  2**2
                  ALLOC
  3 .stack        00002004  204008cc  0041c02c  0003043c  2**0
                  ALLOC
  4 .heap         00000200  204028d0  0041e030  0003043c  2**0
                  ALLOC
  5 .ARM.attributes 0000002e  00000000  00000000  0003043c  2**0
                  CONTENTS, READONLY
  6 .comment      00000059  00000000  00000000  0003046a  2**0
                  CONTENTS, READONLY
  7 .debug_info   00013b09  00000000  00000000  000304c3  2**0
                  CONTENTS, READONLY, DEBUGGING
  8 .debug_abbrev 0000230e  00000000  00000000  00043fcc  2**0
                  CONTENTS, READONLY, DEBUGGING
  9 .debug_loc    000054f2  00000000  00000000  000462da  2**0
                  CONTENTS, READONLY, DEBUGGING
 10 .debug_aranges 00000978  00000000  00000000  0004b7cc  2**0
                  CONTENTS, READONLY, DEBUGGING
 11 .debug_ranges 00000920  00000000  00000000  0004c144  2**0
                  CONTENTS, READONLY, DEBUGGING
 12 .debug_macro  00007573  00000000  00000000  0004ca64  2**0
                  CONTENTS, READONLY, DEBUGGING
 13 .debug_line   0000a828  00000000  00000000  00053fd7  2**0
                  CONTENTS, READONLY, DEBUGGING
 14 .debug_str    00093a94  00000000  00000000  0005e7ff  2**0
                  CONTENTS, READONLY, DEBUGGING
 15 .debug_frame  00002928  00000000  00000000  000f2294  2**2
                  CONTENTS, READONLY, DEBUGGING

Disassembly of section .text:

00400000 <exception_table>:
  400000:	d0 28 40 20 35 28 40 00 e5 28 40 00 e5 28 40 00     .(@ 5(@..(@..(@.
  400010:	e5 28 40 00 e5 28 40 00 e5 28 40 00 00 00 00 00     .(@..(@..(@.....
	...
  40002c:	e5 28 40 00 e5 28 40 00 00 00 00 00 e5 28 40 00     .(@..(@......(@.
  40003c:	e5 28 40 00 e5 28 40 00 e5 28 40 00 e5 28 40 00     .(@..(@..(@..(@.
  40004c:	e5 28 40 00 e5 28 40 00 e5 28 40 00 e5 28 40 00     .(@..(@..(@..(@.
  40005c:	e5 28 40 00 e5 28 40 00 00 00 00 00 ed 1f 40 00     .(@..(@.......@.
  40006c:	05 20 40 00 1d 20 40 00 e5 28 40 00 e5 28 40 00     . @.. @..(@..(@.
  40007c:	e5 28 40 00 35 20 40 00 4d 20 40 00 e5 28 40 00     .(@.5 @.M @..(@.
  40008c:	e5 28 40 00 e5 28 40 00 e5 28 40 00 e5 28 40 00     .(@..(@..(@..(@.
  40009c:	e5 28 40 00 e5 28 40 00 e5 28 40 00 e5 28 40 00     .(@..(@..(@..(@.
  4000ac:	e5 28 40 00 e5 28 40 00 e5 28 40 00 e5 28 40 00     .(@..(@..(@..(@.
  4000bc:	e5 28 40 00 e5 28 40 00 e5 28 40 00 e5 28 40 00     .(@..(@..(@..(@.
  4000cc:	e5 28 40 00 e5 28 40 00 e5 28 40 00 e5 28 40 00     .(@..(@..(@..(@.
  4000dc:	e5 28 40 00 e5 28 40 00 e5 28 40 00 e5 28 40 00     .(@..(@..(@..(@.
  4000ec:	e5 28 40 00 e5 28 40 00 e5 28 40 00 e5 28 40 00     .(@..(@..(@..(@.
  4000fc:	e5 28 40 00 e5 28 40 00 e5 28 40 00 e5 28 40 00     .(@..(@..(@..(@.
  40010c:	e5 28 40 00 e5 28 40 00 00 00 00 00 00 00 00 00     .(@..(@.........
  40011c:	00 00 00 00 e5 28 40 00 e5 28 40 00 e5 28 40 00     .....(@..(@..(@.
  40012c:	e5 28 40 00 e5 28 40 00 e5 28 40 00 e5 28 40 00     .(@..(@..(@..(@.
  40013c:	e5 28 40 00 e5 28 40 00 e5 28 40 00 e5 28 40 00     .(@..(@..(@..(@.
  40014c:	e5 28 40 00 e5 28 40 00 e5 28 40 00 e5 28 40 00     .(@..(@..(@..(@.
  40015c:	e5 28 40 00 e5 28 40 00 e5 28 40 00                 .(@..(@..(@.

00400168 <__do_global_dtors_aux>:
  400168:	b510      	push	{r4, lr}
  40016a:	4c05      	ldr	r4, [pc, #20]	; (400180 <__do_global_dtors_aux+0x18>)
  40016c:	7823      	ldrb	r3, [r4, #0]
  40016e:	b933      	cbnz	r3, 40017e <__do_global_dtors_aux+0x16>
  400170:	4b04      	ldr	r3, [pc, #16]	; (400184 <__do_global_dtors_aux+0x1c>)
  400172:	b113      	cbz	r3, 40017a <__do_global_dtors_aux+0x12>
  400174:	4804      	ldr	r0, [pc, #16]	; (400188 <__do_global_dtors_aux+0x20>)
  400176:	f3af 8000 	nop.w
  40017a:	2301      	movs	r3, #1
  40017c:	7023      	strb	r3, [r4, #0]
  40017e:	bd10      	pop	{r4, pc}
  400180:	2040043c 	.word	0x2040043c
  400184:	00000000 	.word	0x00000000
  400188:	0041b760 	.word	0x0041b760

0040018c <frame_dummy>:
  40018c:	4b0c      	ldr	r3, [pc, #48]	; (4001c0 <frame_dummy+0x34>)
  40018e:	b143      	cbz	r3, 4001a2 <frame_dummy+0x16>
  400190:	480c      	ldr	r0, [pc, #48]	; (4001c4 <frame_dummy+0x38>)
  400192:	490d      	ldr	r1, [pc, #52]	; (4001c8 <frame_dummy+0x3c>)
  400194:	b510      	push	{r4, lr}
  400196:	f3af 8000 	nop.w
  40019a:	480c      	ldr	r0, [pc, #48]	; (4001cc <frame_dummy+0x40>)
  40019c:	6803      	ldr	r3, [r0, #0]
  40019e:	b923      	cbnz	r3, 4001aa <frame_dummy+0x1e>
  4001a0:	bd10      	pop	{r4, pc}
  4001a2:	480a      	ldr	r0, [pc, #40]	; (4001cc <frame_dummy+0x40>)
  4001a4:	6803      	ldr	r3, [r0, #0]
  4001a6:	b933      	cbnz	r3, 4001b6 <frame_dummy+0x2a>
  4001a8:	4770      	bx	lr
  4001aa:	4b09      	ldr	r3, [pc, #36]	; (4001d0 <frame_dummy+0x44>)
  4001ac:	2b00      	cmp	r3, #0
  4001ae:	d0f7      	beq.n	4001a0 <frame_dummy+0x14>
  4001b0:	e8bd 4010 	ldmia.w	sp!, {r4, lr}
  4001b4:	4718      	bx	r3
  4001b6:	4b06      	ldr	r3, [pc, #24]	; (4001d0 <frame_dummy+0x44>)
  4001b8:	2b00      	cmp	r3, #0
  4001ba:	d0f5      	beq.n	4001a8 <frame_dummy+0x1c>
  4001bc:	4718      	bx	r3
  4001be:	bf00      	nop
  4001c0:	00000000 	.word	0x00000000
  4001c4:	0041b760 	.word	0x0041b760
  4001c8:	20400440 	.word	0x20400440
  4001cc:	0041b760 	.word	0x0041b760
  4001d0:	00000000 	.word	0x00000000

004001d4 <NVIC_EnableIRQ>:
    The function enables a device-specific interrupt in the NVIC interrupt controller.

    \param [in]      IRQn  External interrupt number. Value cannot be negative.
 */
__STATIC_INLINE void NVIC_EnableIRQ(IRQn_Type IRQn)
{
  4001d4:	b480      	push	{r7}
  4001d6:	b083      	sub	sp, #12
  4001d8:	af00      	add	r7, sp, #0
  4001da:	4603      	mov	r3, r0
  4001dc:	71fb      	strb	r3, [r7, #7]
/*  NVIC->ISER[((uint32_t)(IRQn) >> 5)] = (1 << ((uint32_t)(IRQn) & 0x1F));  enable interrupt */
  NVIC->ISER[(uint32_t)((int32_t)IRQn) >> 5] = (uint32_t)(1 << ((uint32_t)((int32_t)IRQn) & (uint32_t)0x1F)); /* enable interrupt */
  4001de:	4909      	ldr	r1, [pc, #36]	; (400204 <NVIC_EnableIRQ+0x30>)
  4001e0:	f997 3007 	ldrsb.w	r3, [r7, #7]
  4001e4:	095b      	lsrs	r3, r3, #5
  4001e6:	79fa      	ldrb	r2, [r7, #7]
  4001e8:	f002 021f 	and.w	r2, r2, #31
  4001ec:	2001      	movs	r0, #1
  4001ee:	fa00 f202 	lsl.w	r2, r0, r2
  4001f2:	f841 2023 	str.w	r2, [r1, r3, lsl #2]
}
  4001f6:	bf00      	nop
  4001f8:	370c      	adds	r7, #12
  4001fa:	46bd      	mov	sp, r7
  4001fc:	f85d 7b04 	ldr.w	r7, [sp], #4
  400200:	4770      	bx	lr
  400202:	bf00      	nop
  400204:	e000e100 	.word	0xe000e100

00400208 <NVIC_SetPriority>:

    \param [in]      IRQn  Interrupt number.
    \param [in]  priority  Priority to set.
 */
__STATIC_INLINE void NVIC_SetPriority(IRQn_Type IRQn, uint32_t priority)
{
  400208:	b480      	push	{r7}
  40020a:	b083      	sub	sp, #12
  40020c:	af00      	add	r7, sp, #0
  40020e:	4603      	mov	r3, r0
  400210:	6039      	str	r1, [r7, #0]
  400212:	71fb      	strb	r3, [r7, #7]
  if(IRQn < 0) {
  400214:	f997 3007 	ldrsb.w	r3, [r7, #7]
  400218:	2b00      	cmp	r3, #0
  40021a:	da0b      	bge.n	400234 <NVIC_SetPriority+0x2c>
    SCB->SHPR[((uint32_t)(IRQn) & 0xF)-4] = ((priority << (8 - __NVIC_PRIO_BITS)) & 0xff); } /* set Priority for Cortex-M  System Interrupts */
  40021c:	490d      	ldr	r1, [pc, #52]	; (400254 <NVIC_SetPriority+0x4c>)
  40021e:	79fb      	ldrb	r3, [r7, #7]
  400220:	f003 030f 	and.w	r3, r3, #15
  400224:	3b04      	subs	r3, #4
  400226:	683a      	ldr	r2, [r7, #0]
  400228:	b2d2      	uxtb	r2, r2
  40022a:	0152      	lsls	r2, r2, #5
  40022c:	b2d2      	uxtb	r2, r2
  40022e:	440b      	add	r3, r1
  400230:	761a      	strb	r2, [r3, #24]
  else {
    NVIC->IP[(uint32_t)(IRQn)]            = ((priority << (8 - __NVIC_PRIO_BITS)) & 0xff); } /* set Priority for device specific Interrupts  */
}
  400232:	e009      	b.n	400248 <NVIC_SetPriority+0x40>
    NVIC->IP[(uint32_t)(IRQn)]            = ((priority << (8 - __NVIC_PRIO_BITS)) & 0xff); } /* set Priority for device specific Interrupts  */
  400234:	4908      	ldr	r1, [pc, #32]	; (400258 <NVIC_SetPriority+0x50>)
  400236:	f997 3007 	ldrsb.w	r3, [r7, #7]
  40023a:	683a      	ldr	r2, [r7, #0]
  40023c:	b2d2      	uxtb	r2, r2
  40023e:	0152      	lsls	r2, r2, #5
  400240:	b2d2      	uxtb	r2, r2
  400242:	440b      	add	r3, r1
  400244:	f883 2300 	strb.w	r2, [r3, #768]	; 0x300
}
  400248:	bf00      	nop
  40024a:	370c      	adds	r7, #12
  40024c:	46bd      	mov	sp, r7
  40024e:	f85d 7b04 	ldr.w	r7, [sp], #4
  400252:	4770      	bx	lr
  400254:	e000ed00 	.word	0xe000ed00
  400258:	e000e100 	.word	0xe000e100

0040025c <Button_callback>:
/**
*  Handle Interrupcao botao 1
*/

static void Button_callback(void)
{
  40025c:	b480      	push	{r7}
  40025e:	af00      	add	r7, sp, #0
	pulsos += 1;
  400260:	4b05      	ldr	r3, [pc, #20]	; (400278 <Button_callback+0x1c>)
  400262:	781b      	ldrb	r3, [r3, #0]
  400264:	b2db      	uxtb	r3, r3
  400266:	3301      	adds	r3, #1
  400268:	b2da      	uxtb	r2, r3
  40026a:	4b03      	ldr	r3, [pc, #12]	; (400278 <Button_callback+0x1c>)
  40026c:	701a      	strb	r2, [r3, #0]
}
  40026e:	bf00      	nop
  400270:	46bd      	mov	sp, r7
  400272:	f85d 7b04 	ldr.w	r7, [sp], #4
  400276:	4770      	bx	lr
  400278:	20400458 	.word	0x20400458

0040027c <BUT_init>:

/**
* @Brief Inicializa o pino do BUT
*/
void BUT_init(void){
  40027c:	b590      	push	{r4, r7, lr}
  40027e:	b083      	sub	sp, #12
  400280:	af02      	add	r7, sp, #8
	/* config. pino botao em modo de entrada */
	pmc_enable_periph_clk(BUT_PIO_ID);
  400282:	200a      	movs	r0, #10
  400284:	4b10      	ldr	r3, [pc, #64]	; (4002c8 <BUT_init+0x4c>)
  400286:	4798      	blx	r3
	pio_set_input(BUT_PIO, BUT_PIN_MASK, PIO_PULLUP | PIO_DEBOUNCE);
  400288:	2209      	movs	r2, #9
  40028a:	f44f 6100 	mov.w	r1, #2048	; 0x800
  40028e:	480f      	ldr	r0, [pc, #60]	; (4002cc <BUT_init+0x50>)
  400290:	4b0f      	ldr	r3, [pc, #60]	; (4002d0 <BUT_init+0x54>)
  400292:	4798      	blx	r3

	/* config. interrupcao em borda de descida no botao do kit */
	/* indica funcao (but_Handler) a ser chamada quando houver uma interrupção */
	pio_enable_interrupt(BUT_PIO, BUT_PIN_MASK);
  400294:	f44f 6100 	mov.w	r1, #2048	; 0x800
  400298:	480c      	ldr	r0, [pc, #48]	; (4002cc <BUT_init+0x50>)
  40029a:	4b0e      	ldr	r3, [pc, #56]	; (4002d4 <BUT_init+0x58>)
  40029c:	4798      	blx	r3
	pio_handler_set(BUT_PIO, BUT_PIO_ID, BUT_PIN_MASK, PIO_IT_FALL_EDGE, Button_callback);
  40029e:	4b0e      	ldr	r3, [pc, #56]	; (4002d8 <BUT_init+0x5c>)
  4002a0:	9300      	str	r3, [sp, #0]
  4002a2:	2350      	movs	r3, #80	; 0x50
  4002a4:	f44f 6200 	mov.w	r2, #2048	; 0x800
  4002a8:	210a      	movs	r1, #10
  4002aa:	4808      	ldr	r0, [pc, #32]	; (4002cc <BUT_init+0x50>)
  4002ac:	4c0b      	ldr	r4, [pc, #44]	; (4002dc <BUT_init+0x60>)
  4002ae:	47a0      	blx	r4

	/* habilita interrupçcão do PIO que controla o botao */
	/* e configura sua prioridade                        */
	NVIC_EnableIRQ(BUT_PIO_ID);
  4002b0:	200a      	movs	r0, #10
  4002b2:	4b0b      	ldr	r3, [pc, #44]	; (4002e0 <BUT_init+0x64>)
  4002b4:	4798      	blx	r3
	NVIC_SetPriority(BUT_PIO_ID, 1);
  4002b6:	2101      	movs	r1, #1
  4002b8:	200a      	movs	r0, #10
  4002ba:	4b0a      	ldr	r3, [pc, #40]	; (4002e4 <BUT_init+0x68>)
  4002bc:	4798      	blx	r3
};
  4002be:	bf00      	nop
  4002c0:	3704      	adds	r7, #4
  4002c2:	46bd      	mov	sp, r7
  4002c4:	bd90      	pop	{r4, r7, pc}
  4002c6:	bf00      	nop
  4002c8:	00402329 	.word	0x00402329
  4002cc:	400e0e00 	.word	0x400e0e00
  4002d0:	00401cbd 	.word	0x00401cbd
  4002d4:	00401da9 	.word	0x00401da9
  4002d8:	0040025d 	.word	0x0040025d
  4002dc:	00401f4d 	.word	0x00401f4d
  4002e0:	004001d5 	.word	0x004001d5
  4002e4:	00400209 	.word	0x00400209

004002e8 <configure_lcd>:

void configure_lcd(void){
  4002e8:	b598      	push	{r3, r4, r7, lr}
  4002ea:	af00      	add	r7, sp, #0
	/* Initialize display parameter */
	g_ili9488_display_opt.ul_width = ILI9488_LCD_WIDTH;
  4002ec:	4b0d      	ldr	r3, [pc, #52]	; (400324 <configure_lcd+0x3c>)
  4002ee:	f44f 72a0 	mov.w	r2, #320	; 0x140
  4002f2:	601a      	str	r2, [r3, #0]
	g_ili9488_display_opt.ul_height = ILI9488_LCD_HEIGHT;
  4002f4:	4b0b      	ldr	r3, [pc, #44]	; (400324 <configure_lcd+0x3c>)
  4002f6:	f44f 72f0 	mov.w	r2, #480	; 0x1e0
  4002fa:	605a      	str	r2, [r3, #4]
	g_ili9488_display_opt.foreground_color = COLOR_CONVERT(COLOR_WHITE);
  4002fc:	4b09      	ldr	r3, [pc, #36]	; (400324 <configure_lcd+0x3c>)
  4002fe:	4a0a      	ldr	r2, [pc, #40]	; (400328 <configure_lcd+0x40>)
  400300:	609a      	str	r2, [r3, #8]
	g_ili9488_display_opt.background_color = COLOR_CONVERT(COLOR_WHITE);
  400302:	4b08      	ldr	r3, [pc, #32]	; (400324 <configure_lcd+0x3c>)
  400304:	4a08      	ldr	r2, [pc, #32]	; (400328 <configure_lcd+0x40>)
  400306:	60da      	str	r2, [r3, #12]

	/* Initialize LCD */
	ili9488_init(&g_ili9488_display_opt);
  400308:	4806      	ldr	r0, [pc, #24]	; (400324 <configure_lcd+0x3c>)
  40030a:	4b08      	ldr	r3, [pc, #32]	; (40032c <configure_lcd+0x44>)
  40030c:	4798      	blx	r3
	ili9488_draw_filled_rectangle(0, 0, ILI9488_LCD_WIDTH-1, ILI9488_LCD_HEIGHT-1);
  40030e:	f240 13df 	movw	r3, #479	; 0x1df
  400312:	f240 123f 	movw	r2, #319	; 0x13f
  400316:	2100      	movs	r1, #0
  400318:	2000      	movs	r0, #0
  40031a:	4c05      	ldr	r4, [pc, #20]	; (400330 <configure_lcd+0x48>)
  40031c:	47a0      	blx	r4
	
}
  40031e:	bf00      	nop
  400320:	bd98      	pop	{r3, r4, r7, pc}
  400322:	bf00      	nop
  400324:	20400898 	.word	0x20400898
  400328:	00fcfcfc 	.word	0x00fcfcfc
  40032c:	00400ced 	.word	0x00400ced
  400330:	00400f39 	.word	0x00400f39

00400334 <font_draw_text>:


void font_draw_text(tFont *font, const char *text, int x, int y, int spacing) {
  400334:	b590      	push	{r4, r7, lr}
  400336:	b08b      	sub	sp, #44	; 0x2c
  400338:	af02      	add	r7, sp, #8
  40033a:	60f8      	str	r0, [r7, #12]
  40033c:	60b9      	str	r1, [r7, #8]
  40033e:	607a      	str	r2, [r7, #4]
  400340:	603b      	str	r3, [r7, #0]
	char *p = text;
  400342:	68bb      	ldr	r3, [r7, #8]
  400344:	61fb      	str	r3, [r7, #28]
	while(*p != NULL) {
  400346:	e02e      	b.n	4003a6 <font_draw_text+0x72>
		char letter = *p;
  400348:	69fb      	ldr	r3, [r7, #28]
  40034a:	781b      	ldrb	r3, [r3, #0]
  40034c:	76fb      	strb	r3, [r7, #27]
		int letter_offset = letter - font->start_char;
  40034e:	7efb      	ldrb	r3, [r7, #27]
  400350:	68fa      	ldr	r2, [r7, #12]
  400352:	7a12      	ldrb	r2, [r2, #8]
  400354:	1a9b      	subs	r3, r3, r2
  400356:	617b      	str	r3, [r7, #20]
		if(letter <= font->end_char) {
  400358:	68fb      	ldr	r3, [r7, #12]
  40035a:	7a5b      	ldrb	r3, [r3, #9]
  40035c:	7efa      	ldrb	r2, [r7, #27]
  40035e:	429a      	cmp	r2, r3
  400360:	d81e      	bhi.n	4003a0 <font_draw_text+0x6c>
			tChar *current_char = font->chars + letter_offset;
  400362:	68fb      	ldr	r3, [r7, #12]
  400364:	685a      	ldr	r2, [r3, #4]
  400366:	697b      	ldr	r3, [r7, #20]
  400368:	00db      	lsls	r3, r3, #3
  40036a:	4413      	add	r3, r2
  40036c:	613b      	str	r3, [r7, #16]
			ili9488_draw_pixmap(x, y, current_char->image->width, current_char->image->height, current_char->image->data);
  40036e:	6878      	ldr	r0, [r7, #4]
  400370:	6839      	ldr	r1, [r7, #0]
  400372:	693b      	ldr	r3, [r7, #16]
  400374:	685b      	ldr	r3, [r3, #4]
  400376:	685b      	ldr	r3, [r3, #4]
  400378:	461a      	mov	r2, r3
  40037a:	693b      	ldr	r3, [r7, #16]
  40037c:	685b      	ldr	r3, [r3, #4]
  40037e:	689b      	ldr	r3, [r3, #8]
  400380:	461c      	mov	r4, r3
  400382:	693b      	ldr	r3, [r7, #16]
  400384:	685b      	ldr	r3, [r3, #4]
  400386:	681b      	ldr	r3, [r3, #0]
  400388:	9300      	str	r3, [sp, #0]
  40038a:	4623      	mov	r3, r4
  40038c:	4c0a      	ldr	r4, [pc, #40]	; (4003b8 <font_draw_text+0x84>)
  40038e:	47a0      	blx	r4
			x += current_char->image->width + spacing;
  400390:	693b      	ldr	r3, [r7, #16]
  400392:	685b      	ldr	r3, [r3, #4]
  400394:	685a      	ldr	r2, [r3, #4]
  400396:	6b3b      	ldr	r3, [r7, #48]	; 0x30
  400398:	4413      	add	r3, r2
  40039a:	687a      	ldr	r2, [r7, #4]
  40039c:	4413      	add	r3, r2
  40039e:	607b      	str	r3, [r7, #4]
		}
		p++;
  4003a0:	69fb      	ldr	r3, [r7, #28]
  4003a2:	3301      	adds	r3, #1
  4003a4:	61fb      	str	r3, [r7, #28]
	while(*p != NULL) {
  4003a6:	69fb      	ldr	r3, [r7, #28]
  4003a8:	781b      	ldrb	r3, [r3, #0]
  4003aa:	2b00      	cmp	r3, #0
  4003ac:	d1cc      	bne.n	400348 <font_draw_text+0x14>
	}	
}
  4003ae:	bf00      	nop
  4003b0:	3724      	adds	r7, #36	; 0x24
  4003b2:	46bd      	mov	sp, r7
  4003b4:	bd90      	pop	{r4, r7, pc}
  4003b6:	bf00      	nop
  4003b8:	00401015 	.word	0x00401015

004003bc <main>:


int main(void) {
  4003bc:	b590      	push	{r4, r7, lr}
  4003be:	b083      	sub	sp, #12
  4003c0:	af02      	add	r7, sp, #8
	board_init();
  4003c2:	4b0c      	ldr	r3, [pc, #48]	; (4003f4 <main+0x38>)
  4003c4:	4798      	blx	r3
	sysclk_init();	
  4003c6:	4b0c      	ldr	r3, [pc, #48]	; (4003f8 <main+0x3c>)
  4003c8:	4798      	blx	r3
	configure_lcd();
  4003ca:	4b0c      	ldr	r3, [pc, #48]	; (4003fc <main+0x40>)
  4003cc:	4798      	blx	r3
	
 	//font_draw_text(&sourcecodepro_28, "OIMUNDO", 50, 50, 1);
 	//font_draw_text(&calibri_36, "Oi Mundo! #$!@", 50, 100, 1);
 	font_draw_text(&arial_72, "102456", 50, 200, 2);
  4003ce:	2302      	movs	r3, #2
  4003d0:	9300      	str	r3, [sp, #0]
  4003d2:	23c8      	movs	r3, #200	; 0xc8
  4003d4:	2232      	movs	r2, #50	; 0x32
  4003d6:	490a      	ldr	r1, [pc, #40]	; (400400 <main+0x44>)
  4003d8:	480a      	ldr	r0, [pc, #40]	; (400404 <main+0x48>)
  4003da:	4c0b      	ldr	r4, [pc, #44]	; (400408 <main+0x4c>)
  4003dc:	47a0      	blx	r4

	/* Disable the watchdog */
	WDT->WDT_MR = WDT_MR_WDDIS;
  4003de:	4b0b      	ldr	r3, [pc, #44]	; (40040c <main+0x50>)
  4003e0:	f44f 4200 	mov.w	r2, #32768	; 0x8000
  4003e4:	605a      	str	r2, [r3, #4]

	delay_init();

	/* Configura os botões */
	BUT_init();
  4003e6:	4b0a      	ldr	r3, [pc, #40]	; (400410 <main+0x54>)
  4003e8:	4798      	blx	r3
		
	while(1) {
		pmc_sleep(SAM_PM_SMODE_SLEEP_WFI);
  4003ea:	2002      	movs	r0, #2
  4003ec:	4b09      	ldr	r3, [pc, #36]	; (400414 <main+0x58>)
  4003ee:	4798      	blx	r3
  4003f0:	e7fb      	b.n	4003ea <main+0x2e>
  4003f2:	bf00      	nop
  4003f4:	00401be9 	.word	0x00401be9
  4003f8:	004017b5 	.word	0x004017b5
  4003fc:	004002e9 	.word	0x004002e9
  400400:	0041b730 	.word	0x0041b730
  400404:	0041b724 	.word	0x0041b724
  400408:	00400335 	.word	0x00400335
  40040c:	400e1850 	.word	0x400e1850
  400410:	0040027d 	.word	0x0040027d
  400414:	00402415 	.word	0x00402415

00400418 <osc_get_rate>:

	return 0;
}

static inline uint32_t osc_get_rate(uint32_t ul_id)
{
  400418:	b480      	push	{r7}
  40041a:	b083      	sub	sp, #12
  40041c:	af00      	add	r7, sp, #0
  40041e:	6078      	str	r0, [r7, #4]
	switch (ul_id) {
  400420:	687b      	ldr	r3, [r7, #4]
  400422:	2b07      	cmp	r3, #7
  400424:	d825      	bhi.n	400472 <osc_get_rate+0x5a>
  400426:	a201      	add	r2, pc, #4	; (adr r2, 40042c <osc_get_rate+0x14>)
  400428:	f852 f023 	ldr.w	pc, [r2, r3, lsl #2]
  40042c:	0040044d 	.word	0x0040044d
  400430:	00400453 	.word	0x00400453
  400434:	00400459 	.word	0x00400459
  400438:	0040045f 	.word	0x0040045f
  40043c:	00400463 	.word	0x00400463
  400440:	00400467 	.word	0x00400467
  400444:	0040046b 	.word	0x0040046b
  400448:	0040046f 	.word	0x0040046f
	case OSC_SLCK_32K_RC:
		return OSC_SLCK_32K_RC_HZ;
  40044c:	f44f 43fa 	mov.w	r3, #32000	; 0x7d00
  400450:	e010      	b.n	400474 <osc_get_rate+0x5c>

	case OSC_SLCK_32K_XTAL:
		return BOARD_FREQ_SLCK_XTAL;
  400452:	f44f 4300 	mov.w	r3, #32768	; 0x8000
  400456:	e00d      	b.n	400474 <osc_get_rate+0x5c>

	case OSC_SLCK_32K_BYPASS:
		return BOARD_FREQ_SLCK_BYPASS;
  400458:	f44f 4300 	mov.w	r3, #32768	; 0x8000
  40045c:	e00a      	b.n	400474 <osc_get_rate+0x5c>

	case OSC_MAINCK_4M_RC:
		return OSC_MAINCK_4M_RC_HZ;
  40045e:	4b08      	ldr	r3, [pc, #32]	; (400480 <osc_get_rate+0x68>)
  400460:	e008      	b.n	400474 <osc_get_rate+0x5c>

	case OSC_MAINCK_8M_RC:
		return OSC_MAINCK_8M_RC_HZ;
  400462:	4b08      	ldr	r3, [pc, #32]	; (400484 <osc_get_rate+0x6c>)
  400464:	e006      	b.n	400474 <osc_get_rate+0x5c>

	case OSC_MAINCK_12M_RC:
		return OSC_MAINCK_12M_RC_HZ;
  400466:	4b08      	ldr	r3, [pc, #32]	; (400488 <osc_get_rate+0x70>)
  400468:	e004      	b.n	400474 <osc_get_rate+0x5c>

	case OSC_MAINCK_XTAL:
		return BOARD_FREQ_MAINCK_XTAL;
  40046a:	4b07      	ldr	r3, [pc, #28]	; (400488 <osc_get_rate+0x70>)
  40046c:	e002      	b.n	400474 <osc_get_rate+0x5c>

	case OSC_MAINCK_BYPASS:
		return BOARD_FREQ_MAINCK_BYPASS;
  40046e:	4b06      	ldr	r3, [pc, #24]	; (400488 <osc_get_rate+0x70>)
  400470:	e000      	b.n	400474 <osc_get_rate+0x5c>
	}

	return 0;
  400472:	2300      	movs	r3, #0
}
  400474:	4618      	mov	r0, r3
  400476:	370c      	adds	r7, #12
  400478:	46bd      	mov	sp, r7
  40047a:	f85d 7b04 	ldr.w	r7, [sp], #4
  40047e:	4770      	bx	lr
  400480:	003d0900 	.word	0x003d0900
  400484:	007a1200 	.word	0x007a1200
  400488:	00b71b00 	.word	0x00b71b00

0040048c <sysclk_get_main_hz>:
 */
#if (defined CONFIG_SYSCLK_DEFAULT_RETURNS_SLOW_OSC)
extern uint32_t sysclk_initialized;
#endif
static inline uint32_t sysclk_get_main_hz(void)
{
  40048c:	b580      	push	{r7, lr}
  40048e:	af00      	add	r7, sp, #0
	} else if (CONFIG_SYSCLK_SOURCE == SYSCLK_SRC_MAINCK_BYPASS) {
		return OSC_MAINCK_BYPASS_HZ;
	}
#ifdef CONFIG_PLL0_SOURCE
	else if (CONFIG_SYSCLK_SOURCE == SYSCLK_SRC_PLLACK) {
		return pll_get_default_rate(0);
  400490:	2006      	movs	r0, #6
  400492:	4b05      	ldr	r3, [pc, #20]	; (4004a8 <sysclk_get_main_hz+0x1c>)
  400494:	4798      	blx	r3
  400496:	4602      	mov	r2, r0
  400498:	4613      	mov	r3, r2
  40049a:	009b      	lsls	r3, r3, #2
  40049c:	4413      	add	r3, r2
  40049e:	009a      	lsls	r2, r3, #2
  4004a0:	4413      	add	r3, r2
#endif
	else {
		/* unhandled_case(CONFIG_SYSCLK_SOURCE); */
		return 0;
	}
}
  4004a2:	4618      	mov	r0, r3
  4004a4:	bd80      	pop	{r7, pc}
  4004a6:	bf00      	nop
  4004a8:	00400419 	.word	0x00400419

004004ac <sysclk_get_peripheral_hz>:
 * \brief Retrieves the current rate in Hz of the peripheral clocks.
 *
 * \return Frequency of the peripheral clocks, in Hz.
 */
static inline uint32_t sysclk_get_peripheral_hz(void)
{
  4004ac:	b580      	push	{r7, lr}
  4004ae:	af00      	add	r7, sp, #0
	/* CONFIG_SYSCLK_PRES is the register value for setting the expected */
	/* prescaler, not an immediate value. */
	return sysclk_get_main_hz() /
  4004b0:	4b02      	ldr	r3, [pc, #8]	; (4004bc <sysclk_get_peripheral_hz+0x10>)
  4004b2:	4798      	blx	r3
  4004b4:	4603      	mov	r3, r0
  4004b6:	085b      	lsrs	r3, r3, #1
		(((CONFIG_SYSCLK_PRES == SYSCLK_PRES_3) ? 3 : (1 << (CONFIG_SYSCLK_PRES >> PMC_MCKR_PRES_Pos))) * CONFIG_SYSCLK_DIV);
}
  4004b8:	4618      	mov	r0, r3
  4004ba:	bd80      	pop	{r7, pc}
  4004bc:	0040048d 	.word	0x0040048d

004004c0 <spi_reset>:
 * \brief Reset SPI and set it to Slave mode.
 *
 * \param p_spi Pointer to an SPI instance.
 */
static inline void spi_reset(Spi *p_spi)
{
  4004c0:	b480      	push	{r7}
  4004c2:	b083      	sub	sp, #12
  4004c4:	af00      	add	r7, sp, #0
  4004c6:	6078      	str	r0, [r7, #4]
	p_spi->SPI_CR = SPI_CR_SWRST;
  4004c8:	687b      	ldr	r3, [r7, #4]
  4004ca:	2280      	movs	r2, #128	; 0x80
  4004cc:	601a      	str	r2, [r3, #0]
}
  4004ce:	bf00      	nop
  4004d0:	370c      	adds	r7, #12
  4004d2:	46bd      	mov	sp, r7
  4004d4:	f85d 7b04 	ldr.w	r7, [sp], #4
  4004d8:	4770      	bx	lr

004004da <spi_set_master_mode>:
 * \brief Set SPI to Master mode.
 *
 * \param p_spi Pointer to an SPI instance.
 */
static inline void spi_set_master_mode(Spi *p_spi)
{
  4004da:	b480      	push	{r7}
  4004dc:	b083      	sub	sp, #12
  4004de:	af00      	add	r7, sp, #0
  4004e0:	6078      	str	r0, [r7, #4]
	p_spi->SPI_MR |= SPI_MR_MSTR;
  4004e2:	687b      	ldr	r3, [r7, #4]
  4004e4:	685b      	ldr	r3, [r3, #4]
  4004e6:	f043 0201 	orr.w	r2, r3, #1
  4004ea:	687b      	ldr	r3, [r7, #4]
  4004ec:	605a      	str	r2, [r3, #4]
}
  4004ee:	bf00      	nop
  4004f0:	370c      	adds	r7, #12
  4004f2:	46bd      	mov	sp, r7
  4004f4:	f85d 7b04 	ldr.w	r7, [sp], #4
  4004f8:	4770      	bx	lr

004004fa <spi_set_fixed_peripheral_select>:
 *  Peripheral Chip Select is controlled by SPI_MR.
 *
 * \param p_spi Pointer to an SPI instance.
 */
static inline void spi_set_fixed_peripheral_select(Spi *p_spi)
{
  4004fa:	b480      	push	{r7}
  4004fc:	b083      	sub	sp, #12
  4004fe:	af00      	add	r7, sp, #0
  400500:	6078      	str	r0, [r7, #4]
	p_spi->SPI_MR &= (~SPI_MR_PS);
  400502:	687b      	ldr	r3, [r7, #4]
  400504:	685b      	ldr	r3, [r3, #4]
  400506:	f023 0202 	bic.w	r2, r3, #2
  40050a:	687b      	ldr	r3, [r7, #4]
  40050c:	605a      	str	r2, [r3, #4]
}
  40050e:	bf00      	nop
  400510:	370c      	adds	r7, #12
  400512:	46bd      	mov	sp, r7
  400514:	f85d 7b04 	ldr.w	r7, [sp], #4
  400518:	4770      	bx	lr

0040051a <spi_disable_peripheral_select_decode>:
 * \brief Disable Peripheral Select Decode.
 *
 * \param p_spi Pointer to an SPI instance.
 */
static inline void spi_disable_peripheral_select_decode(Spi *p_spi)
{
  40051a:	b480      	push	{r7}
  40051c:	b083      	sub	sp, #12
  40051e:	af00      	add	r7, sp, #0
  400520:	6078      	str	r0, [r7, #4]
	p_spi->SPI_MR &= (~SPI_MR_PCSDEC);
  400522:	687b      	ldr	r3, [r7, #4]
  400524:	685b      	ldr	r3, [r3, #4]
  400526:	f023 0204 	bic.w	r2, r3, #4
  40052a:	687b      	ldr	r3, [r7, #4]
  40052c:	605a      	str	r2, [r3, #4]
}
  40052e:	bf00      	nop
  400530:	370c      	adds	r7, #12
  400532:	46bd      	mov	sp, r7
  400534:	f85d 7b04 	ldr.w	r7, [sp], #4
  400538:	4770      	bx	lr

0040053a <spi_get_peripheral_select_decode_setting>:
 * \param p_spi Pointer to an SPI instance.
 *
 * \return 1 for decode mode, 0 for direct mode.
 */
static inline uint32_t spi_get_peripheral_select_decode_setting(Spi *p_spi)
{
  40053a:	b480      	push	{r7}
  40053c:	b083      	sub	sp, #12
  40053e:	af00      	add	r7, sp, #0
  400540:	6078      	str	r0, [r7, #4]
	if (p_spi->SPI_MR & SPI_MR_PCSDEC) {
  400542:	687b      	ldr	r3, [r7, #4]
  400544:	685b      	ldr	r3, [r3, #4]
  400546:	f003 0304 	and.w	r3, r3, #4
  40054a:	2b00      	cmp	r3, #0
  40054c:	d001      	beq.n	400552 <spi_get_peripheral_select_decode_setting+0x18>
		return 1;
  40054e:	2301      	movs	r3, #1
  400550:	e000      	b.n	400554 <spi_get_peripheral_select_decode_setting+0x1a>
	} else {
		return 0;
  400552:	2300      	movs	r3, #0
	}
}
  400554:	4618      	mov	r0, r3
  400556:	370c      	adds	r7, #12
  400558:	46bd      	mov	sp, r7
  40055a:	f85d 7b04 	ldr.w	r7, [sp], #4
  40055e:	4770      	bx	lr

00400560 <spi_disable_mode_fault_detect>:
 * \brief Disable Mode Fault Detection.
 *
 * \param p_spi Pointer to an SPI instance.
 */
static inline void spi_disable_mode_fault_detect(Spi *p_spi)
{
  400560:	b480      	push	{r7}
  400562:	b083      	sub	sp, #12
  400564:	af00      	add	r7, sp, #0
  400566:	6078      	str	r0, [r7, #4]
	p_spi->SPI_MR |= SPI_MR_MODFDIS;
  400568:	687b      	ldr	r3, [r7, #4]
  40056a:	685b      	ldr	r3, [r3, #4]
  40056c:	f043 0210 	orr.w	r2, r3, #16
  400570:	687b      	ldr	r3, [r7, #4]
  400572:	605a      	str	r2, [r3, #4]
}
  400574:	bf00      	nop
  400576:	370c      	adds	r7, #12
  400578:	46bd      	mov	sp, r7
  40057a:	f85d 7b04 	ldr.w	r7, [sp], #4
  40057e:	4770      	bx	lr

00400580 <spi_disable_loopback>:
 * \brief Disable loopback mode.
 *
 * \param p_spi Pointer to an SPI instance.
 */
static inline void spi_disable_loopback(Spi *p_spi)
{
  400580:	b480      	push	{r7}
  400582:	b083      	sub	sp, #12
  400584:	af00      	add	r7, sp, #0
  400586:	6078      	str	r0, [r7, #4]
	p_spi->SPI_MR &= (~SPI_MR_LLB);
  400588:	687b      	ldr	r3, [r7, #4]
  40058a:	685b      	ldr	r3, [r3, #4]
  40058c:	f023 0280 	bic.w	r2, r3, #128	; 0x80
  400590:	687b      	ldr	r3, [r7, #4]
  400592:	605a      	str	r2, [r3, #4]
}
  400594:	bf00      	nop
  400596:	370c      	adds	r7, #12
  400598:	46bd      	mov	sp, r7
  40059a:	f85d 7b04 	ldr.w	r7, [sp], #4
  40059e:	4770      	bx	lr

004005a0 <spi_put>:
 * \param p_spi Base address of the SPI instance.
 * \param data The data byte to be loaded
 *
 */
static inline void spi_put(Spi *p_spi, uint16_t data)
{
  4005a0:	b480      	push	{r7}
  4005a2:	b083      	sub	sp, #12
  4005a4:	af00      	add	r7, sp, #0
  4005a6:	6078      	str	r0, [r7, #4]
  4005a8:	460b      	mov	r3, r1
  4005aa:	807b      	strh	r3, [r7, #2]
	p_spi->SPI_TDR = SPI_TDR_TD(data);
  4005ac:	887a      	ldrh	r2, [r7, #2]
  4005ae:	687b      	ldr	r3, [r7, #4]
  4005b0:	60da      	str	r2, [r3, #12]
}
  4005b2:	bf00      	nop
  4005b4:	370c      	adds	r7, #12
  4005b6:	46bd      	mov	sp, r7
  4005b8:	f85d 7b04 	ldr.w	r7, [sp], #4
  4005bc:	4770      	bx	lr

004005be <spi_get>:
 * \param p_spi Base address of the SPI instance.
 * \return The data byte
 *
 */
static inline uint16_t spi_get(Spi *p_spi)
{
  4005be:	b480      	push	{r7}
  4005c0:	b083      	sub	sp, #12
  4005c2:	af00      	add	r7, sp, #0
  4005c4:	6078      	str	r0, [r7, #4]
	return (p_spi->SPI_RDR & SPI_RDR_RD_Msk);
  4005c6:	687b      	ldr	r3, [r7, #4]
  4005c8:	689b      	ldr	r3, [r3, #8]
  4005ca:	b29b      	uxth	r3, r3
}
  4005cc:	4618      	mov	r0, r3
  4005ce:	370c      	adds	r7, #12
  4005d0:	46bd      	mov	sp, r7
  4005d2:	f85d 7b04 	ldr.w	r7, [sp], #4
  4005d6:	4770      	bx	lr

004005d8 <spi_is_tx_ready>:
 *
 * \retval 1 if transmissions are complete.
 * \retval 0 if transmissions are not complete.
 */
static inline uint32_t spi_is_tx_ready(Spi *p_spi)
{
  4005d8:	b480      	push	{r7}
  4005da:	b083      	sub	sp, #12
  4005dc:	af00      	add	r7, sp, #0
  4005de:	6078      	str	r0, [r7, #4]
	if (p_spi->SPI_SR & SPI_SR_TDRE) {
  4005e0:	687b      	ldr	r3, [r7, #4]
  4005e2:	691b      	ldr	r3, [r3, #16]
  4005e4:	f003 0302 	and.w	r3, r3, #2
  4005e8:	2b00      	cmp	r3, #0
  4005ea:	d001      	beq.n	4005f0 <spi_is_tx_ready+0x18>
		return 1;
  4005ec:	2301      	movs	r3, #1
  4005ee:	e000      	b.n	4005f2 <spi_is_tx_ready+0x1a>
	} else {
		return 0;
  4005f0:	2300      	movs	r3, #0
	}
}
  4005f2:	4618      	mov	r0, r3
  4005f4:	370c      	adds	r7, #12
  4005f6:	46bd      	mov	sp, r7
  4005f8:	f85d 7b04 	ldr.w	r7, [sp], #4
  4005fc:	4770      	bx	lr

004005fe <spi_is_rx_ready>:
 * \param p_spi Pointer to an SPI instance.
 *
 * \return 1 if the SPI Receiver is ready, otherwise 0.
 */
static inline uint32_t spi_is_rx_ready(Spi *p_spi)
{
  4005fe:	b480      	push	{r7}
  400600:	b083      	sub	sp, #12
  400602:	af00      	add	r7, sp, #0
  400604:	6078      	str	r0, [r7, #4]
	if ((p_spi->SPI_SR & (SPI_SR_RDRF | SPI_SR_TXEMPTY))
  400606:	687b      	ldr	r3, [r7, #4]
  400608:	691a      	ldr	r2, [r3, #16]
  40060a:	f240 2301 	movw	r3, #513	; 0x201
  40060e:	4013      	ands	r3, r2
  400610:	f240 2201 	movw	r2, #513	; 0x201
  400614:	4293      	cmp	r3, r2
  400616:	d101      	bne.n	40061c <spi_is_rx_ready+0x1e>
			== (SPI_SR_RDRF | SPI_SR_TXEMPTY)) {
		return 1;
  400618:	2301      	movs	r3, #1
  40061a:	e000      	b.n	40061e <spi_is_rx_ready+0x20>
	} else {
		return 0;
  40061c:	2300      	movs	r3, #0
	}
}
  40061e:	4618      	mov	r0, r3
  400620:	370c      	adds	r7, #12
  400622:	46bd      	mov	sp, r7
  400624:	f85d 7b04 	ldr.w	r7, [sp], #4
  400628:	4770      	bx	lr
	...

0040062c <spi_write_single>:
 * \param p_spi     Base address of the SPI instance.
 * \param data      Data to write.
 *
 */
static inline void spi_write_single(Spi *p_spi, uint8_t data)
{
  40062c:	b580      	push	{r7, lr}
  40062e:	b082      	sub	sp, #8
  400630:	af00      	add	r7, sp, #0
  400632:	6078      	str	r0, [r7, #4]
  400634:	460b      	mov	r3, r1
  400636:	70fb      	strb	r3, [r7, #3]
	spi_put(p_spi, (uint16_t)data);
  400638:	78fb      	ldrb	r3, [r7, #3]
  40063a:	b29b      	uxth	r3, r3
  40063c:	4619      	mov	r1, r3
  40063e:	6878      	ldr	r0, [r7, #4]
  400640:	4b02      	ldr	r3, [pc, #8]	; (40064c <spi_write_single+0x20>)
  400642:	4798      	blx	r3
}
  400644:	bf00      	nop
  400646:	3708      	adds	r7, #8
  400648:	46bd      	mov	sp, r7
  40064a:	bd80      	pop	{r7, pc}
  40064c:	004005a1 	.word	0x004005a1

00400650 <spi_read_single>:
 * \param p_spi     Base address of the SPI instance.
 * \param data      Data to read.
 *
 */
static inline void spi_read_single(Spi *p_spi, uint8_t *data)
{
  400650:	b580      	push	{r7, lr}
  400652:	b082      	sub	sp, #8
  400654:	af00      	add	r7, sp, #0
  400656:	6078      	str	r0, [r7, #4]
  400658:	6039      	str	r1, [r7, #0]
	*data = (uint8_t)spi_get(p_spi);
  40065a:	6878      	ldr	r0, [r7, #4]
  40065c:	4b04      	ldr	r3, [pc, #16]	; (400670 <spi_read_single+0x20>)
  40065e:	4798      	blx	r3
  400660:	4603      	mov	r3, r0
  400662:	b2da      	uxtb	r2, r3
  400664:	683b      	ldr	r3, [r7, #0]
  400666:	701a      	strb	r2, [r3, #0]
}
  400668:	bf00      	nop
  40066a:	3708      	adds	r7, #8
  40066c:	46bd      	mov	sp, r7
  40066e:	bd80      	pop	{r7, pc}
  400670:	004005bf 	.word	0x004005bf

00400674 <spi_master_init>:
 *
 * \param p_spi  Base address of the SPI instance.
 *
 */
void spi_master_init(Spi *p_spi)
{
  400674:	b580      	push	{r7, lr}
  400676:	b082      	sub	sp, #8
  400678:	af00      	add	r7, sp, #0
  40067a:	6078      	str	r0, [r7, #4]
#if SAMG55
	flexcom_enable(BOARD_FLEXCOM_SPI);
	flexcom_set_opmode(BOARD_FLEXCOM_SPI, FLEXCOM_SPI);
#else
	spi_enable_clock(p_spi);
  40067c:	6878      	ldr	r0, [r7, #4]
  40067e:	4b10      	ldr	r3, [pc, #64]	; (4006c0 <spi_master_init+0x4c>)
  400680:	4798      	blx	r3
#endif
	spi_reset(p_spi);
  400682:	6878      	ldr	r0, [r7, #4]
  400684:	4b0f      	ldr	r3, [pc, #60]	; (4006c4 <spi_master_init+0x50>)
  400686:	4798      	blx	r3
	spi_set_master_mode(p_spi);
  400688:	6878      	ldr	r0, [r7, #4]
  40068a:	4b0f      	ldr	r3, [pc, #60]	; (4006c8 <spi_master_init+0x54>)
  40068c:	4798      	blx	r3
	spi_disable_mode_fault_detect(p_spi);
  40068e:	6878      	ldr	r0, [r7, #4]
  400690:	4b0e      	ldr	r3, [pc, #56]	; (4006cc <spi_master_init+0x58>)
  400692:	4798      	blx	r3
	spi_disable_loopback(p_spi);
  400694:	6878      	ldr	r0, [r7, #4]
  400696:	4b0e      	ldr	r3, [pc, #56]	; (4006d0 <spi_master_init+0x5c>)
  400698:	4798      	blx	r3
	spi_set_peripheral_chip_select_value(p_spi, DEFAULT_CHIP_ID);
  40069a:	2100      	movs	r1, #0
  40069c:	6878      	ldr	r0, [r7, #4]
  40069e:	4b0d      	ldr	r3, [pc, #52]	; (4006d4 <spi_master_init+0x60>)
  4006a0:	4798      	blx	r3
	spi_set_fixed_peripheral_select(p_spi);
  4006a2:	6878      	ldr	r0, [r7, #4]
  4006a4:	4b0c      	ldr	r3, [pc, #48]	; (4006d8 <spi_master_init+0x64>)
  4006a6:	4798      	blx	r3
	spi_disable_peripheral_select_decode(p_spi);
  4006a8:	6878      	ldr	r0, [r7, #4]
  4006aa:	4b0c      	ldr	r3, [pc, #48]	; (4006dc <spi_master_init+0x68>)
  4006ac:	4798      	blx	r3
	spi_set_delay_between_chip_select(p_spi, CONFIG_SPI_MASTER_DELAY_BCS);
  4006ae:	2100      	movs	r1, #0
  4006b0:	6878      	ldr	r0, [r7, #4]
  4006b2:	4b0b      	ldr	r3, [pc, #44]	; (4006e0 <spi_master_init+0x6c>)
  4006b4:	4798      	blx	r3
}
  4006b6:	bf00      	nop
  4006b8:	3708      	adds	r7, #8
  4006ba:	46bd      	mov	sp, r7
  4006bc:	bd80      	pop	{r7, pc}
  4006be:	bf00      	nop
  4006c0:	0040110d 	.word	0x0040110d
  4006c4:	004004c1 	.word	0x004004c1
  4006c8:	004004db 	.word	0x004004db
  4006cc:	00400561 	.word	0x00400561
  4006d0:	00400581 	.word	0x00400581
  4006d4:	00401149 	.word	0x00401149
  4006d8:	004004fb 	.word	0x004004fb
  4006dc:	0040051b 	.word	0x0040051b
  4006e0:	0040117d 	.word	0x0040117d

004006e4 <spi_master_setup_device>:
 * \param baud_rate Baud rate for communication with slave device in Hz.
 * \param sel_id    Board specific select id.
 */
void spi_master_setup_device(Spi *p_spi, struct spi_device *device,
		spi_flags_t flags, uint32_t baud_rate, board_spi_select_id_t sel_id)
{
  4006e4:	b590      	push	{r4, r7, lr}
  4006e6:	b087      	sub	sp, #28
  4006e8:	af00      	add	r7, sp, #0
  4006ea:	60f8      	str	r0, [r7, #12]
  4006ec:	60b9      	str	r1, [r7, #8]
  4006ee:	603b      	str	r3, [r7, #0]
  4006f0:	4613      	mov	r3, r2
  4006f2:	71fb      	strb	r3, [r7, #7]
#if (SAM4L)
    int16_t baud_div = spi_calc_baudrate_div(baud_rate, sysclk_get_pba_hz());
#else
	int16_t baud_div = spi_calc_baudrate_div(baud_rate, sysclk_get_peripheral_hz());
  4006f4:	4b20      	ldr	r3, [pc, #128]	; (400778 <spi_master_setup_device+0x94>)
  4006f6:	4798      	blx	r3
  4006f8:	4603      	mov	r3, r0
  4006fa:	4619      	mov	r1, r3
  4006fc:	6838      	ldr	r0, [r7, #0]
  4006fe:	4b1f      	ldr	r3, [pc, #124]	; (40077c <spi_master_setup_device+0x98>)
  400700:	4798      	blx	r3
  400702:	4603      	mov	r3, r0
  400704:	82fb      	strh	r3, [r7, #22]
	/* avoid Cppcheck Warning */
	UNUSED(sel_id);
	if (-1 == baud_div) {
		Assert(0 == "Failed to find baudrate divider");
	}
	spi_set_transfer_delay(p_spi, device->id, CONFIG_SPI_MASTER_DELAY_BS,
  400706:	68bb      	ldr	r3, [r7, #8]
  400708:	6819      	ldr	r1, [r3, #0]
  40070a:	2300      	movs	r3, #0
  40070c:	2200      	movs	r2, #0
  40070e:	68f8      	ldr	r0, [r7, #12]
  400710:	4c1b      	ldr	r4, [pc, #108]	; (400780 <spi_master_setup_device+0x9c>)
  400712:	47a0      	blx	r4
			CONFIG_SPI_MASTER_DELAY_BCT);
	spi_set_bits_per_transfer(p_spi, device->id,
  400714:	68bb      	ldr	r3, [r7, #8]
  400716:	681b      	ldr	r3, [r3, #0]
  400718:	2208      	movs	r2, #8
  40071a:	4619      	mov	r1, r3
  40071c:	68f8      	ldr	r0, [r7, #12]
  40071e:	4b19      	ldr	r3, [pc, #100]	; (400784 <spi_master_setup_device+0xa0>)
  400720:	4798      	blx	r3
			CONFIG_SPI_MASTER_BITS_PER_TRANSFER);
	spi_set_baudrate_div(p_spi, device->id, baud_div);
  400722:	68bb      	ldr	r3, [r7, #8]
  400724:	681b      	ldr	r3, [r3, #0]
  400726:	8afa      	ldrh	r2, [r7, #22]
  400728:	b2d2      	uxtb	r2, r2
  40072a:	4619      	mov	r1, r3
  40072c:	68f8      	ldr	r0, [r7, #12]
  40072e:	4b16      	ldr	r3, [pc, #88]	; (400788 <spi_master_setup_device+0xa4>)
  400730:	4798      	blx	r3
	spi_configure_cs_behavior(p_spi, device->id, SPI_CS_KEEP_LOW);
  400732:	68bb      	ldr	r3, [r7, #8]
  400734:	681b      	ldr	r3, [r3, #0]
  400736:	2208      	movs	r2, #8
  400738:	4619      	mov	r1, r3
  40073a:	68f8      	ldr	r0, [r7, #12]
  40073c:	4b13      	ldr	r3, [pc, #76]	; (40078c <spi_master_setup_device+0xa8>)
  40073e:	4798      	blx	r3
	spi_set_clock_polarity(p_spi, device->id, flags >> 1);
  400740:	68bb      	ldr	r3, [r7, #8]
  400742:	6819      	ldr	r1, [r3, #0]
  400744:	79fb      	ldrb	r3, [r7, #7]
  400746:	085b      	lsrs	r3, r3, #1
  400748:	b2db      	uxtb	r3, r3
  40074a:	461a      	mov	r2, r3
  40074c:	68f8      	ldr	r0, [r7, #12]
  40074e:	4b10      	ldr	r3, [pc, #64]	; (400790 <spi_master_setup_device+0xac>)
  400750:	4798      	blx	r3
	spi_set_clock_phase(p_spi, device->id, ((flags & 0x1) ^ 0x1));
  400752:	68bb      	ldr	r3, [r7, #8]
  400754:	6819      	ldr	r1, [r3, #0]
  400756:	79fb      	ldrb	r3, [r7, #7]
  400758:	f003 0301 	and.w	r3, r3, #1
  40075c:	2b00      	cmp	r3, #0
  40075e:	bf0c      	ite	eq
  400760:	2301      	moveq	r3, #1
  400762:	2300      	movne	r3, #0
  400764:	b2db      	uxtb	r3, r3
  400766:	461a      	mov	r2, r3
  400768:	68f8      	ldr	r0, [r7, #12]
  40076a:	4b0a      	ldr	r3, [pc, #40]	; (400794 <spi_master_setup_device+0xb0>)
  40076c:	4798      	blx	r3
}
  40076e:	bf00      	nop
  400770:	371c      	adds	r7, #28
  400772:	46bd      	mov	sp, r7
  400774:	bd90      	pop	{r4, r7, pc}
  400776:	bf00      	nop
  400778:	004004ad 	.word	0x004004ad
  40077c:	004013bd 	.word	0x004013bd
  400780:	00401457 	.word	0x00401457
  400784:	00401373 	.word	0x00401373
  400788:	004013f9 	.word	0x004013f9
  40078c:	004012cd 	.word	0x004012cd
  400790:	0040122d 	.word	0x0040122d
  400794:	0040127d 	.word	0x0040127d

00400798 <spi_select_device>:
 * \param p_spi   Base address of the SPI instance.
 * \param device  SPI device.
 *
 */
void spi_select_device(Spi *p_spi, struct spi_device *device)
{
  400798:	b580      	push	{r7, lr}
  40079a:	b082      	sub	sp, #8
  40079c:	af00      	add	r7, sp, #0
  40079e:	6078      	str	r0, [r7, #4]
  4007a0:	6039      	str	r1, [r7, #0]
	if (spi_get_peripheral_select_decode_setting(p_spi)) {
  4007a2:	6878      	ldr	r0, [r7, #4]
  4007a4:	4b10      	ldr	r3, [pc, #64]	; (4007e8 <spi_select_device+0x50>)
  4007a6:	4798      	blx	r3
  4007a8:	4603      	mov	r3, r0
  4007aa:	2b00      	cmp	r3, #0
  4007ac:	d00a      	beq.n	4007c4 <spi_select_device+0x2c>
		if (device->id < MAX_NUM_WITH_DECODER) {
  4007ae:	683b      	ldr	r3, [r7, #0]
  4007b0:	681b      	ldr	r3, [r3, #0]
  4007b2:	2b0f      	cmp	r3, #15
  4007b4:	d814      	bhi.n	4007e0 <spi_select_device+0x48>
			spi_set_peripheral_chip_select_value(p_spi, device->id);
  4007b6:	683b      	ldr	r3, [r7, #0]
  4007b8:	681b      	ldr	r3, [r3, #0]
  4007ba:	4619      	mov	r1, r3
  4007bc:	6878      	ldr	r0, [r7, #4]
  4007be:	4b0b      	ldr	r3, [pc, #44]	; (4007ec <spi_select_device+0x54>)
  4007c0:	4798      	blx	r3
	} else {
		if (device->id < MAX_NUM_WITHOUT_DECODER) {
			spi_set_peripheral_chip_select_value(p_spi, (~(1 << device->id)));
		}
	}
}
  4007c2:	e00d      	b.n	4007e0 <spi_select_device+0x48>
		if (device->id < MAX_NUM_WITHOUT_DECODER) {
  4007c4:	683b      	ldr	r3, [r7, #0]
  4007c6:	681b      	ldr	r3, [r3, #0]
  4007c8:	2b03      	cmp	r3, #3
  4007ca:	d809      	bhi.n	4007e0 <spi_select_device+0x48>
			spi_set_peripheral_chip_select_value(p_spi, (~(1 << device->id)));
  4007cc:	683b      	ldr	r3, [r7, #0]
  4007ce:	681b      	ldr	r3, [r3, #0]
  4007d0:	2201      	movs	r2, #1
  4007d2:	fa02 f303 	lsl.w	r3, r2, r3
  4007d6:	43db      	mvns	r3, r3
  4007d8:	4619      	mov	r1, r3
  4007da:	6878      	ldr	r0, [r7, #4]
  4007dc:	4b03      	ldr	r3, [pc, #12]	; (4007ec <spi_select_device+0x54>)
  4007de:	4798      	blx	r3
}
  4007e0:	bf00      	nop
  4007e2:	3708      	adds	r7, #8
  4007e4:	46bd      	mov	sp, r7
  4007e6:	bd80      	pop	{r7, pc}
  4007e8:	0040053b 	.word	0x0040053b
  4007ec:	00401149 	.word	0x00401149

004007f0 <spi_write_packet>:
 *
 * \pre SPI device must be selected with spi_select_device() first.
 */
status_code_t spi_write_packet(Spi *p_spi, const uint8_t *data,
		size_t len)
{
  4007f0:	b580      	push	{r7, lr}
  4007f2:	b088      	sub	sp, #32
  4007f4:	af00      	add	r7, sp, #0
  4007f6:	60f8      	str	r0, [r7, #12]
  4007f8:	60b9      	str	r1, [r7, #8]
  4007fa:	607a      	str	r2, [r7, #4]
	uint32_t timeout = SPI_TIMEOUT;
  4007fc:	f643 2398 	movw	r3, #15000	; 0x3a98
  400800:	61fb      	str	r3, [r7, #28]
	uint32_t i = 0;
  400802:	2300      	movs	r3, #0
  400804:	61bb      	str	r3, [r7, #24]
	uint8_t val;

	while (len) {
  400806:	e021      	b.n	40084c <spi_write_packet+0x5c>
		timeout = SPI_TIMEOUT;
  400808:	f643 2398 	movw	r3, #15000	; 0x3a98
  40080c:	61fb      	str	r3, [r7, #28]
		while (!spi_is_tx_ready(p_spi)) {
  40080e:	e007      	b.n	400820 <spi_write_packet+0x30>
			if (!timeout--) {
  400810:	69fb      	ldr	r3, [r7, #28]
  400812:	1e5a      	subs	r2, r3, #1
  400814:	61fa      	str	r2, [r7, #28]
  400816:	2b00      	cmp	r3, #0
  400818:	d102      	bne.n	400820 <spi_write_packet+0x30>
				return ERR_TIMEOUT;
  40081a:	f06f 0302 	mvn.w	r3, #2
  40081e:	e019      	b.n	400854 <spi_write_packet+0x64>
		while (!spi_is_tx_ready(p_spi)) {
  400820:	68f8      	ldr	r0, [r7, #12]
  400822:	4b0e      	ldr	r3, [pc, #56]	; (40085c <spi_write_packet+0x6c>)
  400824:	4798      	blx	r3
  400826:	4603      	mov	r3, r0
  400828:	2b00      	cmp	r3, #0
  40082a:	d0f1      	beq.n	400810 <spi_write_packet+0x20>
			}
		}
		val = data[i];
  40082c:	68ba      	ldr	r2, [r7, #8]
  40082e:	69bb      	ldr	r3, [r7, #24]
  400830:	4413      	add	r3, r2
  400832:	781b      	ldrb	r3, [r3, #0]
  400834:	75fb      	strb	r3, [r7, #23]
		spi_write_single(p_spi, val);
  400836:	7dfb      	ldrb	r3, [r7, #23]
  400838:	4619      	mov	r1, r3
  40083a:	68f8      	ldr	r0, [r7, #12]
  40083c:	4b08      	ldr	r3, [pc, #32]	; (400860 <spi_write_packet+0x70>)
  40083e:	4798      	blx	r3
		i++;
  400840:	69bb      	ldr	r3, [r7, #24]
  400842:	3301      	adds	r3, #1
  400844:	61bb      	str	r3, [r7, #24]
		len--;
  400846:	687b      	ldr	r3, [r7, #4]
  400848:	3b01      	subs	r3, #1
  40084a:	607b      	str	r3, [r7, #4]
	while (len) {
  40084c:	687b      	ldr	r3, [r7, #4]
  40084e:	2b00      	cmp	r3, #0
  400850:	d1da      	bne.n	400808 <spi_write_packet+0x18>
	}

	return STATUS_OK;
  400852:	2300      	movs	r3, #0
}
  400854:	4618      	mov	r0, r3
  400856:	3720      	adds	r7, #32
  400858:	46bd      	mov	sp, r7
  40085a:	bd80      	pop	{r7, pc}
  40085c:	004005d9 	.word	0x004005d9
  400860:	0040062d 	.word	0x0040062d

00400864 <spi_read_packet>:
 * \param len       Length of data to be read.
 *
 * \pre SPI device must be selected with spi_select_device() first.
 */
status_code_t spi_read_packet(Spi *p_spi, uint8_t *data, size_t len)
{
  400864:	b580      	push	{r7, lr}
  400866:	b088      	sub	sp, #32
  400868:	af00      	add	r7, sp, #0
  40086a:	60f8      	str	r0, [r7, #12]
  40086c:	60b9      	str	r1, [r7, #8]
  40086e:	607a      	str	r2, [r7, #4]
	uint32_t timeout = SPI_TIMEOUT;
  400870:	f643 2398 	movw	r3, #15000	; 0x3a98
  400874:	61fb      	str	r3, [r7, #28]
	uint8_t val;
	uint32_t i = 0;
  400876:	2300      	movs	r3, #0
  400878:	61bb      	str	r3, [r7, #24]

	while (len) {
  40087a:	e038      	b.n	4008ee <spi_read_packet+0x8a>
		timeout = SPI_TIMEOUT;
  40087c:	f643 2398 	movw	r3, #15000	; 0x3a98
  400880:	61fb      	str	r3, [r7, #28]
		while (!spi_is_tx_ready(p_spi)) {
  400882:	e007      	b.n	400894 <spi_read_packet+0x30>
			if (!timeout--) {
  400884:	69fb      	ldr	r3, [r7, #28]
  400886:	1e5a      	subs	r2, r3, #1
  400888:	61fa      	str	r2, [r7, #28]
  40088a:	2b00      	cmp	r3, #0
  40088c:	d102      	bne.n	400894 <spi_read_packet+0x30>
				return ERR_TIMEOUT;
  40088e:	f06f 0302 	mvn.w	r3, #2
  400892:	e030      	b.n	4008f6 <spi_read_packet+0x92>
		while (!spi_is_tx_ready(p_spi)) {
  400894:	68f8      	ldr	r0, [r7, #12]
  400896:	4b1a      	ldr	r3, [pc, #104]	; (400900 <spi_read_packet+0x9c>)
  400898:	4798      	blx	r3
  40089a:	4603      	mov	r3, r0
  40089c:	2b00      	cmp	r3, #0
  40089e:	d0f1      	beq.n	400884 <spi_read_packet+0x20>
			}
		}
		spi_write_single(p_spi, CONFIG_SPI_MASTER_DUMMY);
  4008a0:	21ff      	movs	r1, #255	; 0xff
  4008a2:	68f8      	ldr	r0, [r7, #12]
  4008a4:	4b17      	ldr	r3, [pc, #92]	; (400904 <spi_read_packet+0xa0>)
  4008a6:	4798      	blx	r3

		timeout = SPI_TIMEOUT;
  4008a8:	f643 2398 	movw	r3, #15000	; 0x3a98
  4008ac:	61fb      	str	r3, [r7, #28]
		while (!spi_is_rx_ready(p_spi)) {
  4008ae:	e007      	b.n	4008c0 <spi_read_packet+0x5c>
			if (!timeout--) {
  4008b0:	69fb      	ldr	r3, [r7, #28]
  4008b2:	1e5a      	subs	r2, r3, #1
  4008b4:	61fa      	str	r2, [r7, #28]
  4008b6:	2b00      	cmp	r3, #0
  4008b8:	d102      	bne.n	4008c0 <spi_read_packet+0x5c>
				return ERR_TIMEOUT;
  4008ba:	f06f 0302 	mvn.w	r3, #2
  4008be:	e01a      	b.n	4008f6 <spi_read_packet+0x92>
		while (!spi_is_rx_ready(p_spi)) {
  4008c0:	68f8      	ldr	r0, [r7, #12]
  4008c2:	4b11      	ldr	r3, [pc, #68]	; (400908 <spi_read_packet+0xa4>)
  4008c4:	4798      	blx	r3
  4008c6:	4603      	mov	r3, r0
  4008c8:	2b00      	cmp	r3, #0
  4008ca:	d0f1      	beq.n	4008b0 <spi_read_packet+0x4c>
			}
		}
		spi_read_single(p_spi, &val);
  4008cc:	f107 0317 	add.w	r3, r7, #23
  4008d0:	4619      	mov	r1, r3
  4008d2:	68f8      	ldr	r0, [r7, #12]
  4008d4:	4b0d      	ldr	r3, [pc, #52]	; (40090c <spi_read_packet+0xa8>)
  4008d6:	4798      	blx	r3

		data[i] = val;
  4008d8:	68ba      	ldr	r2, [r7, #8]
  4008da:	69bb      	ldr	r3, [r7, #24]
  4008dc:	4413      	add	r3, r2
  4008de:	7dfa      	ldrb	r2, [r7, #23]
  4008e0:	701a      	strb	r2, [r3, #0]
		i++;
  4008e2:	69bb      	ldr	r3, [r7, #24]
  4008e4:	3301      	adds	r3, #1
  4008e6:	61bb      	str	r3, [r7, #24]
		len--;
  4008e8:	687b      	ldr	r3, [r7, #4]
  4008ea:	3b01      	subs	r3, #1
  4008ec:	607b      	str	r3, [r7, #4]
	while (len) {
  4008ee:	687b      	ldr	r3, [r7, #4]
  4008f0:	2b00      	cmp	r3, #0
  4008f2:	d1c3      	bne.n	40087c <spi_read_packet+0x18>
	}

	return STATUS_OK;
  4008f4:	2300      	movs	r3, #0
}
  4008f6:	4618      	mov	r0, r3
  4008f8:	3720      	adds	r7, #32
  4008fa:	46bd      	mov	sp, r7
  4008fc:	bd80      	pop	{r7, pc}
  4008fe:	bf00      	nop
  400900:	004005d9 	.word	0x004005d9
  400904:	0040062d 	.word	0x0040062d
  400908:	004005ff 	.word	0x004005ff
  40090c:	00400651 	.word	0x00400651

00400910 <spi_enable>:
{
  400910:	b480      	push	{r7}
  400912:	b083      	sub	sp, #12
  400914:	af00      	add	r7, sp, #0
  400916:	6078      	str	r0, [r7, #4]
	p_spi->SPI_CR = SPI_CR_SPIEN;
  400918:	687b      	ldr	r3, [r7, #4]
  40091a:	2201      	movs	r2, #1
  40091c:	601a      	str	r2, [r3, #0]
}
  40091e:	bf00      	nop
  400920:	370c      	adds	r7, #12
  400922:	46bd      	mov	sp, r7
  400924:	f85d 7b04 	ldr.w	r7, [sp], #4
  400928:	4770      	bx	lr

0040092a <spi_enable_interrupt>:
 *
 * \param p_spi Pointer to an SPI instance.
 * \param ul_sources Interrupts to be enabled.
 */
static inline void spi_enable_interrupt(Spi *p_spi, uint32_t ul_sources)
{
  40092a:	b480      	push	{r7}
  40092c:	b083      	sub	sp, #12
  40092e:	af00      	add	r7, sp, #0
  400930:	6078      	str	r0, [r7, #4]
  400932:	6039      	str	r1, [r7, #0]
	p_spi->SPI_IER = ul_sources;
  400934:	687b      	ldr	r3, [r7, #4]
  400936:	683a      	ldr	r2, [r7, #0]
  400938:	615a      	str	r2, [r3, #20]
}
  40093a:	bf00      	nop
  40093c:	370c      	adds	r7, #12
  40093e:	46bd      	mov	sp, r7
  400940:	f85d 7b04 	ldr.w	r7, [sp], #4
  400944:	4770      	bx	lr
	...

00400948 <ili9488_write_ram_prepare>:
#ifdef ILI9488_SPIMODE
/**
 * \brief Prepare to write GRAM data.
 */
static void ili9488_write_ram_prepare(void)
{
  400948:	b590      	push	{r4, r7, lr}
  40094a:	b083      	sub	sp, #12
  40094c:	af00      	add	r7, sp, #0
	volatile uint32_t i;
	pio_set_pin_low(LCD_SPI_CDS_PIO);
  40094e:	2006      	movs	r0, #6
  400950:	4b0a      	ldr	r3, [pc, #40]	; (40097c <ili9488_write_ram_prepare+0x34>)
  400952:	4798      	blx	r3
	spi_write(BOARD_ILI9488_SPI, ILI9488_CMD_MEMORY_WRITE, BOARD_ILI9488_SPI_NPCS, 0);
  400954:	2300      	movs	r3, #0
  400956:	2203      	movs	r2, #3
  400958:	212c      	movs	r1, #44	; 0x2c
  40095a:	4809      	ldr	r0, [pc, #36]	; (400980 <ili9488_write_ram_prepare+0x38>)
  40095c:	4c09      	ldr	r4, [pc, #36]	; (400984 <ili9488_write_ram_prepare+0x3c>)
  40095e:	47a0      	blx	r4
	for(i = 0; i < 0xFF; i++);
  400960:	2300      	movs	r3, #0
  400962:	607b      	str	r3, [r7, #4]
  400964:	e002      	b.n	40096c <ili9488_write_ram_prepare+0x24>
  400966:	687b      	ldr	r3, [r7, #4]
  400968:	3301      	adds	r3, #1
  40096a:	607b      	str	r3, [r7, #4]
  40096c:	687b      	ldr	r3, [r7, #4]
  40096e:	2bfe      	cmp	r3, #254	; 0xfe
  400970:	d9f9      	bls.n	400966 <ili9488_write_ram_prepare+0x1e>
}
  400972:	bf00      	nop
  400974:	370c      	adds	r7, #12
  400976:	46bd      	mov	sp, r7
  400978:	bd90      	pop	{r4, r7, pc}
  40097a:	bf00      	nop
  40097c:	00401e41 	.word	0x00401e41
  400980:	40008000 	.word	0x40008000
  400984:	004011ad 	.word	0x004011ad

00400988 <ili9488_write_ram_buffer>:
 *
 * \param p_ul_buf data buffer.
 * \param ul_size size in pixels.
 */
static void ili9488_write_ram_buffer(const ili9488_color_t *p_ul_buf, uint32_t ul_size)
{
  400988:	b580      	push	{r7, lr}
  40098a:	b084      	sub	sp, #16
  40098c:	af00      	add	r7, sp, #0
  40098e:	6078      	str	r0, [r7, #4]
  400990:	6039      	str	r1, [r7, #0]
	volatile uint32_t i;
	pio_set_pin_high(LCD_SPI_CDS_PIO);
  400992:	2006      	movs	r0, #6
  400994:	4b09      	ldr	r3, [pc, #36]	; (4009bc <ili9488_write_ram_buffer+0x34>)
  400996:	4798      	blx	r3
	spi_write_packet(BOARD_ILI9488_SPI, p_ul_buf, ul_size);
  400998:	683a      	ldr	r2, [r7, #0]
  40099a:	6879      	ldr	r1, [r7, #4]
  40099c:	4808      	ldr	r0, [pc, #32]	; (4009c0 <ili9488_write_ram_buffer+0x38>)
  40099e:	4b09      	ldr	r3, [pc, #36]	; (4009c4 <ili9488_write_ram_buffer+0x3c>)
  4009a0:	4798      	blx	r3
	for(i = 0; i < 0xFF; i++);
  4009a2:	2300      	movs	r3, #0
  4009a4:	60fb      	str	r3, [r7, #12]
  4009a6:	e002      	b.n	4009ae <ili9488_write_ram_buffer+0x26>
  4009a8:	68fb      	ldr	r3, [r7, #12]
  4009aa:	3301      	adds	r3, #1
  4009ac:	60fb      	str	r3, [r7, #12]
  4009ae:	68fb      	ldr	r3, [r7, #12]
  4009b0:	2bfe      	cmp	r3, #254	; 0xfe
  4009b2:	d9f9      	bls.n	4009a8 <ili9488_write_ram_buffer+0x20>
}
  4009b4:	bf00      	nop
  4009b6:	3710      	adds	r7, #16
  4009b8:	46bd      	mov	sp, r7
  4009ba:	bd80      	pop	{r7, pc}
  4009bc:	00401e11 	.word	0x00401e11
  4009c0:	40008000 	.word	0x40008000
  4009c4:	004007f1 	.word	0x004007f1

004009c8 <ili9488_write_register>:
 * \param uc_reg register address.
 * \param us_data data to be written.
 * \param size the number of parameters.
 */
static void ili9488_write_register(uint8_t uc_reg, const ili9488_color_t *us_data, uint32_t size)
{
  4009c8:	b590      	push	{r4, r7, lr}
  4009ca:	b087      	sub	sp, #28
  4009cc:	af00      	add	r7, sp, #0
  4009ce:	4603      	mov	r3, r0
  4009d0:	60b9      	str	r1, [r7, #8]
  4009d2:	607a      	str	r2, [r7, #4]
  4009d4:	73fb      	strb	r3, [r7, #15]
	volatile uint32_t i;

	/* Transfer cmd */
	pio_set_pin_low(LCD_SPI_CDS_PIO);
  4009d6:	2006      	movs	r0, #6
  4009d8:	4b14      	ldr	r3, [pc, #80]	; (400a2c <ili9488_write_register+0x64>)
  4009da:	4798      	blx	r3
	spi_write(BOARD_ILI9488_SPI, uc_reg, BOARD_ILI9488_SPI_NPCS, 0);
  4009dc:	7bfb      	ldrb	r3, [r7, #15]
  4009de:	b299      	uxth	r1, r3
  4009e0:	2300      	movs	r3, #0
  4009e2:	2203      	movs	r2, #3
  4009e4:	4812      	ldr	r0, [pc, #72]	; (400a30 <ili9488_write_register+0x68>)
  4009e6:	4c13      	ldr	r4, [pc, #76]	; (400a34 <ili9488_write_register+0x6c>)
  4009e8:	47a0      	blx	r4
	for(i = 0; i < 0xFF; i++);
  4009ea:	2300      	movs	r3, #0
  4009ec:	617b      	str	r3, [r7, #20]
  4009ee:	e002      	b.n	4009f6 <ili9488_write_register+0x2e>
  4009f0:	697b      	ldr	r3, [r7, #20]
  4009f2:	3301      	adds	r3, #1
  4009f4:	617b      	str	r3, [r7, #20]
  4009f6:	697b      	ldr	r3, [r7, #20]
  4009f8:	2bfe      	cmp	r3, #254	; 0xfe
  4009fa:	d9f9      	bls.n	4009f0 <ili9488_write_register+0x28>

	if(size > 0) {
  4009fc:	687b      	ldr	r3, [r7, #4]
  4009fe:	2b00      	cmp	r3, #0
  400a00:	d010      	beq.n	400a24 <ili9488_write_register+0x5c>
		/* Transfer data */
		pio_set_pin_high(LCD_SPI_CDS_PIO);
  400a02:	2006      	movs	r0, #6
  400a04:	4b0c      	ldr	r3, [pc, #48]	; (400a38 <ili9488_write_register+0x70>)
  400a06:	4798      	blx	r3
		spi_write_packet(BOARD_ILI9488_SPI, us_data, size);
  400a08:	687a      	ldr	r2, [r7, #4]
  400a0a:	68b9      	ldr	r1, [r7, #8]
  400a0c:	4808      	ldr	r0, [pc, #32]	; (400a30 <ili9488_write_register+0x68>)
  400a0e:	4b0b      	ldr	r3, [pc, #44]	; (400a3c <ili9488_write_register+0x74>)
  400a10:	4798      	blx	r3
		for(i = 0; i < 0x5F; i++);
  400a12:	2300      	movs	r3, #0
  400a14:	617b      	str	r3, [r7, #20]
  400a16:	e002      	b.n	400a1e <ili9488_write_register+0x56>
  400a18:	697b      	ldr	r3, [r7, #20]
  400a1a:	3301      	adds	r3, #1
  400a1c:	617b      	str	r3, [r7, #20]
  400a1e:	697b      	ldr	r3, [r7, #20]
  400a20:	2b5e      	cmp	r3, #94	; 0x5e
  400a22:	d9f9      	bls.n	400a18 <ili9488_write_register+0x50>
	}
}
  400a24:	bf00      	nop
  400a26:	371c      	adds	r7, #28
  400a28:	46bd      	mov	sp, r7
  400a2a:	bd90      	pop	{r4, r7, pc}
  400a2c:	00401e41 	.word	0x00401e41
  400a30:	40008000 	.word	0x40008000
  400a34:	004011ad 	.word	0x004011ad
  400a38:	00401e11 	.word	0x00401e11
  400a3c:	004007f1 	.word	0x004007f1

00400a40 <ili9488_read_chipid>:
 * \brief Read chipid.
 *
 * \return chipid value.
 */
static uint32_t ili9488_read_chipid(void)
{
  400a40:	b580      	push	{r7, lr}
  400a42:	b084      	sub	sp, #16
  400a44:	af00      	add	r7, sp, #0
	uint32_t i, chipid = 0;
  400a46:	2300      	movs	r3, #0
  400a48:	60bb      	str	r3, [r7, #8]
	volatile uint32_t j;
	ili9488_color_t chipidBuf, reg, param;

	reg = 0x81;
  400a4a:	2381      	movs	r3, #129	; 0x81
  400a4c:	70bb      	strb	r3, [r7, #2]
	param = 0x0;
  400a4e:	2300      	movs	r3, #0
  400a50:	707b      	strb	r3, [r7, #1]
	for (i = 3; i > 0; i--) {
  400a52:	2303      	movs	r3, #3
  400a54:	60fb      	str	r3, [r7, #12]
  400a56:	e048      	b.n	400aea <ili9488_read_chipid+0xaa>
		ili9488_write_register(ILI9488_CMD_SPI_READ_SETTINGS, &reg, 1);
  400a58:	1cbb      	adds	r3, r7, #2
  400a5a:	2201      	movs	r2, #1
  400a5c:	4619      	mov	r1, r3
  400a5e:	20fb      	movs	r0, #251	; 0xfb
  400a60:	4b26      	ldr	r3, [pc, #152]	; (400afc <ili9488_read_chipid+0xbc>)
  400a62:	4798      	blx	r3
		reg++;
  400a64:	78bb      	ldrb	r3, [r7, #2]
  400a66:	3301      	adds	r3, #1
  400a68:	b2db      	uxtb	r3, r3
  400a6a:	70bb      	strb	r3, [r7, #2]
		for(j = 0; j < 0xFF; j++);
  400a6c:	2300      	movs	r3, #0
  400a6e:	607b      	str	r3, [r7, #4]
  400a70:	e002      	b.n	400a78 <ili9488_read_chipid+0x38>
  400a72:	687b      	ldr	r3, [r7, #4]
  400a74:	3301      	adds	r3, #1
  400a76:	607b      	str	r3, [r7, #4]
  400a78:	687b      	ldr	r3, [r7, #4]
  400a7a:	2bfe      	cmp	r3, #254	; 0xfe
  400a7c:	d9f9      	bls.n	400a72 <ili9488_read_chipid+0x32>
		ili9488_write_register(ILI9488_CMD_READ_ID4, 0, 0);
  400a7e:	2200      	movs	r2, #0
  400a80:	2100      	movs	r1, #0
  400a82:	20d3      	movs	r0, #211	; 0xd3
  400a84:	4b1d      	ldr	r3, [pc, #116]	; (400afc <ili9488_read_chipid+0xbc>)
  400a86:	4798      	blx	r3
		{
			pio_set_pin_high(LCD_SPI_CDS_PIO);
  400a88:	2006      	movs	r0, #6
  400a8a:	4b1d      	ldr	r3, [pc, #116]	; (400b00 <ili9488_read_chipid+0xc0>)
  400a8c:	4798      	blx	r3
			spi_read_packet(BOARD_ILI9488_SPI, &chipidBuf, 1);
  400a8e:	1cfb      	adds	r3, r7, #3
  400a90:	2201      	movs	r2, #1
  400a92:	4619      	mov	r1, r3
  400a94:	481b      	ldr	r0, [pc, #108]	; (400b04 <ili9488_read_chipid+0xc4>)
  400a96:	4b1c      	ldr	r3, [pc, #112]	; (400b08 <ili9488_read_chipid+0xc8>)
  400a98:	4798      	blx	r3
			for(j = 0; j < 0xFF; j++);
  400a9a:	2300      	movs	r3, #0
  400a9c:	607b      	str	r3, [r7, #4]
  400a9e:	e002      	b.n	400aa6 <ili9488_read_chipid+0x66>
  400aa0:	687b      	ldr	r3, [r7, #4]
  400aa2:	3301      	adds	r3, #1
  400aa4:	607b      	str	r3, [r7, #4]
  400aa6:	687b      	ldr	r3, [r7, #4]
  400aa8:	2bfe      	cmp	r3, #254	; 0xfe
  400aaa:	d9f9      	bls.n	400aa0 <ili9488_read_chipid+0x60>
		}
		chipid |= (chipidBuf & 0xFF) << ((i - 1) << 3);
  400aac:	78fb      	ldrb	r3, [r7, #3]
  400aae:	461a      	mov	r2, r3
  400ab0:	68fb      	ldr	r3, [r7, #12]
  400ab2:	3b01      	subs	r3, #1
  400ab4:	00db      	lsls	r3, r3, #3
  400ab6:	fa02 f303 	lsl.w	r3, r2, r3
  400aba:	461a      	mov	r2, r3
  400abc:	68bb      	ldr	r3, [r7, #8]
  400abe:	4313      	orrs	r3, r2
  400ac0:	60bb      	str	r3, [r7, #8]
		ili9488_write_register(ILI9488_CMD_SPI_READ_SETTINGS, &param, 1);
  400ac2:	1c7b      	adds	r3, r7, #1
  400ac4:	2201      	movs	r2, #1
  400ac6:	4619      	mov	r1, r3
  400ac8:	20fb      	movs	r0, #251	; 0xfb
  400aca:	4b0c      	ldr	r3, [pc, #48]	; (400afc <ili9488_read_chipid+0xbc>)
  400acc:	4798      	blx	r3
		for(j = 0; j < 0xFFF; j++);
  400ace:	2300      	movs	r3, #0
  400ad0:	607b      	str	r3, [r7, #4]
  400ad2:	e002      	b.n	400ada <ili9488_read_chipid+0x9a>
  400ad4:	687b      	ldr	r3, [r7, #4]
  400ad6:	3301      	adds	r3, #1
  400ad8:	607b      	str	r3, [r7, #4]
  400ada:	687b      	ldr	r3, [r7, #4]
  400adc:	f640 72fe 	movw	r2, #4094	; 0xffe
  400ae0:	4293      	cmp	r3, r2
  400ae2:	d9f7      	bls.n	400ad4 <ili9488_read_chipid+0x94>
	for (i = 3; i > 0; i--) {
  400ae4:	68fb      	ldr	r3, [r7, #12]
  400ae6:	3b01      	subs	r3, #1
  400ae8:	60fb      	str	r3, [r7, #12]
  400aea:	68fb      	ldr	r3, [r7, #12]
  400aec:	2b00      	cmp	r3, #0
  400aee:	d1b3      	bne.n	400a58 <ili9488_read_chipid+0x18>
	}
	return chipid;
  400af0:	68bb      	ldr	r3, [r7, #8]
}
  400af2:	4618      	mov	r0, r3
  400af4:	3710      	adds	r7, #16
  400af6:	46bd      	mov	sp, r7
  400af8:	bd80      	pop	{r7, pc}
  400afa:	bf00      	nop
  400afc:	004009c9 	.word	0x004009c9
  400b00:	00401e11 	.word	0x00401e11
  400b04:	40008000 	.word	0x40008000
  400b08:	00400865 	.word	0x00400865

00400b0c <ili9488_delay>:

/**
 * \brief Delay function.
 */
void ili9488_delay(uint32_t ul_ms)
{
  400b0c:	b480      	push	{r7}
  400b0e:	b085      	sub	sp, #20
  400b10:	af00      	add	r7, sp, #0
  400b12:	6078      	str	r0, [r7, #4]
	uint32_t i;

	for(i = 0; i < ul_ms; i++) {
  400b14:	2300      	movs	r3, #0
  400b16:	60fb      	str	r3, [r7, #12]
  400b18:	e00c      	b.n	400b34 <ili9488_delay+0x28>
		for(i = 0; i < 100000; i++) {
  400b1a:	2300      	movs	r3, #0
  400b1c:	60fb      	str	r3, [r7, #12]
  400b1e:	e002      	b.n	400b26 <ili9488_delay+0x1a>
  400b20:	68fb      	ldr	r3, [r7, #12]
  400b22:	3301      	adds	r3, #1
  400b24:	60fb      	str	r3, [r7, #12]
  400b26:	68fb      	ldr	r3, [r7, #12]
  400b28:	4a07      	ldr	r2, [pc, #28]	; (400b48 <ili9488_delay+0x3c>)
  400b2a:	4293      	cmp	r3, r2
  400b2c:	d9f8      	bls.n	400b20 <ili9488_delay+0x14>
	for(i = 0; i < ul_ms; i++) {
  400b2e:	68fb      	ldr	r3, [r7, #12]
  400b30:	3301      	adds	r3, #1
  400b32:	60fb      	str	r3, [r7, #12]
  400b34:	68fa      	ldr	r2, [r7, #12]
  400b36:	687b      	ldr	r3, [r7, #4]
  400b38:	429a      	cmp	r2, r3
  400b3a:	d3ee      	bcc.n	400b1a <ili9488_delay+0xe>
		}
	}
}
  400b3c:	bf00      	nop
  400b3e:	3714      	adds	r7, #20
  400b40:	46bd      	mov	sp, r7
  400b42:	f85d 7b04 	ldr.w	r7, [sp], #4
  400b46:	4770      	bx	lr
  400b48:	0001869f 	.word	0x0001869f

00400b4c <ili9488_check_box_coordinates>:
 * \param p_ul_x2 X coordinate of lower-right corner on LCD.
 * \param p_ul_y2 Y coordinate of lower-right corner on LCD.
 */
static void ili9488_check_box_coordinates(uint32_t *p_ul_x1, uint32_t *p_ul_y1,
		uint32_t *p_ul_x2, uint32_t *p_ul_y2)
{
  400b4c:	b480      	push	{r7}
  400b4e:	b087      	sub	sp, #28
  400b50:	af00      	add	r7, sp, #0
  400b52:	60f8      	str	r0, [r7, #12]
  400b54:	60b9      	str	r1, [r7, #8]
  400b56:	607a      	str	r2, [r7, #4]
  400b58:	603b      	str	r3, [r7, #0]
	uint32_t dw;

	if (*p_ul_x1 >= ILI9488_LCD_WIDTH) {
  400b5a:	68fb      	ldr	r3, [r7, #12]
  400b5c:	681b      	ldr	r3, [r3, #0]
  400b5e:	f5b3 7fa0 	cmp.w	r3, #320	; 0x140
  400b62:	d303      	bcc.n	400b6c <ili9488_check_box_coordinates+0x20>
		*p_ul_x1 = ILI9488_LCD_WIDTH - 1;
  400b64:	68fb      	ldr	r3, [r7, #12]
  400b66:	f240 123f 	movw	r2, #319	; 0x13f
  400b6a:	601a      	str	r2, [r3, #0]
	}

	if (*p_ul_x2 >= ILI9488_LCD_WIDTH) {
  400b6c:	687b      	ldr	r3, [r7, #4]
  400b6e:	681b      	ldr	r3, [r3, #0]
  400b70:	f5b3 7fa0 	cmp.w	r3, #320	; 0x140
  400b74:	d303      	bcc.n	400b7e <ili9488_check_box_coordinates+0x32>
		*p_ul_x2 = ILI9488_LCD_WIDTH - 1;
  400b76:	687b      	ldr	r3, [r7, #4]
  400b78:	f240 123f 	movw	r2, #319	; 0x13f
  400b7c:	601a      	str	r2, [r3, #0]
	}

	if (*p_ul_y1 >= ILI9488_LCD_HEIGHT) {
  400b7e:	68bb      	ldr	r3, [r7, #8]
  400b80:	681b      	ldr	r3, [r3, #0]
  400b82:	f5b3 7ff0 	cmp.w	r3, #480	; 0x1e0
  400b86:	d303      	bcc.n	400b90 <ili9488_check_box_coordinates+0x44>
		*p_ul_y1 = ILI9488_LCD_HEIGHT - 1;
  400b88:	68bb      	ldr	r3, [r7, #8]
  400b8a:	f240 12df 	movw	r2, #479	; 0x1df
  400b8e:	601a      	str	r2, [r3, #0]
	}

	if (*p_ul_y2 >= ILI9488_LCD_HEIGHT) {
  400b90:	683b      	ldr	r3, [r7, #0]
  400b92:	681b      	ldr	r3, [r3, #0]
  400b94:	f5b3 7ff0 	cmp.w	r3, #480	; 0x1e0
  400b98:	d303      	bcc.n	400ba2 <ili9488_check_box_coordinates+0x56>
		*p_ul_y2 = ILI9488_LCD_HEIGHT - 1;
  400b9a:	683b      	ldr	r3, [r7, #0]
  400b9c:	f240 12df 	movw	r2, #479	; 0x1df
  400ba0:	601a      	str	r2, [r3, #0]
	}

	if (*p_ul_x1 > *p_ul_x2) {
  400ba2:	68fb      	ldr	r3, [r7, #12]
  400ba4:	681a      	ldr	r2, [r3, #0]
  400ba6:	687b      	ldr	r3, [r7, #4]
  400ba8:	681b      	ldr	r3, [r3, #0]
  400baa:	429a      	cmp	r2, r3
  400bac:	d909      	bls.n	400bc2 <ili9488_check_box_coordinates+0x76>
		dw = *p_ul_x1;
  400bae:	68fb      	ldr	r3, [r7, #12]
  400bb0:	681b      	ldr	r3, [r3, #0]
  400bb2:	617b      	str	r3, [r7, #20]
		*p_ul_x1 = *p_ul_x2;
  400bb4:	687b      	ldr	r3, [r7, #4]
  400bb6:	681a      	ldr	r2, [r3, #0]
  400bb8:	68fb      	ldr	r3, [r7, #12]
  400bba:	601a      	str	r2, [r3, #0]
		*p_ul_x2 = dw;
  400bbc:	687b      	ldr	r3, [r7, #4]
  400bbe:	697a      	ldr	r2, [r7, #20]
  400bc0:	601a      	str	r2, [r3, #0]
	}

	if (*p_ul_y1 > *p_ul_y2) {
  400bc2:	68bb      	ldr	r3, [r7, #8]
  400bc4:	681a      	ldr	r2, [r3, #0]
  400bc6:	683b      	ldr	r3, [r7, #0]
  400bc8:	681b      	ldr	r3, [r3, #0]
  400bca:	429a      	cmp	r2, r3
  400bcc:	d909      	bls.n	400be2 <ili9488_check_box_coordinates+0x96>
		dw = *p_ul_y1;
  400bce:	68bb      	ldr	r3, [r7, #8]
  400bd0:	681b      	ldr	r3, [r3, #0]
  400bd2:	617b      	str	r3, [r7, #20]
		*p_ul_y1 = *p_ul_y2;
  400bd4:	683b      	ldr	r3, [r7, #0]
  400bd6:	681a      	ldr	r2, [r3, #0]
  400bd8:	68bb      	ldr	r3, [r7, #8]
  400bda:	601a      	str	r2, [r3, #0]
		*p_ul_y2 = dw;
  400bdc:	683b      	ldr	r3, [r7, #0]
  400bde:	697a      	ldr	r2, [r7, #20]
  400be0:	601a      	str	r2, [r3, #0]
	}
}
  400be2:	bf00      	nop
  400be4:	371c      	adds	r7, #28
  400be6:	46bd      	mov	sp, r7
  400be8:	f85d 7b04 	ldr.w	r7, [sp], #4
  400bec:	4770      	bx	lr
	...

00400bf0 <ili9488_set_display_direction>:
 * \brief ILI9488 configure landscape.
 *
 * \Param LandscaprMode Landscape Mode.
 */
void ili9488_set_display_direction(enum ili9488_display_direction direction )
{
  400bf0:	b580      	push	{r7, lr}
  400bf2:	b084      	sub	sp, #16
  400bf4:	af00      	add	r7, sp, #0
  400bf6:	4603      	mov	r3, r0
  400bf8:	71fb      	strb	r3, [r7, #7]
	ili9488_color_t value;
	if(direction) {
  400bfa:	79fb      	ldrb	r3, [r7, #7]
  400bfc:	2b00      	cmp	r3, #0
  400bfe:	d002      	beq.n	400c06 <ili9488_set_display_direction+0x16>
		value = 0xE8;
  400c00:	23e8      	movs	r3, #232	; 0xe8
  400c02:	73fb      	strb	r3, [r7, #15]
  400c04:	e001      	b.n	400c0a <ili9488_set_display_direction+0x1a>
	} else {
		value = 0x48;
  400c06:	2348      	movs	r3, #72	; 0x48
  400c08:	73fb      	strb	r3, [r7, #15]
	}
	ili9488_write_register(ILI9488_CMD_MEMORY_ACCESS_CONTROL, &value, 1);
  400c0a:	f107 030f 	add.w	r3, r7, #15
  400c0e:	2201      	movs	r2, #1
  400c10:	4619      	mov	r1, r3
  400c12:	2036      	movs	r0, #54	; 0x36
  400c14:	4b02      	ldr	r3, [pc, #8]	; (400c20 <ili9488_set_display_direction+0x30>)
  400c16:	4798      	blx	r3
}
  400c18:	bf00      	nop
  400c1a:	3710      	adds	r7, #16
  400c1c:	46bd      	mov	sp, r7
  400c1e:	bd80      	pop	{r7, pc}
  400c20:	004009c9 	.word	0x004009c9

00400c24 <ili9488_set_window>:
 * \Param y start position.
 * \Param width  Width of window.
 * \Param height Height of window.
 */
void ili9488_set_window(uint16_t x, uint16_t y, uint16_t width, uint16_t height )
{
  400c24:	b590      	push	{r4, r7, lr}
  400c26:	b087      	sub	sp, #28
  400c28:	af00      	add	r7, sp, #0
  400c2a:	4604      	mov	r4, r0
  400c2c:	4608      	mov	r0, r1
  400c2e:	4611      	mov	r1, r2
  400c30:	461a      	mov	r2, r3
  400c32:	4623      	mov	r3, r4
  400c34:	80fb      	strh	r3, [r7, #6]
  400c36:	4603      	mov	r3, r0
  400c38:	80bb      	strh	r3, [r7, #4]
  400c3a:	460b      	mov	r3, r1
  400c3c:	807b      	strh	r3, [r7, #2]
  400c3e:	4613      	mov	r3, r2
  400c40:	803b      	strh	r3, [r7, #0]
	uint16_t col_start, col_end, row_start, row_end;
	uint32_t cnt = 0;
  400c42:	2300      	movs	r3, #0
  400c44:	617b      	str	r3, [r7, #20]
	ili9488_color_t buf[4];

	cnt = sizeof(buf)/sizeof(ili9488_color_t);
  400c46:	2304      	movs	r3, #4
  400c48:	617b      	str	r3, [r7, #20]

	col_start  =  x ;
  400c4a:	88fb      	ldrh	r3, [r7, #6]
  400c4c:	827b      	strh	r3, [r7, #18]
	col_end    =  width + x - 1;
  400c4e:	887a      	ldrh	r2, [r7, #2]
  400c50:	88fb      	ldrh	r3, [r7, #6]
  400c52:	4413      	add	r3, r2
  400c54:	b29b      	uxth	r3, r3
  400c56:	3b01      	subs	r3, #1
  400c58:	b29b      	uxth	r3, r3
  400c5a:	823b      	strh	r3, [r7, #16]

	row_start = y ;
  400c5c:	88bb      	ldrh	r3, [r7, #4]
  400c5e:	81fb      	strh	r3, [r7, #14]
	row_end   = height + y - 1;
  400c60:	883a      	ldrh	r2, [r7, #0]
  400c62:	88bb      	ldrh	r3, [r7, #4]
  400c64:	4413      	add	r3, r2
  400c66:	b29b      	uxth	r3, r3
  400c68:	3b01      	subs	r3, #1
  400c6a:	b29b      	uxth	r3, r3
  400c6c:	81bb      	strh	r3, [r7, #12]

	buf[0] = get_8b_to_16b(col_start);
  400c6e:	f107 0312 	add.w	r3, r7, #18
  400c72:	785b      	ldrb	r3, [r3, #1]
  400c74:	723b      	strb	r3, [r7, #8]
	buf[1] = get_0b_to_8b(col_start);
  400c76:	f107 0312 	add.w	r3, r7, #18
  400c7a:	781b      	ldrb	r3, [r3, #0]
  400c7c:	727b      	strb	r3, [r7, #9]
	buf[2] = get_8b_to_16b(col_end);
  400c7e:	f107 0310 	add.w	r3, r7, #16
  400c82:	785b      	ldrb	r3, [r3, #1]
  400c84:	72bb      	strb	r3, [r7, #10]
	buf[3] = get_0b_to_8b(col_end);
  400c86:	f107 0310 	add.w	r3, r7, #16
  400c8a:	781b      	ldrb	r3, [r3, #0]
  400c8c:	72fb      	strb	r3, [r7, #11]
	ili9488_write_register(ILI9488_CMD_COLUMN_ADDRESS_SET, buf, cnt);
  400c8e:	f107 0308 	add.w	r3, r7, #8
  400c92:	697a      	ldr	r2, [r7, #20]
  400c94:	4619      	mov	r1, r3
  400c96:	202a      	movs	r0, #42	; 0x2a
  400c98:	4b13      	ldr	r3, [pc, #76]	; (400ce8 <ili9488_set_window+0xc4>)
  400c9a:	4798      	blx	r3
	ili9488_write_register(ILI9488_CMD_NOP, 0, 0);
  400c9c:	2200      	movs	r2, #0
  400c9e:	2100      	movs	r1, #0
  400ca0:	2000      	movs	r0, #0
  400ca2:	4b11      	ldr	r3, [pc, #68]	; (400ce8 <ili9488_set_window+0xc4>)
  400ca4:	4798      	blx	r3

	/* Set Horizontal Address End Position */
	buf[0] = get_8b_to_16b(row_start);
  400ca6:	f107 030e 	add.w	r3, r7, #14
  400caa:	785b      	ldrb	r3, [r3, #1]
  400cac:	723b      	strb	r3, [r7, #8]
	buf[1] = get_0b_to_8b(row_start);
  400cae:	f107 030e 	add.w	r3, r7, #14
  400cb2:	781b      	ldrb	r3, [r3, #0]
  400cb4:	727b      	strb	r3, [r7, #9]
	buf[2] = get_8b_to_16b(row_end);
  400cb6:	f107 030c 	add.w	r3, r7, #12
  400cba:	785b      	ldrb	r3, [r3, #1]
  400cbc:	72bb      	strb	r3, [r7, #10]
	buf[3] = get_0b_to_8b(row_end);
  400cbe:	f107 030c 	add.w	r3, r7, #12
  400cc2:	781b      	ldrb	r3, [r3, #0]
  400cc4:	72fb      	strb	r3, [r7, #11]
	ili9488_write_register(ILI9488_CMD_PAGE_ADDRESS_SET, buf, cnt);
  400cc6:	f107 0308 	add.w	r3, r7, #8
  400cca:	697a      	ldr	r2, [r7, #20]
  400ccc:	4619      	mov	r1, r3
  400cce:	202b      	movs	r0, #43	; 0x2b
  400cd0:	4b05      	ldr	r3, [pc, #20]	; (400ce8 <ili9488_set_window+0xc4>)
  400cd2:	4798      	blx	r3
	ili9488_write_register(ILI9488_CMD_NOP, 0, 0);
  400cd4:	2200      	movs	r2, #0
  400cd6:	2100      	movs	r1, #0
  400cd8:	2000      	movs	r0, #0
  400cda:	4b03      	ldr	r3, [pc, #12]	; (400ce8 <ili9488_set_window+0xc4>)
  400cdc:	4798      	blx	r3
}
  400cde:	bf00      	nop
  400ce0:	371c      	adds	r7, #28
  400ce2:	46bd      	mov	sp, r7
  400ce4:	bd90      	pop	{r4, r7, pc}
  400ce6:	bf00      	nop
  400ce8:	004009c9 	.word	0x004009c9

00400cec <ili9488_init>:
 * \param p_opt pointer to ILI9488 option structure.
 *
 * \return 0 if initialization succeeds, otherwise fails.
 */
uint32_t ili9488_init(struct ili9488_opt_t *p_opt)
{
  400cec:	b590      	push	{r4, r7, lr}
  400cee:	b089      	sub	sp, #36	; 0x24
  400cf0:	af02      	add	r7, sp, #8
  400cf2:	6078      	str	r0, [r7, #4]
			| SMC_MODE_DBW_16_BIT
			| SMC_MODE_EXNW_MODE_DISABLED
			| SMC_MODE_TDF_CYCLES(0xF));
#endif
#ifdef ILI9488_SPIMODE
	struct spi_device ILI9488_SPI_DEVICE = {
  400cf4:	2303      	movs	r3, #3
  400cf6:	60fb      	str	r3, [r7, #12]
		// Board specific chip select configuration
		.id = BOARD_ILI9488_SPI_NPCS
	};

	/* Init, select and configure the chip */
	spi_master_init(BOARD_ILI9488_SPI);
  400cf8:	4843      	ldr	r0, [pc, #268]	; (400e08 <ili9488_init+0x11c>)
  400cfa:	4b44      	ldr	r3, [pc, #272]	; (400e0c <ili9488_init+0x120>)
  400cfc:	4798      	blx	r3
	spi_master_setup_device(BOARD_ILI9488_SPI, &ILI9488_SPI_DEVICE, SPI_MODE_3, ILI9488_SPI_BAUDRATE, 0);
  400cfe:	f107 010c 	add.w	r1, r7, #12
  400d02:	2300      	movs	r3, #0
  400d04:	9300      	str	r3, [sp, #0]
  400d06:	4b42      	ldr	r3, [pc, #264]	; (400e10 <ili9488_init+0x124>)
  400d08:	2203      	movs	r2, #3
  400d0a:	483f      	ldr	r0, [pc, #252]	; (400e08 <ili9488_init+0x11c>)
  400d0c:	4c41      	ldr	r4, [pc, #260]	; (400e14 <ili9488_init+0x128>)
  400d0e:	47a0      	blx	r4
	spi_configure_cs_behavior(BOARD_ILI9488_SPI, BOARD_ILI9488_SPI_NPCS, SPI_CS_RISE_NO_TX);
  400d10:	2200      	movs	r2, #0
  400d12:	2103      	movs	r1, #3
  400d14:	483c      	ldr	r0, [pc, #240]	; (400e08 <ili9488_init+0x11c>)
  400d16:	4b40      	ldr	r3, [pc, #256]	; (400e18 <ili9488_init+0x12c>)
  400d18:	4798      	blx	r3
	spi_select_device(BOARD_ILI9488_SPI, &ILI9488_SPI_DEVICE);
  400d1a:	f107 030c 	add.w	r3, r7, #12
  400d1e:	4619      	mov	r1, r3
  400d20:	4839      	ldr	r0, [pc, #228]	; (400e08 <ili9488_init+0x11c>)
  400d22:	4b3e      	ldr	r3, [pc, #248]	; (400e1c <ili9488_init+0x130>)
  400d24:	4798      	blx	r3

	/* Enable the SPI peripheral */
	spi_enable(BOARD_ILI9488_SPI);
  400d26:	4838      	ldr	r0, [pc, #224]	; (400e08 <ili9488_init+0x11c>)
  400d28:	4b3d      	ldr	r3, [pc, #244]	; (400e20 <ili9488_init+0x134>)
  400d2a:	4798      	blx	r3
	spi_enable_interrupt(BOARD_ILI9488_SPI, SPI_IER_RDRF);
  400d2c:	2101      	movs	r1, #1
  400d2e:	4836      	ldr	r0, [pc, #216]	; (400e08 <ili9488_init+0x11c>)
  400d30:	4b3c      	ldr	r3, [pc, #240]	; (400e24 <ili9488_init+0x138>)
  400d32:	4798      	blx	r3
#endif

	ili9488_write_register(ILI9488_CMD_SOFTWARE_RESET, 0x0000, 0);
  400d34:	2200      	movs	r2, #0
  400d36:	2100      	movs	r1, #0
  400d38:	2001      	movs	r0, #1
  400d3a:	4b3b      	ldr	r3, [pc, #236]	; (400e28 <ili9488_init+0x13c>)
  400d3c:	4798      	blx	r3
	ili9488_delay(200);
  400d3e:	20c8      	movs	r0, #200	; 0xc8
  400d40:	4b3a      	ldr	r3, [pc, #232]	; (400e2c <ili9488_init+0x140>)
  400d42:	4798      	blx	r3

	ili9488_write_register(ILI9488_CMD_SLEEP_OUT, 0x0000, 0);
  400d44:	2200      	movs	r2, #0
  400d46:	2100      	movs	r1, #0
  400d48:	2011      	movs	r0, #17
  400d4a:	4b37      	ldr	r3, [pc, #220]	; (400e28 <ili9488_init+0x13c>)
  400d4c:	4798      	blx	r3
	ili9488_delay(200);
  400d4e:	20c8      	movs	r0, #200	; 0xc8
  400d50:	4b36      	ldr	r3, [pc, #216]	; (400e2c <ili9488_init+0x140>)
  400d52:	4798      	blx	r3

	/** read chipid */
	chipid = ili9488_read_chipid();
  400d54:	4b36      	ldr	r3, [pc, #216]	; (400e30 <ili9488_init+0x144>)
  400d56:	4798      	blx	r3
  400d58:	6178      	str	r0, [r7, #20]
	if (chipid != ILI9488_DEVICE_CODE) {
  400d5a:	697b      	ldr	r3, [r7, #20]
  400d5c:	f249 4288 	movw	r2, #38024	; 0x9488
  400d60:	4293      	cmp	r3, r2
  400d62:	d001      	beq.n	400d68 <ili9488_init+0x7c>
		return 1;
  400d64:	2301      	movs	r3, #1
  400d66:	e04a      	b.n	400dfe <ili9488_init+0x112>
	}

	/** make it tRGB and reverse the column order */
	param = 0x48;
  400d68:	2348      	movs	r3, #72	; 0x48
  400d6a:	74fb      	strb	r3, [r7, #19]
	ili9488_write_register(ILI9488_CMD_MEMORY_ACCESS_CONTROL, &param, 1);
  400d6c:	f107 0313 	add.w	r3, r7, #19
  400d70:	2201      	movs	r2, #1
  400d72:	4619      	mov	r1, r3
  400d74:	2036      	movs	r0, #54	; 0x36
  400d76:	4b2c      	ldr	r3, [pc, #176]	; (400e28 <ili9488_init+0x13c>)
  400d78:	4798      	blx	r3
	ili9488_delay(100);
  400d7a:	2064      	movs	r0, #100	; 0x64
  400d7c:	4b2b      	ldr	r3, [pc, #172]	; (400e2c <ili9488_init+0x140>)
  400d7e:	4798      	blx	r3

	param = 0x04;
  400d80:	2304      	movs	r3, #4
  400d82:	74fb      	strb	r3, [r7, #19]
	ili9488_write_register(ILI9488_CMD_CABC_CONTROL_9, &param, 1);
  400d84:	f107 0313 	add.w	r3, r7, #19
  400d88:	2201      	movs	r2, #1
  400d8a:	4619      	mov	r1, r3
  400d8c:	20cf      	movs	r0, #207	; 0xcf
  400d8e:	4b26      	ldr	r3, [pc, #152]	; (400e28 <ili9488_init+0x13c>)
  400d90:	4798      	blx	r3
	ili9488_delay(100);
  400d92:	2064      	movs	r0, #100	; 0x64
  400d94:	4b25      	ldr	r3, [pc, #148]	; (400e2c <ili9488_init+0x140>)
  400d96:	4798      	blx	r3
	ili9488_delay(100);
	ili9488_write_register(ILI9488_CMD_PARTIAL_MODE_ON, 0, 0);
	ili9488_delay(100);
#endif
#ifdef ILI9488_SPIMODE
	param = 0x06;
  400d98:	2306      	movs	r3, #6
  400d9a:	74fb      	strb	r3, [r7, #19]
	ili9488_write_register(ILI9488_CMD_COLMOD_PIXEL_FORMAT_SET, &param, 1);
  400d9c:	f107 0313 	add.w	r3, r7, #19
  400da0:	2201      	movs	r2, #1
  400da2:	4619      	mov	r1, r3
  400da4:	203a      	movs	r0, #58	; 0x3a
  400da6:	4b20      	ldr	r3, [pc, #128]	; (400e28 <ili9488_init+0x13c>)
  400da8:	4798      	blx	r3
	ili9488_delay(100);
  400daa:	2064      	movs	r0, #100	; 0x64
  400dac:	4b1f      	ldr	r3, [pc, #124]	; (400e2c <ili9488_init+0x140>)
  400dae:	4798      	blx	r3
	ili9488_write_register(ILI9488_CMD_NORMAL_DISP_MODE_ON, 0, 0);
  400db0:	2200      	movs	r2, #0
  400db2:	2100      	movs	r1, #0
  400db4:	2013      	movs	r0, #19
  400db6:	4b1c      	ldr	r3, [pc, #112]	; (400e28 <ili9488_init+0x13c>)
  400db8:	4798      	blx	r3
	ili9488_delay(100);
  400dba:	2064      	movs	r0, #100	; 0x64
  400dbc:	4b1b      	ldr	r3, [pc, #108]	; (400e2c <ili9488_init+0x140>)
  400dbe:	4798      	blx	r3
#endif

	ili9488_display_on();
  400dc0:	4b1c      	ldr	r3, [pc, #112]	; (400e34 <ili9488_init+0x148>)
  400dc2:	4798      	blx	r3
	ili9488_delay(100);
  400dc4:	2064      	movs	r0, #100	; 0x64
  400dc6:	4b19      	ldr	r3, [pc, #100]	; (400e2c <ili9488_init+0x140>)
  400dc8:	4798      	blx	r3

	ili9488_set_display_direction(LANDSCAPE);
  400dca:	2000      	movs	r0, #0
  400dcc:	4b1a      	ldr	r3, [pc, #104]	; (400e38 <ili9488_init+0x14c>)
  400dce:	4798      	blx	r3
	ili9488_delay(100);
  400dd0:	2064      	movs	r0, #100	; 0x64
  400dd2:	4b16      	ldr	r3, [pc, #88]	; (400e2c <ili9488_init+0x140>)
  400dd4:	4798      	blx	r3

	ili9488_set_window(0, 0,p_opt->ul_width,p_opt->ul_height);
  400dd6:	687b      	ldr	r3, [r7, #4]
  400dd8:	681b      	ldr	r3, [r3, #0]
  400dda:	b29a      	uxth	r2, r3
  400ddc:	687b      	ldr	r3, [r7, #4]
  400dde:	685b      	ldr	r3, [r3, #4]
  400de0:	b29b      	uxth	r3, r3
  400de2:	2100      	movs	r1, #0
  400de4:	2000      	movs	r0, #0
  400de6:	4c15      	ldr	r4, [pc, #84]	; (400e3c <ili9488_init+0x150>)
  400de8:	47a0      	blx	r4
	ili9488_set_foreground_color(p_opt->foreground_color);
  400dea:	687b      	ldr	r3, [r7, #4]
  400dec:	689b      	ldr	r3, [r3, #8]
  400dee:	4618      	mov	r0, r3
  400df0:	4b13      	ldr	r3, [pc, #76]	; (400e40 <ili9488_init+0x154>)
  400df2:	4798      	blx	r3
	ili9488_set_cursor_position(0, 0);
  400df4:	2100      	movs	r1, #0
  400df6:	2000      	movs	r0, #0
  400df8:	4b12      	ldr	r3, [pc, #72]	; (400e44 <ili9488_init+0x158>)
  400dfa:	4798      	blx	r3

	return 0;
  400dfc:	2300      	movs	r3, #0
}
  400dfe:	4618      	mov	r0, r3
  400e00:	371c      	adds	r7, #28
  400e02:	46bd      	mov	sp, r7
  400e04:	bd90      	pop	{r4, r7, pc}
  400e06:	bf00      	nop
  400e08:	40008000 	.word	0x40008000
  400e0c:	00400675 	.word	0x00400675
  400e10:	01312d00 	.word	0x01312d00
  400e14:	004006e5 	.word	0x004006e5
  400e18:	004012cd 	.word	0x004012cd
  400e1c:	00400799 	.word	0x00400799
  400e20:	00400911 	.word	0x00400911
  400e24:	0040092b 	.word	0x0040092b
  400e28:	004009c9 	.word	0x004009c9
  400e2c:	00400b0d 	.word	0x00400b0d
  400e30:	00400a41 	.word	0x00400a41
  400e34:	00400e49 	.word	0x00400e49
  400e38:	00400bf1 	.word	0x00400bf1
  400e3c:	00400c25 	.word	0x00400c25
  400e40:	00400e61 	.word	0x00400e61
  400e44:	00400eb5 	.word	0x00400eb5

00400e48 <ili9488_display_on>:

/**
 * \brief Turn on the LCD.
 */
void ili9488_display_on(void)
{
  400e48:	b580      	push	{r7, lr}
  400e4a:	af00      	add	r7, sp, #0
	ili9488_write_register(ILI9488_CMD_DISPLAY_ON, 0, 0);
  400e4c:	2200      	movs	r2, #0
  400e4e:	2100      	movs	r1, #0
  400e50:	2029      	movs	r0, #41	; 0x29
  400e52:	4b02      	ldr	r3, [pc, #8]	; (400e5c <ili9488_display_on+0x14>)
  400e54:	4798      	blx	r3
}
  400e56:	bf00      	nop
  400e58:	bd80      	pop	{r7, pc}
  400e5a:	bf00      	nop
  400e5c:	004009c9 	.word	0x004009c9

00400e60 <ili9488_set_foreground_color>:
 * \brief Set foreground color.
 *
 * \param ul_color foreground color.
 */
void ili9488_set_foreground_color(uint32_t ul_color)
{
  400e60:	b480      	push	{r7}
  400e62:	b085      	sub	sp, #20
  400e64:	af00      	add	r7, sp, #0
  400e66:	6078      	str	r0, [r7, #4]
	for (i = 0; i < LCD_DATA_CACHE_SIZE; ++i) {
		g_ul_pixel_cache[i] = ul_color;
	}
#endif
#ifdef ILI9488_SPIMODE
	for (i = 0; i < LCD_DATA_CACHE_SIZE * LCD_DATA_COLOR_UNIT; ) {
  400e68:	2300      	movs	r3, #0
  400e6a:	60fb      	str	r3, [r7, #12]
  400e6c:	e016      	b.n	400e9c <ili9488_set_foreground_color+0x3c>
		g_ul_pixel_cache[i++] = ul_color>>16;
  400e6e:	68fb      	ldr	r3, [r7, #12]
  400e70:	1c5a      	adds	r2, r3, #1
  400e72:	60fa      	str	r2, [r7, #12]
  400e74:	687a      	ldr	r2, [r7, #4]
  400e76:	0c12      	lsrs	r2, r2, #16
  400e78:	b2d1      	uxtb	r1, r2
  400e7a:	4a0d      	ldr	r2, [pc, #52]	; (400eb0 <ili9488_set_foreground_color+0x50>)
  400e7c:	54d1      	strb	r1, [r2, r3]
		g_ul_pixel_cache[i++] = ul_color>>8;
  400e7e:	68fb      	ldr	r3, [r7, #12]
  400e80:	1c5a      	adds	r2, r3, #1
  400e82:	60fa      	str	r2, [r7, #12]
  400e84:	687a      	ldr	r2, [r7, #4]
  400e86:	0a12      	lsrs	r2, r2, #8
  400e88:	b2d1      	uxtb	r1, r2
  400e8a:	4a09      	ldr	r2, [pc, #36]	; (400eb0 <ili9488_set_foreground_color+0x50>)
  400e8c:	54d1      	strb	r1, [r2, r3]
		g_ul_pixel_cache[i++] = ul_color&0xFF;
  400e8e:	68fb      	ldr	r3, [r7, #12]
  400e90:	1c5a      	adds	r2, r3, #1
  400e92:	60fa      	str	r2, [r7, #12]
  400e94:	687a      	ldr	r2, [r7, #4]
  400e96:	b2d1      	uxtb	r1, r2
  400e98:	4a05      	ldr	r2, [pc, #20]	; (400eb0 <ili9488_set_foreground_color+0x50>)
  400e9a:	54d1      	strb	r1, [r2, r3]
	for (i = 0; i < LCD_DATA_CACHE_SIZE * LCD_DATA_COLOR_UNIT; ) {
  400e9c:	68fb      	ldr	r3, [r7, #12]
  400e9e:	f5b3 7f70 	cmp.w	r3, #960	; 0x3c0
  400ea2:	d3e4      	bcc.n	400e6e <ili9488_set_foreground_color+0xe>
	}
#endif
}
  400ea4:	bf00      	nop
  400ea6:	3714      	adds	r7, #20
  400ea8:	46bd      	mov	sp, r7
  400eaa:	f85d 7b04 	ldr.w	r7, [sp], #4
  400eae:	4770      	bx	lr
  400eb0:	2040045c 	.word	0x2040045c

00400eb4 <ili9488_set_cursor_position>:
 *
 * \param x X coordinate of upper-left corner on LCD.
 * \param y Y coordinate of upper-left corner on LCD.
 */
void ili9488_set_cursor_position(uint16_t x, uint16_t y)
{
  400eb4:	b580      	push	{r7, lr}
  400eb6:	b084      	sub	sp, #16
  400eb8:	af00      	add	r7, sp, #0
  400eba:	4603      	mov	r3, r0
  400ebc:	460a      	mov	r2, r1
  400ebe:	80fb      	strh	r3, [r7, #6]
  400ec0:	4613      	mov	r3, r2
  400ec2:	80bb      	strh	r3, [r7, #4]
	/* Set Horizontal Address Start Position */
	uint32_t cnt = 0;
  400ec4:	2300      	movs	r3, #0
  400ec6:	60fb      	str	r3, [r7, #12]

	ili9488_color_t buf[4];
	cnt = sizeof(buf)/sizeof(ili9488_color_t);
  400ec8:	2304      	movs	r3, #4
  400eca:	60fb      	str	r3, [r7, #12]

	buf[0] = get_8b_to_16b(x);
  400ecc:	1dbb      	adds	r3, r7, #6
  400ece:	785b      	ldrb	r3, [r3, #1]
  400ed0:	723b      	strb	r3, [r7, #8]
	buf[1] = get_0b_to_8b(x);
  400ed2:	1dbb      	adds	r3, r7, #6
  400ed4:	781b      	ldrb	r3, [r3, #0]
  400ed6:	727b      	strb	r3, [r7, #9]
	buf[2] = get_8b_to_16b(x);
  400ed8:	1dbb      	adds	r3, r7, #6
  400eda:	785b      	ldrb	r3, [r3, #1]
  400edc:	72bb      	strb	r3, [r7, #10]
	buf[3] = get_0b_to_8b(x);
  400ede:	1dbb      	adds	r3, r7, #6
  400ee0:	781b      	ldrb	r3, [r3, #0]
  400ee2:	72fb      	strb	r3, [r7, #11]
	ili9488_write_register(ILI9488_CMD_COLUMN_ADDRESS_SET, buf, cnt);
  400ee4:	f107 0308 	add.w	r3, r7, #8
  400ee8:	68fa      	ldr	r2, [r7, #12]
  400eea:	4619      	mov	r1, r3
  400eec:	202a      	movs	r0, #42	; 0x2a
  400eee:	4b11      	ldr	r3, [pc, #68]	; (400f34 <ili9488_set_cursor_position+0x80>)
  400ef0:	4798      	blx	r3
	ili9488_write_register(ILI9488_CMD_NOP, 0, 0);
  400ef2:	2200      	movs	r2, #0
  400ef4:	2100      	movs	r1, #0
  400ef6:	2000      	movs	r0, #0
  400ef8:	4b0e      	ldr	r3, [pc, #56]	; (400f34 <ili9488_set_cursor_position+0x80>)
  400efa:	4798      	blx	r3


	/* Set Horizontal Address End Position */
	buf[0] = get_8b_to_16b(y);
  400efc:	1d3b      	adds	r3, r7, #4
  400efe:	785b      	ldrb	r3, [r3, #1]
  400f00:	723b      	strb	r3, [r7, #8]
	buf[1] = get_0b_to_8b(y);
  400f02:	1d3b      	adds	r3, r7, #4
  400f04:	781b      	ldrb	r3, [r3, #0]
  400f06:	727b      	strb	r3, [r7, #9]
	buf[2] = get_8b_to_16b(y);
  400f08:	1d3b      	adds	r3, r7, #4
  400f0a:	785b      	ldrb	r3, [r3, #1]
  400f0c:	72bb      	strb	r3, [r7, #10]
	buf[3] = get_0b_to_8b(y);
  400f0e:	1d3b      	adds	r3, r7, #4
  400f10:	781b      	ldrb	r3, [r3, #0]
  400f12:	72fb      	strb	r3, [r7, #11]
	ili9488_write_register(ILI9488_CMD_PAGE_ADDRESS_SET, buf, cnt);
  400f14:	f107 0308 	add.w	r3, r7, #8
  400f18:	68fa      	ldr	r2, [r7, #12]
  400f1a:	4619      	mov	r1, r3
  400f1c:	202b      	movs	r0, #43	; 0x2b
  400f1e:	4b05      	ldr	r3, [pc, #20]	; (400f34 <ili9488_set_cursor_position+0x80>)
  400f20:	4798      	blx	r3
	ili9488_write_register(ILI9488_CMD_NOP, 0, 0);
  400f22:	2200      	movs	r2, #0
  400f24:	2100      	movs	r1, #0
  400f26:	2000      	movs	r0, #0
  400f28:	4b02      	ldr	r3, [pc, #8]	; (400f34 <ili9488_set_cursor_position+0x80>)
  400f2a:	4798      	blx	r3
}
  400f2c:	bf00      	nop
  400f2e:	3710      	adds	r7, #16
  400f30:	46bd      	mov	sp, r7
  400f32:	bd80      	pop	{r7, pc}
  400f34:	004009c9 	.word	0x004009c9

00400f38 <ili9488_draw_filled_rectangle>:
 * \param ul_x2 X coordinate of lower-right corner on LCD.
 * \param ul_y2 Y coordinate of lower-right corner on LCD.
 */
void ili9488_draw_filled_rectangle(uint32_t ul_x1, uint32_t ul_y1,
		uint32_t ul_x2, uint32_t ul_y2)
{
  400f38:	b590      	push	{r4, r7, lr}
  400f3a:	b087      	sub	sp, #28
  400f3c:	af00      	add	r7, sp, #0
  400f3e:	60f8      	str	r0, [r7, #12]
  400f40:	60b9      	str	r1, [r7, #8]
  400f42:	607a      	str	r2, [r7, #4]
  400f44:	603b      	str	r3, [r7, #0]
	uint32_t size, blocks;

	/* Swap coordinates if necessary */
	ili9488_check_box_coordinates(&ul_x1, &ul_y1, &ul_x2, &ul_y2);
  400f46:	463b      	mov	r3, r7
  400f48:	1d3a      	adds	r2, r7, #4
  400f4a:	f107 0108 	add.w	r1, r7, #8
  400f4e:	f107 000c 	add.w	r0, r7, #12
  400f52:	4c2a      	ldr	r4, [pc, #168]	; (400ffc <ili9488_draw_filled_rectangle+0xc4>)
  400f54:	47a0      	blx	r4

	/* Determine the refresh window area */
	ili9488_set_window(ul_x1, ul_y1, (ul_x2 - ul_x1) + 1, (ul_y2 - ul_y1) + 1);
  400f56:	68fb      	ldr	r3, [r7, #12]
  400f58:	b298      	uxth	r0, r3
  400f5a:	68bb      	ldr	r3, [r7, #8]
  400f5c:	b299      	uxth	r1, r3
  400f5e:	687b      	ldr	r3, [r7, #4]
  400f60:	b29a      	uxth	r2, r3
  400f62:	68fb      	ldr	r3, [r7, #12]
  400f64:	b29b      	uxth	r3, r3
  400f66:	1ad3      	subs	r3, r2, r3
  400f68:	b29b      	uxth	r3, r3
  400f6a:	3301      	adds	r3, #1
  400f6c:	b29c      	uxth	r4, r3
  400f6e:	683b      	ldr	r3, [r7, #0]
  400f70:	b29a      	uxth	r2, r3
  400f72:	68bb      	ldr	r3, [r7, #8]
  400f74:	b29b      	uxth	r3, r3
  400f76:	1ad3      	subs	r3, r2, r3
  400f78:	b29b      	uxth	r3, r3
  400f7a:	3301      	adds	r3, #1
  400f7c:	b29b      	uxth	r3, r3
  400f7e:	4622      	mov	r2, r4
  400f80:	4c1f      	ldr	r4, [pc, #124]	; (401000 <ili9488_draw_filled_rectangle+0xc8>)
  400f82:	47a0      	blx	r4

	/* Prepare to write in GRAM */
	ili9488_write_ram_prepare();
  400f84:	4b1f      	ldr	r3, [pc, #124]	; (401004 <ili9488_draw_filled_rectangle+0xcc>)
  400f86:	4798      	blx	r3

	size = (ul_x2 - ul_x1 + 1) * (ul_y2 - ul_y1 + 1);
  400f88:	687a      	ldr	r2, [r7, #4]
  400f8a:	68fb      	ldr	r3, [r7, #12]
  400f8c:	1ad3      	subs	r3, r2, r3
  400f8e:	3301      	adds	r3, #1
  400f90:	6839      	ldr	r1, [r7, #0]
  400f92:	68ba      	ldr	r2, [r7, #8]
  400f94:	1a8a      	subs	r2, r1, r2
  400f96:	3201      	adds	r2, #1
  400f98:	fb02 f303 	mul.w	r3, r2, r3
  400f9c:	613b      	str	r3, [r7, #16]
	/* Send pixels blocks => one SPI IT / block */
	blocks = size / LCD_DATA_CACHE_SIZE;
  400f9e:	693b      	ldr	r3, [r7, #16]
  400fa0:	4a19      	ldr	r2, [pc, #100]	; (401008 <ili9488_draw_filled_rectangle+0xd0>)
  400fa2:	fba2 2303 	umull	r2, r3, r2, r3
  400fa6:	0a1b      	lsrs	r3, r3, #8
  400fa8:	617b      	str	r3, [r7, #20]
	while (blocks--) {
  400faa:	e004      	b.n	400fb6 <ili9488_draw_filled_rectangle+0x7e>
		ili9488_write_ram_buffer(g_ul_pixel_cache, LCD_DATA_CACHE_SIZE * LCD_DATA_COLOR_UNIT);
  400fac:	f44f 7170 	mov.w	r1, #960	; 0x3c0
  400fb0:	4816      	ldr	r0, [pc, #88]	; (40100c <ili9488_draw_filled_rectangle+0xd4>)
  400fb2:	4b17      	ldr	r3, [pc, #92]	; (401010 <ili9488_draw_filled_rectangle+0xd8>)
  400fb4:	4798      	blx	r3
	while (blocks--) {
  400fb6:	697b      	ldr	r3, [r7, #20]
  400fb8:	1e5a      	subs	r2, r3, #1
  400fba:	617a      	str	r2, [r7, #20]
  400fbc:	2b00      	cmp	r3, #0
  400fbe:	d1f5      	bne.n	400fac <ili9488_draw_filled_rectangle+0x74>
	}

	/* Send remaining pixels */
	ili9488_write_ram_buffer(g_ul_pixel_cache, (size % LCD_DATA_CACHE_SIZE) * LCD_DATA_COLOR_UNIT);
  400fc0:	6939      	ldr	r1, [r7, #16]
  400fc2:	4b11      	ldr	r3, [pc, #68]	; (401008 <ili9488_draw_filled_rectangle+0xd0>)
  400fc4:	fba3 2301 	umull	r2, r3, r3, r1
  400fc8:	0a1a      	lsrs	r2, r3, #8
  400fca:	4613      	mov	r3, r2
  400fcc:	009b      	lsls	r3, r3, #2
  400fce:	4413      	add	r3, r2
  400fd0:	019b      	lsls	r3, r3, #6
  400fd2:	1aca      	subs	r2, r1, r3
  400fd4:	4613      	mov	r3, r2
  400fd6:	005b      	lsls	r3, r3, #1
  400fd8:	4413      	add	r3, r2
  400fda:	4619      	mov	r1, r3
  400fdc:	480b      	ldr	r0, [pc, #44]	; (40100c <ili9488_draw_filled_rectangle+0xd4>)
  400fde:	4b0c      	ldr	r3, [pc, #48]	; (401010 <ili9488_draw_filled_rectangle+0xd8>)
  400fe0:	4798      	blx	r3

	/* Reset the refresh window area */
	ili9488_set_window(0, 0, ILI9488_LCD_WIDTH, ILI9488_LCD_HEIGHT);
  400fe2:	f44f 73f0 	mov.w	r3, #480	; 0x1e0
  400fe6:	f44f 72a0 	mov.w	r2, #320	; 0x140
  400fea:	2100      	movs	r1, #0
  400fec:	2000      	movs	r0, #0
  400fee:	4c04      	ldr	r4, [pc, #16]	; (401000 <ili9488_draw_filled_rectangle+0xc8>)
  400ff0:	47a0      	blx	r4

}
  400ff2:	bf00      	nop
  400ff4:	371c      	adds	r7, #28
  400ff6:	46bd      	mov	sp, r7
  400ff8:	bd90      	pop	{r4, r7, pc}
  400ffa:	bf00      	nop
  400ffc:	00400b4d 	.word	0x00400b4d
  401000:	00400c25 	.word	0x00400c25
  401004:	00400949 	.word	0x00400949
  401008:	cccccccd 	.word	0xcccccccd
  40100c:	2040045c 	.word	0x2040045c
  401010:	00400989 	.word	0x00400989

00401014 <ili9488_draw_pixmap>:
 * \param ul_height height of the picture.
 * \param p_ul_pixmap pixmap of the image.
 */
void ili9488_draw_pixmap(uint32_t ul_x, uint32_t ul_y, uint32_t ul_width,
		uint32_t ul_height, const ili9488_color_t *p_ul_pixmap)
{
  401014:	b590      	push	{r4, r7, lr}
  401016:	b08b      	sub	sp, #44	; 0x2c
  401018:	af00      	add	r7, sp, #0
  40101a:	60f8      	str	r0, [r7, #12]
  40101c:	60b9      	str	r1, [r7, #8]
  40101e:	607a      	str	r2, [r7, #4]
  401020:	603b      	str	r3, [r7, #0]
	uint32_t size;
	uint32_t dwX1, dwY1, dwX2, dwY2;
	dwX1 = ul_x;
  401022:	68fb      	ldr	r3, [r7, #12]
  401024:	623b      	str	r3, [r7, #32]
	dwY1 = ul_y;
  401026:	68bb      	ldr	r3, [r7, #8]
  401028:	61fb      	str	r3, [r7, #28]
	dwX2 = ul_x + ul_width - 1;
  40102a:	68fa      	ldr	r2, [r7, #12]
  40102c:	687b      	ldr	r3, [r7, #4]
  40102e:	4413      	add	r3, r2
  401030:	3b01      	subs	r3, #1
  401032:	61bb      	str	r3, [r7, #24]
	dwY2 = ul_y + ul_height - 1;
  401034:	68ba      	ldr	r2, [r7, #8]
  401036:	683b      	ldr	r3, [r7, #0]
  401038:	4413      	add	r3, r2
  40103a:	3b01      	subs	r3, #1
  40103c:	617b      	str	r3, [r7, #20]

	/* Swap coordinates if necessary */
	ili9488_check_box_coordinates(&dwX1, &dwY1, &dwX2, &dwY2);
  40103e:	f107 0314 	add.w	r3, r7, #20
  401042:	f107 0218 	add.w	r2, r7, #24
  401046:	f107 011c 	add.w	r1, r7, #28
  40104a:	f107 0020 	add.w	r0, r7, #32
  40104e:	4c1b      	ldr	r4, [pc, #108]	; (4010bc <ili9488_draw_pixmap+0xa8>)
  401050:	47a0      	blx	r4

	/* Determine the refresh window area */
	ili9488_set_window(dwX1, dwY1, (dwX2 - dwX1 + 1), (dwY2 - dwY1 + 1));
  401052:	6a3b      	ldr	r3, [r7, #32]
  401054:	b298      	uxth	r0, r3
  401056:	69fb      	ldr	r3, [r7, #28]
  401058:	b299      	uxth	r1, r3
  40105a:	69bb      	ldr	r3, [r7, #24]
  40105c:	b29a      	uxth	r2, r3
  40105e:	6a3b      	ldr	r3, [r7, #32]
  401060:	b29b      	uxth	r3, r3
  401062:	1ad3      	subs	r3, r2, r3
  401064:	b29b      	uxth	r3, r3
  401066:	3301      	adds	r3, #1
  401068:	b29c      	uxth	r4, r3
  40106a:	697b      	ldr	r3, [r7, #20]
  40106c:	b29a      	uxth	r2, r3
  40106e:	69fb      	ldr	r3, [r7, #28]
  401070:	b29b      	uxth	r3, r3
  401072:	1ad3      	subs	r3, r2, r3
  401074:	b29b      	uxth	r3, r3
  401076:	3301      	adds	r3, #1
  401078:	b29b      	uxth	r3, r3
  40107a:	4622      	mov	r2, r4
  40107c:	4c10      	ldr	r4, [pc, #64]	; (4010c0 <ili9488_draw_pixmap+0xac>)
  40107e:	47a0      	blx	r4

	size = (dwX2 - dwX1) * (dwY2 - dwY1);
  401080:	69ba      	ldr	r2, [r7, #24]
  401082:	6a3b      	ldr	r3, [r7, #32]
  401084:	1ad3      	subs	r3, r2, r3
  401086:	6979      	ldr	r1, [r7, #20]
  401088:	69fa      	ldr	r2, [r7, #28]
  40108a:	1a8a      	subs	r2, r1, r2
  40108c:	fb02 f303 	mul.w	r3, r2, r3
  401090:	627b      	str	r3, [r7, #36]	; 0x24

	ili9488_write_register(ILI9488_CMD_MEMORY_WRITE, p_ul_pixmap, size * LCD_DATA_COLOR_UNIT);
  401092:	6a7a      	ldr	r2, [r7, #36]	; 0x24
  401094:	4613      	mov	r3, r2
  401096:	005b      	lsls	r3, r3, #1
  401098:	4413      	add	r3, r2
  40109a:	461a      	mov	r2, r3
  40109c:	6bb9      	ldr	r1, [r7, #56]	; 0x38
  40109e:	202c      	movs	r0, #44	; 0x2c
  4010a0:	4b08      	ldr	r3, [pc, #32]	; (4010c4 <ili9488_draw_pixmap+0xb0>)
  4010a2:	4798      	blx	r3

	/* Reset the refresh window area */
	ili9488_set_window(0, 0, ILI9488_LCD_WIDTH, ILI9488_LCD_HEIGHT);
  4010a4:	f44f 73f0 	mov.w	r3, #480	; 0x1e0
  4010a8:	f44f 72a0 	mov.w	r2, #320	; 0x140
  4010ac:	2100      	movs	r1, #0
  4010ae:	2000      	movs	r0, #0
  4010b0:	4c03      	ldr	r4, [pc, #12]	; (4010c0 <ili9488_draw_pixmap+0xac>)
  4010b2:	47a0      	blx	r4
}
  4010b4:	bf00      	nop
  4010b6:	372c      	adds	r7, #44	; 0x2c
  4010b8:	46bd      	mov	sp, r7
  4010ba:	bd90      	pop	{r4, r7, pc}
  4010bc:	00400b4d 	.word	0x00400b4d
  4010c0:	00400c25 	.word	0x00400c25
  4010c4:	004009c9 	.word	0x004009c9

004010c8 <spi_get_peripheral_select_mode>:
{
  4010c8:	b480      	push	{r7}
  4010ca:	b083      	sub	sp, #12
  4010cc:	af00      	add	r7, sp, #0
  4010ce:	6078      	str	r0, [r7, #4]
	if (p_spi->SPI_MR & SPI_MR_PS) {
  4010d0:	687b      	ldr	r3, [r7, #4]
  4010d2:	685b      	ldr	r3, [r3, #4]
  4010d4:	f003 0302 	and.w	r3, r3, #2
  4010d8:	2b00      	cmp	r3, #0
  4010da:	d001      	beq.n	4010e0 <spi_get_peripheral_select_mode+0x18>
		return 1;
  4010dc:	2301      	movs	r3, #1
  4010de:	e000      	b.n	4010e2 <spi_get_peripheral_select_mode+0x1a>
		return 0;
  4010e0:	2300      	movs	r3, #0
}
  4010e2:	4618      	mov	r0, r3
  4010e4:	370c      	adds	r7, #12
  4010e6:	46bd      	mov	sp, r7
  4010e8:	f85d 7b04 	ldr.w	r7, [sp], #4
  4010ec:	4770      	bx	lr
	...

004010f0 <sysclk_enable_peripheral_clock>:
 * \brief Enable a peripheral's clock.
 *
 * \param ul_id Id (number) of the peripheral clock.
 */
static inline void sysclk_enable_peripheral_clock(uint32_t ul_id)
{
  4010f0:	b580      	push	{r7, lr}
  4010f2:	b082      	sub	sp, #8
  4010f4:	af00      	add	r7, sp, #0
  4010f6:	6078      	str	r0, [r7, #4]
	pmc_enable_periph_clk(ul_id);
  4010f8:	6878      	ldr	r0, [r7, #4]
  4010fa:	4b03      	ldr	r3, [pc, #12]	; (401108 <sysclk_enable_peripheral_clock+0x18>)
  4010fc:	4798      	blx	r3
}
  4010fe:	bf00      	nop
  401100:	3708      	adds	r7, #8
  401102:	46bd      	mov	sp, r7
  401104:	bd80      	pop	{r7, pc}
  401106:	bf00      	nop
  401108:	00402329 	.word	0x00402329

0040110c <spi_enable_clock>:
 * \brief Enable SPI clock.
 *
 * \param p_spi Pointer to an SPI instance.
 */
void spi_enable_clock(Spi *p_spi)
{
  40110c:	b580      	push	{r7, lr}
  40110e:	b082      	sub	sp, #8
  401110:	af00      	add	r7, sp, #0
  401112:	6078      	str	r0, [r7, #4]
#if (SAM4S || SAM3S || SAM3N || SAM3U || SAM4E || SAM4N || SAMG51|| SAMG53|| SAMG54)
	UNUSED(p_spi);
	sysclk_enable_peripheral_clock(ID_SPI);
#elif (SAM3XA || SAM4C || SAM4CP || SAM4CM || SAMV71 || SAMV70 || SAME70 || SAMS70)
	if (p_spi == SPI0) {
  401114:	687b      	ldr	r3, [r7, #4]
  401116:	4a09      	ldr	r2, [pc, #36]	; (40113c <spi_enable_clock+0x30>)
  401118:	4293      	cmp	r3, r2
  40111a:	d103      	bne.n	401124 <spi_enable_clock+0x18>
		sysclk_enable_peripheral_clock(ID_SPI0);
  40111c:	2015      	movs	r0, #21
  40111e:	4b08      	ldr	r3, [pc, #32]	; (401140 <spi_enable_clock+0x34>)
  401120:	4798      	blx	r3
	}
	#endif
#elif SAM4L
	sysclk_enable_peripheral_clock(p_spi);
#endif
}
  401122:	e006      	b.n	401132 <spi_enable_clock+0x26>
	else if (p_spi == SPI1) {
  401124:	687b      	ldr	r3, [r7, #4]
  401126:	4a07      	ldr	r2, [pc, #28]	; (401144 <spi_enable_clock+0x38>)
  401128:	4293      	cmp	r3, r2
  40112a:	d102      	bne.n	401132 <spi_enable_clock+0x26>
		sysclk_enable_peripheral_clock(ID_SPI1);
  40112c:	202a      	movs	r0, #42	; 0x2a
  40112e:	4b04      	ldr	r3, [pc, #16]	; (401140 <spi_enable_clock+0x34>)
  401130:	4798      	blx	r3
}
  401132:	bf00      	nop
  401134:	3708      	adds	r7, #8
  401136:	46bd      	mov	sp, r7
  401138:	bd80      	pop	{r7, pc}
  40113a:	bf00      	nop
  40113c:	40008000 	.word	0x40008000
  401140:	004010f1 	.word	0x004010f1
  401144:	40058000 	.word	0x40058000

00401148 <spi_set_peripheral_chip_select_value>:
 *                 The decode mode can be enabled/disabled by follow functions:
 *                 \ref spi_enable_peripheral_select_decode,
 *                 \ref spi_disable_peripheral_select_decode.
 */
void spi_set_peripheral_chip_select_value(Spi *p_spi, uint32_t ul_value)
{
  401148:	b480      	push	{r7}
  40114a:	b083      	sub	sp, #12
  40114c:	af00      	add	r7, sp, #0
  40114e:	6078      	str	r0, [r7, #4]
  401150:	6039      	str	r1, [r7, #0]
	p_spi->SPI_MR &= (~SPI_MR_PCS_Msk);
  401152:	687b      	ldr	r3, [r7, #4]
  401154:	685b      	ldr	r3, [r3, #4]
  401156:	f423 2270 	bic.w	r2, r3, #983040	; 0xf0000
  40115a:	687b      	ldr	r3, [r7, #4]
  40115c:	605a      	str	r2, [r3, #4]
	p_spi->SPI_MR |= SPI_MR_PCS(ul_value);
  40115e:	687b      	ldr	r3, [r7, #4]
  401160:	685a      	ldr	r2, [r3, #4]
  401162:	683b      	ldr	r3, [r7, #0]
  401164:	041b      	lsls	r3, r3, #16
  401166:	f403 2370 	and.w	r3, r3, #983040	; 0xf0000
  40116a:	431a      	orrs	r2, r3
  40116c:	687b      	ldr	r3, [r7, #4]
  40116e:	605a      	str	r2, [r3, #4]
}
  401170:	bf00      	nop
  401172:	370c      	adds	r7, #12
  401174:	46bd      	mov	sp, r7
  401176:	f85d 7b04 	ldr.w	r7, [sp], #4
  40117a:	4770      	bx	lr

0040117c <spi_set_delay_between_chip_select>:
 *
 * \param p_spi Pointer to an SPI instance.
 * \param ul_delay Delay between chip selects (in number of MCK clocks).
 */
void spi_set_delay_between_chip_select(Spi *p_spi, uint32_t ul_delay)
{
  40117c:	b480      	push	{r7}
  40117e:	b083      	sub	sp, #12
  401180:	af00      	add	r7, sp, #0
  401182:	6078      	str	r0, [r7, #4]
  401184:	6039      	str	r1, [r7, #0]
	p_spi->SPI_MR &= (~SPI_MR_DLYBCS_Msk);
  401186:	687b      	ldr	r3, [r7, #4]
  401188:	685b      	ldr	r3, [r3, #4]
  40118a:	f023 427f 	bic.w	r2, r3, #4278190080	; 0xff000000
  40118e:	687b      	ldr	r3, [r7, #4]
  401190:	605a      	str	r2, [r3, #4]
	p_spi->SPI_MR |= SPI_MR_DLYBCS(ul_delay);
  401192:	687b      	ldr	r3, [r7, #4]
  401194:	685a      	ldr	r2, [r3, #4]
  401196:	683b      	ldr	r3, [r7, #0]
  401198:	061b      	lsls	r3, r3, #24
  40119a:	431a      	orrs	r2, r3
  40119c:	687b      	ldr	r3, [r7, #4]
  40119e:	605a      	str	r2, [r3, #4]
}
  4011a0:	bf00      	nop
  4011a2:	370c      	adds	r7, #12
  4011a4:	46bd      	mov	sp, r7
  4011a6:	f85d 7b04 	ldr.w	r7, [sp], #4
  4011aa:	4770      	bx	lr

004011ac <spi_write>:
 * \retval SPI_OK on Success.
 * \retval SPI_ERROR_TIMEOUT on Time-out.
 */
spi_status_t spi_write(Spi *p_spi, uint16_t us_data,
		uint8_t uc_pcs, uint8_t uc_last)
{
  4011ac:	b580      	push	{r7, lr}
  4011ae:	b084      	sub	sp, #16
  4011b0:	af00      	add	r7, sp, #0
  4011b2:	6078      	str	r0, [r7, #4]
  4011b4:	4608      	mov	r0, r1
  4011b6:	4611      	mov	r1, r2
  4011b8:	461a      	mov	r2, r3
  4011ba:	4603      	mov	r3, r0
  4011bc:	807b      	strh	r3, [r7, #2]
  4011be:	460b      	mov	r3, r1
  4011c0:	707b      	strb	r3, [r7, #1]
  4011c2:	4613      	mov	r3, r2
  4011c4:	703b      	strb	r3, [r7, #0]
	uint32_t timeout = SPI_TIMEOUT;
  4011c6:	f643 2398 	movw	r3, #15000	; 0x3a98
  4011ca:	60fb      	str	r3, [r7, #12]
	uint32_t value;

	while (!(p_spi->SPI_SR & SPI_SR_TDRE)) {
  4011cc:	e006      	b.n	4011dc <spi_write+0x30>
		if (!timeout--) {
  4011ce:	68fb      	ldr	r3, [r7, #12]
  4011d0:	1e5a      	subs	r2, r3, #1
  4011d2:	60fa      	str	r2, [r7, #12]
  4011d4:	2b00      	cmp	r3, #0
  4011d6:	d101      	bne.n	4011dc <spi_write+0x30>
			return SPI_ERROR_TIMEOUT;
  4011d8:	2301      	movs	r3, #1
  4011da:	e020      	b.n	40121e <spi_write+0x72>
	while (!(p_spi->SPI_SR & SPI_SR_TDRE)) {
  4011dc:	687b      	ldr	r3, [r7, #4]
  4011de:	691b      	ldr	r3, [r3, #16]
  4011e0:	f003 0302 	and.w	r3, r3, #2
  4011e4:	2b00      	cmp	r3, #0
  4011e6:	d0f2      	beq.n	4011ce <spi_write+0x22>
		}
	}

	if (spi_get_peripheral_select_mode(p_spi)) {
  4011e8:	6878      	ldr	r0, [r7, #4]
  4011ea:	4b0f      	ldr	r3, [pc, #60]	; (401228 <spi_write+0x7c>)
  4011ec:	4798      	blx	r3
  4011ee:	4603      	mov	r3, r0
  4011f0:	2b00      	cmp	r3, #0
  4011f2:	d00e      	beq.n	401212 <spi_write+0x66>
		value = SPI_TDR_TD(us_data) | SPI_TDR_PCS(uc_pcs);
  4011f4:	887a      	ldrh	r2, [r7, #2]
  4011f6:	787b      	ldrb	r3, [r7, #1]
  4011f8:	041b      	lsls	r3, r3, #16
  4011fa:	f403 2370 	and.w	r3, r3, #983040	; 0xf0000
  4011fe:	4313      	orrs	r3, r2
  401200:	60bb      	str	r3, [r7, #8]
		if (uc_last) {
  401202:	783b      	ldrb	r3, [r7, #0]
  401204:	2b00      	cmp	r3, #0
  401206:	d006      	beq.n	401216 <spi_write+0x6a>
			value |= SPI_TDR_LASTXFER;
  401208:	68bb      	ldr	r3, [r7, #8]
  40120a:	f043 7380 	orr.w	r3, r3, #16777216	; 0x1000000
  40120e:	60bb      	str	r3, [r7, #8]
  401210:	e001      	b.n	401216 <spi_write+0x6a>
		}
	} else {
		value = SPI_TDR_TD(us_data);
  401212:	887b      	ldrh	r3, [r7, #2]
  401214:	60bb      	str	r3, [r7, #8]
	}

	p_spi->SPI_TDR = value;
  401216:	687b      	ldr	r3, [r7, #4]
  401218:	68ba      	ldr	r2, [r7, #8]
  40121a:	60da      	str	r2, [r3, #12]

	return SPI_OK;
  40121c:	2300      	movs	r3, #0
}
  40121e:	4618      	mov	r0, r3
  401220:	3710      	adds	r7, #16
  401222:	46bd      	mov	sp, r7
  401224:	bd80      	pop	{r7, pc}
  401226:	bf00      	nop
  401228:	004010c9 	.word	0x004010c9

0040122c <spi_set_clock_polarity>:
 * \param ul_pcs_ch Peripheral Chip Select channel (0~3).
 * \param ul_polarity Default clock state is logical one(high)/zero(low).
 */
void spi_set_clock_polarity(Spi *p_spi, uint32_t ul_pcs_ch,
		uint32_t ul_polarity)
{
  40122c:	b480      	push	{r7}
  40122e:	b085      	sub	sp, #20
  401230:	af00      	add	r7, sp, #0
  401232:	60f8      	str	r0, [r7, #12]
  401234:	60b9      	str	r1, [r7, #8]
  401236:	607a      	str	r2, [r7, #4]
	if (ul_polarity) {
  401238:	687b      	ldr	r3, [r7, #4]
  40123a:	2b00      	cmp	r3, #0
  40123c:	d00c      	beq.n	401258 <spi_set_clock_polarity+0x2c>
		p_spi->SPI_CSR[ul_pcs_ch] |= SPI_CSR_CPOL;
  40123e:	68fb      	ldr	r3, [r7, #12]
  401240:	68ba      	ldr	r2, [r7, #8]
  401242:	320c      	adds	r2, #12
  401244:	f853 3022 	ldr.w	r3, [r3, r2, lsl #2]
  401248:	f043 0101 	orr.w	r1, r3, #1
  40124c:	68fb      	ldr	r3, [r7, #12]
  40124e:	68ba      	ldr	r2, [r7, #8]
  401250:	320c      	adds	r2, #12
  401252:	f843 1022 	str.w	r1, [r3, r2, lsl #2]
	} else {
		p_spi->SPI_CSR[ul_pcs_ch] &= (~SPI_CSR_CPOL);
	}
}
  401256:	e00b      	b.n	401270 <spi_set_clock_polarity+0x44>
		p_spi->SPI_CSR[ul_pcs_ch] &= (~SPI_CSR_CPOL);
  401258:	68fb      	ldr	r3, [r7, #12]
  40125a:	68ba      	ldr	r2, [r7, #8]
  40125c:	320c      	adds	r2, #12
  40125e:	f853 3022 	ldr.w	r3, [r3, r2, lsl #2]
  401262:	f023 0101 	bic.w	r1, r3, #1
  401266:	68fb      	ldr	r3, [r7, #12]
  401268:	68ba      	ldr	r2, [r7, #8]
  40126a:	320c      	adds	r2, #12
  40126c:	f843 1022 	str.w	r1, [r3, r2, lsl #2]
}
  401270:	bf00      	nop
  401272:	3714      	adds	r7, #20
  401274:	46bd      	mov	sp, r7
  401276:	f85d 7b04 	ldr.w	r7, [sp], #4
  40127a:	4770      	bx	lr

0040127c <spi_set_clock_phase>:
 * \param p_spi Pointer to an SPI instance.
 *  \param ul_pcs_ch Peripheral Chip Select channel (0~3).
 *  \param ul_phase Data capture on the rising/falling edge of clock.
 */
void spi_set_clock_phase(Spi *p_spi, uint32_t ul_pcs_ch, uint32_t ul_phase)
{
  40127c:	b480      	push	{r7}
  40127e:	b085      	sub	sp, #20
  401280:	af00      	add	r7, sp, #0
  401282:	60f8      	str	r0, [r7, #12]
  401284:	60b9      	str	r1, [r7, #8]
  401286:	607a      	str	r2, [r7, #4]
	if (ul_phase) {
  401288:	687b      	ldr	r3, [r7, #4]
  40128a:	2b00      	cmp	r3, #0
  40128c:	d00c      	beq.n	4012a8 <spi_set_clock_phase+0x2c>
		p_spi->SPI_CSR[ul_pcs_ch] |= SPI_CSR_NCPHA;
  40128e:	68fb      	ldr	r3, [r7, #12]
  401290:	68ba      	ldr	r2, [r7, #8]
  401292:	320c      	adds	r2, #12
  401294:	f853 3022 	ldr.w	r3, [r3, r2, lsl #2]
  401298:	f043 0102 	orr.w	r1, r3, #2
  40129c:	68fb      	ldr	r3, [r7, #12]
  40129e:	68ba      	ldr	r2, [r7, #8]
  4012a0:	320c      	adds	r2, #12
  4012a2:	f843 1022 	str.w	r1, [r3, r2, lsl #2]
	} else {
		p_spi->SPI_CSR[ul_pcs_ch] &= (~SPI_CSR_NCPHA);
	}
}
  4012a6:	e00b      	b.n	4012c0 <spi_set_clock_phase+0x44>
		p_spi->SPI_CSR[ul_pcs_ch] &= (~SPI_CSR_NCPHA);
  4012a8:	68fb      	ldr	r3, [r7, #12]
  4012aa:	68ba      	ldr	r2, [r7, #8]
  4012ac:	320c      	adds	r2, #12
  4012ae:	f853 3022 	ldr.w	r3, [r3, r2, lsl #2]
  4012b2:	f023 0102 	bic.w	r1, r3, #2
  4012b6:	68fb      	ldr	r3, [r7, #12]
  4012b8:	68ba      	ldr	r2, [r7, #8]
  4012ba:	320c      	adds	r2, #12
  4012bc:	f843 1022 	str.w	r1, [r3, r2, lsl #2]
}
  4012c0:	bf00      	nop
  4012c2:	3714      	adds	r7, #20
  4012c4:	46bd      	mov	sp, r7
  4012c6:	f85d 7b04 	ldr.w	r7, [sp], #4
  4012ca:	4770      	bx	lr

004012cc <spi_configure_cs_behavior>:
 * \param ul_pcs_ch Peripheral Chip Select channel (0~3).
 * \param ul_cs_behavior Behavior of the Chip Select after transfer.
 */
void spi_configure_cs_behavior(Spi *p_spi, uint32_t ul_pcs_ch,
		uint32_t ul_cs_behavior)
{
  4012cc:	b480      	push	{r7}
  4012ce:	b085      	sub	sp, #20
  4012d0:	af00      	add	r7, sp, #0
  4012d2:	60f8      	str	r0, [r7, #12]
  4012d4:	60b9      	str	r1, [r7, #8]
  4012d6:	607a      	str	r2, [r7, #4]
	if (ul_cs_behavior == SPI_CS_RISE_FORCED) {
  4012d8:	687b      	ldr	r3, [r7, #4]
  4012da:	2b04      	cmp	r3, #4
  4012dc:	d118      	bne.n	401310 <spi_configure_cs_behavior+0x44>
		p_spi->SPI_CSR[ul_pcs_ch] &= (~SPI_CSR_CSAAT);
  4012de:	68fb      	ldr	r3, [r7, #12]
  4012e0:	68ba      	ldr	r2, [r7, #8]
  4012e2:	320c      	adds	r2, #12
  4012e4:	f853 3022 	ldr.w	r3, [r3, r2, lsl #2]
  4012e8:	f023 0108 	bic.w	r1, r3, #8
  4012ec:	68fb      	ldr	r3, [r7, #12]
  4012ee:	68ba      	ldr	r2, [r7, #8]
  4012f0:	320c      	adds	r2, #12
  4012f2:	f843 1022 	str.w	r1, [r3, r2, lsl #2]
		p_spi->SPI_CSR[ul_pcs_ch] |= SPI_CSR_CSNAAT;
  4012f6:	68fb      	ldr	r3, [r7, #12]
  4012f8:	68ba      	ldr	r2, [r7, #8]
  4012fa:	320c      	adds	r2, #12
  4012fc:	f853 3022 	ldr.w	r3, [r3, r2, lsl #2]
  401300:	f043 0104 	orr.w	r1, r3, #4
  401304:	68fb      	ldr	r3, [r7, #12]
  401306:	68ba      	ldr	r2, [r7, #8]
  401308:	320c      	adds	r2, #12
  40130a:	f843 1022 	str.w	r1, [r3, r2, lsl #2]
		p_spi->SPI_CSR[ul_pcs_ch] &= (~SPI_CSR_CSAAT);
		p_spi->SPI_CSR[ul_pcs_ch] &= (~SPI_CSR_CSNAAT);
	} else if (ul_cs_behavior == SPI_CS_KEEP_LOW) {
		p_spi->SPI_CSR[ul_pcs_ch] |= SPI_CSR_CSAAT;
	}
}
  40130e:	e02a      	b.n	401366 <spi_configure_cs_behavior+0x9a>
	} else if (ul_cs_behavior == SPI_CS_RISE_NO_TX) {
  401310:	687b      	ldr	r3, [r7, #4]
  401312:	2b00      	cmp	r3, #0
  401314:	d118      	bne.n	401348 <spi_configure_cs_behavior+0x7c>
		p_spi->SPI_CSR[ul_pcs_ch] &= (~SPI_CSR_CSAAT);
  401316:	68fb      	ldr	r3, [r7, #12]
  401318:	68ba      	ldr	r2, [r7, #8]
  40131a:	320c      	adds	r2, #12
  40131c:	f853 3022 	ldr.w	r3, [r3, r2, lsl #2]
  401320:	f023 0108 	bic.w	r1, r3, #8
  401324:	68fb      	ldr	r3, [r7, #12]
  401326:	68ba      	ldr	r2, [r7, #8]
  401328:	320c      	adds	r2, #12
  40132a:	f843 1022 	str.w	r1, [r3, r2, lsl #2]
		p_spi->SPI_CSR[ul_pcs_ch] &= (~SPI_CSR_CSNAAT);
  40132e:	68fb      	ldr	r3, [r7, #12]
  401330:	68ba      	ldr	r2, [r7, #8]
  401332:	320c      	adds	r2, #12
  401334:	f853 3022 	ldr.w	r3, [r3, r2, lsl #2]
  401338:	f023 0104 	bic.w	r1, r3, #4
  40133c:	68fb      	ldr	r3, [r7, #12]
  40133e:	68ba      	ldr	r2, [r7, #8]
  401340:	320c      	adds	r2, #12
  401342:	f843 1022 	str.w	r1, [r3, r2, lsl #2]
}
  401346:	e00e      	b.n	401366 <spi_configure_cs_behavior+0x9a>
	} else if (ul_cs_behavior == SPI_CS_KEEP_LOW) {
  401348:	687b      	ldr	r3, [r7, #4]
  40134a:	2b08      	cmp	r3, #8
  40134c:	d10b      	bne.n	401366 <spi_configure_cs_behavior+0x9a>
		p_spi->SPI_CSR[ul_pcs_ch] |= SPI_CSR_CSAAT;
  40134e:	68fb      	ldr	r3, [r7, #12]
  401350:	68ba      	ldr	r2, [r7, #8]
  401352:	320c      	adds	r2, #12
  401354:	f853 3022 	ldr.w	r3, [r3, r2, lsl #2]
  401358:	f043 0108 	orr.w	r1, r3, #8
  40135c:	68fb      	ldr	r3, [r7, #12]
  40135e:	68ba      	ldr	r2, [r7, #8]
  401360:	320c      	adds	r2, #12
  401362:	f843 1022 	str.w	r1, [r3, r2, lsl #2]
}
  401366:	bf00      	nop
  401368:	3714      	adds	r7, #20
  40136a:	46bd      	mov	sp, r7
  40136c:	f85d 7b04 	ldr.w	r7, [sp], #4
  401370:	4770      	bx	lr

00401372 <spi_set_bits_per_transfer>:
 * \param ul_bits Number of bits (8~16), use the pattern defined
 *        in the device header file.
 */
void spi_set_bits_per_transfer(Spi *p_spi, uint32_t ul_pcs_ch,
		uint32_t ul_bits)
{
  401372:	b480      	push	{r7}
  401374:	b085      	sub	sp, #20
  401376:	af00      	add	r7, sp, #0
  401378:	60f8      	str	r0, [r7, #12]
  40137a:	60b9      	str	r1, [r7, #8]
  40137c:	607a      	str	r2, [r7, #4]
	p_spi->SPI_CSR[ul_pcs_ch] &= (~SPI_CSR_BITS_Msk);
  40137e:	68fb      	ldr	r3, [r7, #12]
  401380:	68ba      	ldr	r2, [r7, #8]
  401382:	320c      	adds	r2, #12
  401384:	f853 3022 	ldr.w	r3, [r3, r2, lsl #2]
  401388:	f023 01f0 	bic.w	r1, r3, #240	; 0xf0
  40138c:	68fb      	ldr	r3, [r7, #12]
  40138e:	68ba      	ldr	r2, [r7, #8]
  401390:	320c      	adds	r2, #12
  401392:	f843 1022 	str.w	r1, [r3, r2, lsl #2]
	p_spi->SPI_CSR[ul_pcs_ch] |= ul_bits;
  401396:	68fb      	ldr	r3, [r7, #12]
  401398:	68ba      	ldr	r2, [r7, #8]
  40139a:	320c      	adds	r2, #12
  40139c:	f853 2022 	ldr.w	r2, [r3, r2, lsl #2]
  4013a0:	687b      	ldr	r3, [r7, #4]
  4013a2:	ea42 0103 	orr.w	r1, r2, r3
  4013a6:	68fb      	ldr	r3, [r7, #12]
  4013a8:	68ba      	ldr	r2, [r7, #8]
  4013aa:	320c      	adds	r2, #12
  4013ac:	f843 1022 	str.w	r1, [r3, r2, lsl #2]
}
  4013b0:	bf00      	nop
  4013b2:	3714      	adds	r7, #20
  4013b4:	46bd      	mov	sp, r7
  4013b6:	f85d 7b04 	ldr.w	r7, [sp], #4
  4013ba:	4770      	bx	lr

004013bc <spi_calc_baudrate_div>:
 * \return Divider or error code.
 *   \retval > 0  Success.
 *   \retval < 0  Error.
 */
int16_t spi_calc_baudrate_div(const uint32_t baudrate, uint32_t mck)
{
  4013bc:	b480      	push	{r7}
  4013be:	b085      	sub	sp, #20
  4013c0:	af00      	add	r7, sp, #0
  4013c2:	6078      	str	r0, [r7, #4]
  4013c4:	6039      	str	r1, [r7, #0]
	int baud_div = div_ceil(mck, baudrate);
  4013c6:	683a      	ldr	r2, [r7, #0]
  4013c8:	687b      	ldr	r3, [r7, #4]
  4013ca:	4413      	add	r3, r2
  4013cc:	1e5a      	subs	r2, r3, #1
  4013ce:	687b      	ldr	r3, [r7, #4]
  4013d0:	fbb2 f3f3 	udiv	r3, r2, r3
  4013d4:	60fb      	str	r3, [r7, #12]

	/* The value of baud_div is from 1 to 255 in the SCBR field. */
	if (baud_div <= 0 || baud_div > 255) {
  4013d6:	68fb      	ldr	r3, [r7, #12]
  4013d8:	2b00      	cmp	r3, #0
  4013da:	dd02      	ble.n	4013e2 <spi_calc_baudrate_div+0x26>
  4013dc:	68fb      	ldr	r3, [r7, #12]
  4013de:	2bff      	cmp	r3, #255	; 0xff
  4013e0:	dd02      	ble.n	4013e8 <spi_calc_baudrate_div+0x2c>
		return -1;
  4013e2:	f04f 33ff 	mov.w	r3, #4294967295
  4013e6:	e001      	b.n	4013ec <spi_calc_baudrate_div+0x30>
	}

	return baud_div;
  4013e8:	68fb      	ldr	r3, [r7, #12]
  4013ea:	b21b      	sxth	r3, r3
}
  4013ec:	4618      	mov	r0, r3
  4013ee:	3714      	adds	r7, #20
  4013f0:	46bd      	mov	sp, r7
  4013f2:	f85d 7b04 	ldr.w	r7, [sp], #4
  4013f6:	4770      	bx	lr

004013f8 <spi_set_baudrate_div>:
 * \retval is 0 Success.
 * \retval is -1 Error.
 */
int16_t spi_set_baudrate_div(Spi *p_spi, uint32_t ul_pcs_ch,
		uint8_t uc_baudrate_divider)
{
  4013f8:	b480      	push	{r7}
  4013fa:	b085      	sub	sp, #20
  4013fc:	af00      	add	r7, sp, #0
  4013fe:	60f8      	str	r0, [r7, #12]
  401400:	60b9      	str	r1, [r7, #8]
  401402:	4613      	mov	r3, r2
  401404:	71fb      	strb	r3, [r7, #7]
    /* Programming the SCBR field to 0 is forbidden */
    if (!uc_baudrate_divider){
  401406:	79fb      	ldrb	r3, [r7, #7]
  401408:	2b00      	cmp	r3, #0
  40140a:	d102      	bne.n	401412 <spi_set_baudrate_div+0x1a>
        return -1;
  40140c:	f04f 33ff 	mov.w	r3, #4294967295
  401410:	e01b      	b.n	40144a <spi_set_baudrate_div+0x52>
	}
	p_spi->SPI_CSR[ul_pcs_ch] &= (~SPI_CSR_SCBR_Msk);
  401412:	68fb      	ldr	r3, [r7, #12]
  401414:	68ba      	ldr	r2, [r7, #8]
  401416:	320c      	adds	r2, #12
  401418:	f853 3022 	ldr.w	r3, [r3, r2, lsl #2]
  40141c:	f423 417f 	bic.w	r1, r3, #65280	; 0xff00
  401420:	68fb      	ldr	r3, [r7, #12]
  401422:	68ba      	ldr	r2, [r7, #8]
  401424:	320c      	adds	r2, #12
  401426:	f843 1022 	str.w	r1, [r3, r2, lsl #2]
	p_spi->SPI_CSR[ul_pcs_ch] |= SPI_CSR_SCBR(uc_baudrate_divider);
  40142a:	68fb      	ldr	r3, [r7, #12]
  40142c:	68ba      	ldr	r2, [r7, #8]
  40142e:	320c      	adds	r2, #12
  401430:	f853 2022 	ldr.w	r2, [r3, r2, lsl #2]
  401434:	79fb      	ldrb	r3, [r7, #7]
  401436:	021b      	lsls	r3, r3, #8
  401438:	b29b      	uxth	r3, r3
  40143a:	ea42 0103 	orr.w	r1, r2, r3
  40143e:	68fb      	ldr	r3, [r7, #12]
  401440:	68ba      	ldr	r2, [r7, #8]
  401442:	320c      	adds	r2, #12
  401444:	f843 1022 	str.w	r1, [r3, r2, lsl #2]
    return 0;
  401448:	2300      	movs	r3, #0
}
  40144a:	4618      	mov	r0, r3
  40144c:	3714      	adds	r7, #20
  40144e:	46bd      	mov	sp, r7
  401450:	f85d 7b04 	ldr.w	r7, [sp], #4
  401454:	4770      	bx	lr

00401456 <spi_set_transfer_delay>:
 * \param uc_dlybs Delay before SPCK (in number of MCK clocks).
 * \param uc_dlybct Delay between consecutive transfers (in number of MCK clocks).
 */
void spi_set_transfer_delay(Spi *p_spi, uint32_t ul_pcs_ch,
		uint8_t uc_dlybs, uint8_t uc_dlybct)
{
  401456:	b480      	push	{r7}
  401458:	b085      	sub	sp, #20
  40145a:	af00      	add	r7, sp, #0
  40145c:	60f8      	str	r0, [r7, #12]
  40145e:	60b9      	str	r1, [r7, #8]
  401460:	4611      	mov	r1, r2
  401462:	461a      	mov	r2, r3
  401464:	460b      	mov	r3, r1
  401466:	71fb      	strb	r3, [r7, #7]
  401468:	4613      	mov	r3, r2
  40146a:	71bb      	strb	r3, [r7, #6]
	p_spi->SPI_CSR[ul_pcs_ch] &= ~(SPI_CSR_DLYBS_Msk | SPI_CSR_DLYBCT_Msk);
  40146c:	68fb      	ldr	r3, [r7, #12]
  40146e:	68ba      	ldr	r2, [r7, #8]
  401470:	320c      	adds	r2, #12
  401472:	f853 3022 	ldr.w	r3, [r3, r2, lsl #2]
  401476:	b299      	uxth	r1, r3
  401478:	68fb      	ldr	r3, [r7, #12]
  40147a:	68ba      	ldr	r2, [r7, #8]
  40147c:	320c      	adds	r2, #12
  40147e:	f843 1022 	str.w	r1, [r3, r2, lsl #2]
	p_spi->SPI_CSR[ul_pcs_ch] |= SPI_CSR_DLYBS(uc_dlybs)
  401482:	68fb      	ldr	r3, [r7, #12]
  401484:	68ba      	ldr	r2, [r7, #8]
  401486:	320c      	adds	r2, #12
  401488:	f853 2022 	ldr.w	r2, [r3, r2, lsl #2]
  40148c:	79fb      	ldrb	r3, [r7, #7]
  40148e:	041b      	lsls	r3, r3, #16
  401490:	f403 037f 	and.w	r3, r3, #16711680	; 0xff0000
			| SPI_CSR_DLYBCT(uc_dlybct);
  401494:	79b9      	ldrb	r1, [r7, #6]
  401496:	0609      	lsls	r1, r1, #24
  401498:	430b      	orrs	r3, r1
	p_spi->SPI_CSR[ul_pcs_ch] |= SPI_CSR_DLYBS(uc_dlybs)
  40149a:	ea42 0103 	orr.w	r1, r2, r3
  40149e:	68fb      	ldr	r3, [r7, #12]
  4014a0:	68ba      	ldr	r2, [r7, #8]
  4014a2:	320c      	adds	r2, #12
  4014a4:	f843 1022 	str.w	r1, [r3, r2, lsl #2]
}
  4014a8:	bf00      	nop
  4014aa:	3714      	adds	r7, #20
  4014ac:	46bd      	mov	sp, r7
  4014ae:	f85d 7b04 	ldr.w	r7, [sp], #4
  4014b2:	4770      	bx	lr

004014b4 <osc_enable>:
{
  4014b4:	b580      	push	{r7, lr}
  4014b6:	b082      	sub	sp, #8
  4014b8:	af00      	add	r7, sp, #0
  4014ba:	6078      	str	r0, [r7, #4]
	switch (ul_id) {
  4014bc:	687b      	ldr	r3, [r7, #4]
  4014be:	2b07      	cmp	r3, #7
  4014c0:	d831      	bhi.n	401526 <osc_enable+0x72>
  4014c2:	a201      	add	r2, pc, #4	; (adr r2, 4014c8 <osc_enable+0x14>)
  4014c4:	f852 f023 	ldr.w	pc, [r2, r3, lsl #2]
  4014c8:	00401525 	.word	0x00401525
  4014cc:	004014e9 	.word	0x004014e9
  4014d0:	004014f1 	.word	0x004014f1
  4014d4:	004014f9 	.word	0x004014f9
  4014d8:	00401501 	.word	0x00401501
  4014dc:	00401509 	.word	0x00401509
  4014e0:	00401511 	.word	0x00401511
  4014e4:	0040151b 	.word	0x0040151b
		pmc_switch_sclk_to_32kxtal(PMC_OSC_XTAL);
  4014e8:	2000      	movs	r0, #0
  4014ea:	4b11      	ldr	r3, [pc, #68]	; (401530 <osc_enable+0x7c>)
  4014ec:	4798      	blx	r3
		break;
  4014ee:	e01a      	b.n	401526 <osc_enable+0x72>
		pmc_switch_sclk_to_32kxtal(PMC_OSC_BYPASS);
  4014f0:	2001      	movs	r0, #1
  4014f2:	4b0f      	ldr	r3, [pc, #60]	; (401530 <osc_enable+0x7c>)
  4014f4:	4798      	blx	r3
		break;
  4014f6:	e016      	b.n	401526 <osc_enable+0x72>
		pmc_switch_mainck_to_fastrc(CKGR_MOR_MOSCRCF_4_MHz);
  4014f8:	2000      	movs	r0, #0
  4014fa:	4b0e      	ldr	r3, [pc, #56]	; (401534 <osc_enable+0x80>)
  4014fc:	4798      	blx	r3
		break;
  4014fe:	e012      	b.n	401526 <osc_enable+0x72>
		pmc_switch_mainck_to_fastrc(CKGR_MOR_MOSCRCF_8_MHz);
  401500:	2010      	movs	r0, #16
  401502:	4b0c      	ldr	r3, [pc, #48]	; (401534 <osc_enable+0x80>)
  401504:	4798      	blx	r3
		break;
  401506:	e00e      	b.n	401526 <osc_enable+0x72>
		pmc_switch_mainck_to_fastrc(CKGR_MOR_MOSCRCF_12_MHz);
  401508:	2020      	movs	r0, #32
  40150a:	4b0a      	ldr	r3, [pc, #40]	; (401534 <osc_enable+0x80>)
  40150c:	4798      	blx	r3
		break;
  40150e:	e00a      	b.n	401526 <osc_enable+0x72>
		pmc_switch_mainck_to_xtal(PMC_OSC_XTAL,
  401510:	213e      	movs	r1, #62	; 0x3e
  401512:	2000      	movs	r0, #0
  401514:	4b08      	ldr	r3, [pc, #32]	; (401538 <osc_enable+0x84>)
  401516:	4798      	blx	r3
		break;
  401518:	e005      	b.n	401526 <osc_enable+0x72>
		pmc_switch_mainck_to_xtal(PMC_OSC_BYPASS,
  40151a:	213e      	movs	r1, #62	; 0x3e
  40151c:	2001      	movs	r0, #1
  40151e:	4b06      	ldr	r3, [pc, #24]	; (401538 <osc_enable+0x84>)
  401520:	4798      	blx	r3
		break;
  401522:	e000      	b.n	401526 <osc_enable+0x72>
		break;
  401524:	bf00      	nop
}
  401526:	bf00      	nop
  401528:	3708      	adds	r7, #8
  40152a:	46bd      	mov	sp, r7
  40152c:	bd80      	pop	{r7, pc}
  40152e:	bf00      	nop
  401530:	00402165 	.word	0x00402165
  401534:	004021d1 	.word	0x004021d1
  401538:	00402241 	.word	0x00402241

0040153c <osc_is_ready>:
{
  40153c:	b580      	push	{r7, lr}
  40153e:	b082      	sub	sp, #8
  401540:	af00      	add	r7, sp, #0
  401542:	6078      	str	r0, [r7, #4]
	switch (ul_id) {
  401544:	687b      	ldr	r3, [r7, #4]
  401546:	2b07      	cmp	r3, #7
  401548:	d826      	bhi.n	401598 <osc_is_ready+0x5c>
  40154a:	a201      	add	r2, pc, #4	; (adr r2, 401550 <osc_is_ready+0x14>)
  40154c:	f852 f023 	ldr.w	pc, [r2, r3, lsl #2]
  401550:	00401571 	.word	0x00401571
  401554:	00401575 	.word	0x00401575
  401558:	00401575 	.word	0x00401575
  40155c:	00401587 	.word	0x00401587
  401560:	00401587 	.word	0x00401587
  401564:	00401587 	.word	0x00401587
  401568:	00401587 	.word	0x00401587
  40156c:	00401587 	.word	0x00401587
		return 1;
  401570:	2301      	movs	r3, #1
  401572:	e012      	b.n	40159a <osc_is_ready+0x5e>
		return pmc_osc_is_ready_32kxtal();
  401574:	4b0b      	ldr	r3, [pc, #44]	; (4015a4 <osc_is_ready+0x68>)
  401576:	4798      	blx	r3
  401578:	4603      	mov	r3, r0
  40157a:	2b00      	cmp	r3, #0
  40157c:	bf14      	ite	ne
  40157e:	2301      	movne	r3, #1
  401580:	2300      	moveq	r3, #0
  401582:	b2db      	uxtb	r3, r3
  401584:	e009      	b.n	40159a <osc_is_ready+0x5e>
		return pmc_osc_is_ready_mainck();
  401586:	4b08      	ldr	r3, [pc, #32]	; (4015a8 <osc_is_ready+0x6c>)
  401588:	4798      	blx	r3
  40158a:	4603      	mov	r3, r0
  40158c:	2b00      	cmp	r3, #0
  40158e:	bf14      	ite	ne
  401590:	2301      	movne	r3, #1
  401592:	2300      	moveq	r3, #0
  401594:	b2db      	uxtb	r3, r3
  401596:	e000      	b.n	40159a <osc_is_ready+0x5e>
	return 0;
  401598:	2300      	movs	r3, #0
}
  40159a:	4618      	mov	r0, r3
  40159c:	3708      	adds	r7, #8
  40159e:	46bd      	mov	sp, r7
  4015a0:	bd80      	pop	{r7, pc}
  4015a2:	bf00      	nop
  4015a4:	0040219d 	.word	0x0040219d
  4015a8:	004022b9 	.word	0x004022b9

004015ac <osc_get_rate>:
{
  4015ac:	b480      	push	{r7}
  4015ae:	b083      	sub	sp, #12
  4015b0:	af00      	add	r7, sp, #0
  4015b2:	6078      	str	r0, [r7, #4]
	switch (ul_id) {
  4015b4:	687b      	ldr	r3, [r7, #4]
  4015b6:	2b07      	cmp	r3, #7
  4015b8:	d825      	bhi.n	401606 <osc_get_rate+0x5a>
  4015ba:	a201      	add	r2, pc, #4	; (adr r2, 4015c0 <osc_get_rate+0x14>)
  4015bc:	f852 f023 	ldr.w	pc, [r2, r3, lsl #2]
  4015c0:	004015e1 	.word	0x004015e1
  4015c4:	004015e7 	.word	0x004015e7
  4015c8:	004015ed 	.word	0x004015ed
  4015cc:	004015f3 	.word	0x004015f3
  4015d0:	004015f7 	.word	0x004015f7
  4015d4:	004015fb 	.word	0x004015fb
  4015d8:	004015ff 	.word	0x004015ff
  4015dc:	00401603 	.word	0x00401603
		return OSC_SLCK_32K_RC_HZ;
  4015e0:	f44f 43fa 	mov.w	r3, #32000	; 0x7d00
  4015e4:	e010      	b.n	401608 <osc_get_rate+0x5c>
		return BOARD_FREQ_SLCK_XTAL;
  4015e6:	f44f 4300 	mov.w	r3, #32768	; 0x8000
  4015ea:	e00d      	b.n	401608 <osc_get_rate+0x5c>
		return BOARD_FREQ_SLCK_BYPASS;
  4015ec:	f44f 4300 	mov.w	r3, #32768	; 0x8000
  4015f0:	e00a      	b.n	401608 <osc_get_rate+0x5c>
		return OSC_MAINCK_4M_RC_HZ;
  4015f2:	4b08      	ldr	r3, [pc, #32]	; (401614 <osc_get_rate+0x68>)
  4015f4:	e008      	b.n	401608 <osc_get_rate+0x5c>
		return OSC_MAINCK_8M_RC_HZ;
  4015f6:	4b08      	ldr	r3, [pc, #32]	; (401618 <osc_get_rate+0x6c>)
  4015f8:	e006      	b.n	401608 <osc_get_rate+0x5c>
		return OSC_MAINCK_12M_RC_HZ;
  4015fa:	4b08      	ldr	r3, [pc, #32]	; (40161c <osc_get_rate+0x70>)
  4015fc:	e004      	b.n	401608 <osc_get_rate+0x5c>
		return BOARD_FREQ_MAINCK_XTAL;
  4015fe:	4b07      	ldr	r3, [pc, #28]	; (40161c <osc_get_rate+0x70>)
  401600:	e002      	b.n	401608 <osc_get_rate+0x5c>
		return BOARD_FREQ_MAINCK_BYPASS;
  401602:	4b06      	ldr	r3, [pc, #24]	; (40161c <osc_get_rate+0x70>)
  401604:	e000      	b.n	401608 <osc_get_rate+0x5c>
	return 0;
  401606:	2300      	movs	r3, #0
}
  401608:	4618      	mov	r0, r3
  40160a:	370c      	adds	r7, #12
  40160c:	46bd      	mov	sp, r7
  40160e:	f85d 7b04 	ldr.w	r7, [sp], #4
  401612:	4770      	bx	lr
  401614:	003d0900 	.word	0x003d0900
  401618:	007a1200 	.word	0x007a1200
  40161c:	00b71b00 	.word	0x00b71b00

00401620 <osc_wait_ready>:
 * to become stable and ready to use as a clock source.
 *
 * \param id A number identifying the oscillator to wait for.
 */
static inline void osc_wait_ready(uint8_t id)
{
  401620:	b580      	push	{r7, lr}
  401622:	b082      	sub	sp, #8
  401624:	af00      	add	r7, sp, #0
  401626:	4603      	mov	r3, r0
  401628:	71fb      	strb	r3, [r7, #7]
	while (!osc_is_ready(id)) {
  40162a:	bf00      	nop
  40162c:	79fb      	ldrb	r3, [r7, #7]
  40162e:	4618      	mov	r0, r3
  401630:	4b05      	ldr	r3, [pc, #20]	; (401648 <osc_wait_ready+0x28>)
  401632:	4798      	blx	r3
  401634:	4603      	mov	r3, r0
  401636:	f083 0301 	eor.w	r3, r3, #1
  40163a:	b2db      	uxtb	r3, r3
  40163c:	2b00      	cmp	r3, #0
  40163e:	d1f5      	bne.n	40162c <osc_wait_ready+0xc>
		/* Do nothing */
	}
}
  401640:	bf00      	nop
  401642:	3708      	adds	r7, #8
  401644:	46bd      	mov	sp, r7
  401646:	bd80      	pop	{r7, pc}
  401648:	0040153d 	.word	0x0040153d

0040164c <pll_config_init>:
 * hardware mul+1 is hidden in this implementation. Use mul as mul effective
 * value.
 */
static inline void pll_config_init(struct pll_config *p_cfg,
		enum pll_source e_src, uint32_t ul_div, uint32_t ul_mul)
{
  40164c:	b580      	push	{r7, lr}
  40164e:	b086      	sub	sp, #24
  401650:	af00      	add	r7, sp, #0
  401652:	60f8      	str	r0, [r7, #12]
  401654:	607a      	str	r2, [r7, #4]
  401656:	603b      	str	r3, [r7, #0]
  401658:	460b      	mov	r3, r1
  40165a:	72fb      	strb	r3, [r7, #11]
	uint32_t vco_hz;

	Assert(e_src < PLL_NR_SOURCES);

	if (ul_div == 0 && ul_mul == 0) { /* Must only be true for UTMI PLL */
  40165c:	687b      	ldr	r3, [r7, #4]
  40165e:	2b00      	cmp	r3, #0
  401660:	d107      	bne.n	401672 <pll_config_init+0x26>
  401662:	683b      	ldr	r3, [r7, #0]
  401664:	2b00      	cmp	r3, #0
  401666:	d104      	bne.n	401672 <pll_config_init+0x26>
		p_cfg->ctrl = CKGR_UCKR_UPLLCOUNT(PLL_COUNT);
  401668:	68fb      	ldr	r3, [r7, #12]
  40166a:	f44f 0270 	mov.w	r2, #15728640	; 0xf00000
  40166e:	601a      	str	r2, [r3, #0]
  401670:	e019      	b.n	4016a6 <pll_config_init+0x5a>
	} else { /* PLLA */
	/* Calculate internal VCO frequency */
	vco_hz = osc_get_rate(e_src) / ul_div;
  401672:	7afb      	ldrb	r3, [r7, #11]
  401674:	4618      	mov	r0, r3
  401676:	4b0e      	ldr	r3, [pc, #56]	; (4016b0 <pll_config_init+0x64>)
  401678:	4798      	blx	r3
  40167a:	4602      	mov	r2, r0
  40167c:	687b      	ldr	r3, [r7, #4]
  40167e:	fbb2 f3f3 	udiv	r3, r2, r3
  401682:	617b      	str	r3, [r7, #20]
	Assert(vco_hz >= PLL_INPUT_MIN_HZ);
	Assert(vco_hz <= PLL_INPUT_MAX_HZ);

	vco_hz *= ul_mul;
  401684:	697b      	ldr	r3, [r7, #20]
  401686:	683a      	ldr	r2, [r7, #0]
  401688:	fb02 f303 	mul.w	r3, r2, r3
  40168c:	617b      	str	r3, [r7, #20]
	Assert(vco_hz >= PLL_OUTPUT_MIN_HZ);
	Assert(vco_hz <= PLL_OUTPUT_MAX_HZ);

	/* PMC hardware will automatically make it mul+1 */
		p_cfg->ctrl = CKGR_PLLAR_MULA(ul_mul - 1) | CKGR_PLLAR_DIVA(ul_div)  \
  40168e:	683b      	ldr	r3, [r7, #0]
  401690:	3b01      	subs	r3, #1
  401692:	041a      	lsls	r2, r3, #16
  401694:	4b07      	ldr	r3, [pc, #28]	; (4016b4 <pll_config_init+0x68>)
  401696:	4013      	ands	r3, r2
  401698:	687a      	ldr	r2, [r7, #4]
  40169a:	b2d2      	uxtb	r2, r2
  40169c:	4313      	orrs	r3, r2
		| CKGR_PLLAR_PLLACOUNT(PLL_COUNT);
  40169e:	f443 527c 	orr.w	r2, r3, #16128	; 0x3f00
		p_cfg->ctrl = CKGR_PLLAR_MULA(ul_mul - 1) | CKGR_PLLAR_DIVA(ul_div)  \
  4016a2:	68fb      	ldr	r3, [r7, #12]
  4016a4:	601a      	str	r2, [r3, #0]
	}
}
  4016a6:	bf00      	nop
  4016a8:	3718      	adds	r7, #24
  4016aa:	46bd      	mov	sp, r7
  4016ac:	bd80      	pop	{r7, pc}
  4016ae:	bf00      	nop
  4016b0:	004015ad 	.word	0x004015ad
  4016b4:	07ff0000 	.word	0x07ff0000

004016b8 <pll_enable>:
		PMC->CKGR_UCKR = p_cfg->ctrl;
	}
}

static inline void pll_enable(const struct pll_config *p_cfg, uint32_t ul_pll_id)
{
  4016b8:	b580      	push	{r7, lr}
  4016ba:	b082      	sub	sp, #8
  4016bc:	af00      	add	r7, sp, #0
  4016be:	6078      	str	r0, [r7, #4]
  4016c0:	6039      	str	r1, [r7, #0]
	Assert(ul_pll_id < NR_PLLS);

	if (ul_pll_id == PLLA_ID) {
  4016c2:	683b      	ldr	r3, [r7, #0]
  4016c4:	2b00      	cmp	r3, #0
  4016c6:	d108      	bne.n	4016da <pll_enable+0x22>
		pmc_disable_pllack(); // Always stop PLL first!
  4016c8:	4b09      	ldr	r3, [pc, #36]	; (4016f0 <pll_enable+0x38>)
  4016ca:	4798      	blx	r3
		PMC->CKGR_PLLAR = CKGR_PLLAR_ONE | p_cfg->ctrl;
  4016cc:	4a09      	ldr	r2, [pc, #36]	; (4016f4 <pll_enable+0x3c>)
  4016ce:	687b      	ldr	r3, [r7, #4]
  4016d0:	681b      	ldr	r3, [r3, #0]
  4016d2:	f043 5300 	orr.w	r3, r3, #536870912	; 0x20000000
  4016d6:	6293      	str	r3, [r2, #40]	; 0x28
	} else {
		PMC->CKGR_UCKR = p_cfg->ctrl | CKGR_UCKR_UPLLEN;
	}
}
  4016d8:	e005      	b.n	4016e6 <pll_enable+0x2e>
		PMC->CKGR_UCKR = p_cfg->ctrl | CKGR_UCKR_UPLLEN;
  4016da:	4a06      	ldr	r2, [pc, #24]	; (4016f4 <pll_enable+0x3c>)
  4016dc:	687b      	ldr	r3, [r7, #4]
  4016de:	681b      	ldr	r3, [r3, #0]
  4016e0:	f443 3380 	orr.w	r3, r3, #65536	; 0x10000
  4016e4:	61d3      	str	r3, [r2, #28]
}
  4016e6:	bf00      	nop
  4016e8:	3708      	adds	r7, #8
  4016ea:	46bd      	mov	sp, r7
  4016ec:	bd80      	pop	{r7, pc}
  4016ee:	bf00      	nop
  4016f0:	004022d5 	.word	0x004022d5
  4016f4:	400e0600 	.word	0x400e0600

004016f8 <pll_is_locked>:
		PMC->CKGR_UCKR &= ~CKGR_UCKR_UPLLEN;
	}
}

static inline uint32_t pll_is_locked(uint32_t ul_pll_id)
{
  4016f8:	b580      	push	{r7, lr}
  4016fa:	b082      	sub	sp, #8
  4016fc:	af00      	add	r7, sp, #0
  4016fe:	6078      	str	r0, [r7, #4]
	Assert(ul_pll_id < NR_PLLS);

	if (ul_pll_id == PLLA_ID) {
  401700:	687b      	ldr	r3, [r7, #4]
  401702:	2b00      	cmp	r3, #0
  401704:	d103      	bne.n	40170e <pll_is_locked+0x16>
	return pmc_is_locked_pllack();
  401706:	4b05      	ldr	r3, [pc, #20]	; (40171c <pll_is_locked+0x24>)
  401708:	4798      	blx	r3
  40170a:	4603      	mov	r3, r0
  40170c:	e002      	b.n	401714 <pll_is_locked+0x1c>
	} else {
		return pmc_is_locked_upll();
  40170e:	4b04      	ldr	r3, [pc, #16]	; (401720 <pll_is_locked+0x28>)
  401710:	4798      	blx	r3
  401712:	4603      	mov	r3, r0
	}
}
  401714:	4618      	mov	r0, r3
  401716:	3708      	adds	r7, #8
  401718:	46bd      	mov	sp, r7
  40171a:	bd80      	pop	{r7, pc}
  40171c:	004022f1 	.word	0x004022f1
  401720:	0040230d 	.word	0x0040230d

00401724 <pll_enable_source>:

static inline void pll_enable_source(enum pll_source e_src)
{
  401724:	b580      	push	{r7, lr}
  401726:	b082      	sub	sp, #8
  401728:	af00      	add	r7, sp, #0
  40172a:	4603      	mov	r3, r0
  40172c:	71fb      	strb	r3, [r7, #7]
	switch (e_src) {
  40172e:	79fb      	ldrb	r3, [r7, #7]
  401730:	3b03      	subs	r3, #3
  401732:	2b04      	cmp	r3, #4
  401734:	d808      	bhi.n	401748 <pll_enable_source+0x24>
	case PLL_SRC_MAINCK_4M_RC:
	case PLL_SRC_MAINCK_8M_RC:
	case PLL_SRC_MAINCK_12M_RC:
	case PLL_SRC_MAINCK_XTAL:
	case PLL_SRC_MAINCK_BYPASS:
		osc_enable(e_src);
  401736:	79fb      	ldrb	r3, [r7, #7]
  401738:	4618      	mov	r0, r3
  40173a:	4b06      	ldr	r3, [pc, #24]	; (401754 <pll_enable_source+0x30>)
  40173c:	4798      	blx	r3
		osc_wait_ready(e_src);
  40173e:	79fb      	ldrb	r3, [r7, #7]
  401740:	4618      	mov	r0, r3
  401742:	4b05      	ldr	r3, [pc, #20]	; (401758 <pll_enable_source+0x34>)
  401744:	4798      	blx	r3
		break;
  401746:	e000      	b.n	40174a <pll_enable_source+0x26>

	default:
		Assert(false);
		break;
  401748:	bf00      	nop
	}
}
  40174a:	bf00      	nop
  40174c:	3708      	adds	r7, #8
  40174e:	46bd      	mov	sp, r7
  401750:	bd80      	pop	{r7, pc}
  401752:	bf00      	nop
  401754:	004014b5 	.word	0x004014b5
  401758:	00401621 	.word	0x00401621

0040175c <pll_wait_for_lock>:
 *
 * \retval STATUS_OK The PLL is now locked.
 * \retval ERR_TIMEOUT Timed out waiting for PLL to become locked.
 */
static inline int pll_wait_for_lock(unsigned int pll_id)
{
  40175c:	b580      	push	{r7, lr}
  40175e:	b082      	sub	sp, #8
  401760:	af00      	add	r7, sp, #0
  401762:	6078      	str	r0, [r7, #4]
	Assert(pll_id < NR_PLLS);

	while (!pll_is_locked(pll_id)) {
  401764:	bf00      	nop
  401766:	6878      	ldr	r0, [r7, #4]
  401768:	4b04      	ldr	r3, [pc, #16]	; (40177c <pll_wait_for_lock+0x20>)
  40176a:	4798      	blx	r3
  40176c:	4603      	mov	r3, r0
  40176e:	2b00      	cmp	r3, #0
  401770:	d0f9      	beq.n	401766 <pll_wait_for_lock+0xa>
		/* Do nothing */
	}

	return 0;
  401772:	2300      	movs	r3, #0
}
  401774:	4618      	mov	r0, r3
  401776:	3708      	adds	r7, #8
  401778:	46bd      	mov	sp, r7
  40177a:	bd80      	pop	{r7, pc}
  40177c:	004016f9 	.word	0x004016f9

00401780 <sysclk_get_main_hz>:
{
  401780:	b580      	push	{r7, lr}
  401782:	af00      	add	r7, sp, #0
		return pll_get_default_rate(0);
  401784:	2006      	movs	r0, #6
  401786:	4b05      	ldr	r3, [pc, #20]	; (40179c <sysclk_get_main_hz+0x1c>)
  401788:	4798      	blx	r3
  40178a:	4602      	mov	r2, r0
  40178c:	4613      	mov	r3, r2
  40178e:	009b      	lsls	r3, r3, #2
  401790:	4413      	add	r3, r2
  401792:	009a      	lsls	r2, r3, #2
  401794:	4413      	add	r3, r2
}
  401796:	4618      	mov	r0, r3
  401798:	bd80      	pop	{r7, pc}
  40179a:	bf00      	nop
  40179c:	004015ad 	.word	0x004015ad

004017a0 <sysclk_get_cpu_hz>:
{
  4017a0:	b580      	push	{r7, lr}
  4017a2:	af00      	add	r7, sp, #0
	return sysclk_get_main_hz() /
  4017a4:	4b02      	ldr	r3, [pc, #8]	; (4017b0 <sysclk_get_cpu_hz+0x10>)
  4017a6:	4798      	blx	r3
  4017a8:	4603      	mov	r3, r0
}
  4017aa:	4618      	mov	r0, r3
  4017ac:	bd80      	pop	{r7, pc}
  4017ae:	bf00      	nop
  4017b0:	00401781 	.word	0x00401781

004017b4 <sysclk_init>:
	pmc_disable_udpck();
}
#endif // CONFIG_USBCLK_SOURCE

void sysclk_init(void)
{
  4017b4:	b590      	push	{r4, r7, lr}
  4017b6:	b083      	sub	sp, #12
  4017b8:	af00      	add	r7, sp, #0
	struct pll_config pllcfg;

	/* Set flash wait state to max in case the below clock switching. */
	system_init_flash(CHIP_FREQ_CPU_MAX);
  4017ba:	4813      	ldr	r0, [pc, #76]	; (401808 <sysclk_init+0x54>)
  4017bc:	4b13      	ldr	r3, [pc, #76]	; (40180c <sysclk_init+0x58>)
  4017be:	4798      	blx	r3
		pmc_switch_mck_to_mainck(CONFIG_SYSCLK_PRES);
	}

#ifdef CONFIG_PLL0_SOURCE
	else if (CONFIG_SYSCLK_SOURCE == SYSCLK_SRC_PLLACK) {
		pll_enable_source(CONFIG_PLL0_SOURCE);
  4017c0:	2006      	movs	r0, #6
  4017c2:	4b13      	ldr	r3, [pc, #76]	; (401810 <sysclk_init+0x5c>)
  4017c4:	4798      	blx	r3
		pll_config_defaults(&pllcfg, 0);
  4017c6:	1d38      	adds	r0, r7, #4
  4017c8:	2319      	movs	r3, #25
  4017ca:	2201      	movs	r2, #1
  4017cc:	2106      	movs	r1, #6
  4017ce:	4c11      	ldr	r4, [pc, #68]	; (401814 <sysclk_init+0x60>)
  4017d0:	47a0      	blx	r4
		pll_enable(&pllcfg, 0);
  4017d2:	1d3b      	adds	r3, r7, #4
  4017d4:	2100      	movs	r1, #0
  4017d6:	4618      	mov	r0, r3
  4017d8:	4b0f      	ldr	r3, [pc, #60]	; (401818 <sysclk_init+0x64>)
  4017da:	4798      	blx	r3
		pll_wait_for_lock(0);
  4017dc:	2000      	movs	r0, #0
  4017de:	4b0f      	ldr	r3, [pc, #60]	; (40181c <sysclk_init+0x68>)
  4017e0:	4798      	blx	r3
		pmc_mck_set_division(CONFIG_SYSCLK_DIV);
  4017e2:	2002      	movs	r0, #2
  4017e4:	4b0e      	ldr	r3, [pc, #56]	; (401820 <sysclk_init+0x6c>)
  4017e6:	4798      	blx	r3
		pmc_switch_mck_to_pllack(CONFIG_SYSCLK_PRES);
  4017e8:	2000      	movs	r0, #0
  4017ea:	4b0e      	ldr	r3, [pc, #56]	; (401824 <sysclk_init+0x70>)
  4017ec:	4798      	blx	r3
		pll_wait_for_lock(1);
		pmc_mck_set_division(CONFIG_SYSCLK_DIV);
		pmc_switch_mck_to_upllck(CONFIG_SYSCLK_PRES);
	}
	/* Update the SystemFrequency variable */
	SystemCoreClockUpdate();
  4017ee:	4b0e      	ldr	r3, [pc, #56]	; (401828 <sysclk_init+0x74>)
  4017f0:	4798      	blx	r3

	/* Set a flash wait state depending on the new cpu frequency */
	system_init_flash(sysclk_get_cpu_hz());
  4017f2:	4b0e      	ldr	r3, [pc, #56]	; (40182c <sysclk_init+0x78>)
  4017f4:	4798      	blx	r3
  4017f6:	4603      	mov	r3, r0
  4017f8:	4618      	mov	r0, r3
  4017fa:	4b04      	ldr	r3, [pc, #16]	; (40180c <sysclk_init+0x58>)
  4017fc:	4798      	blx	r3

#if (defined CONFIG_SYSCLK_DEFAULT_RETURNS_SLOW_OSC)
	/* Signal that the internal frequencies are setup */
	sysclk_initialized = 1;
#endif
}
  4017fe:	bf00      	nop
  401800:	370c      	adds	r7, #12
  401802:	46bd      	mov	sp, r7
  401804:	bd90      	pop	{r4, r7, pc}
  401806:	bf00      	nop
  401808:	07270e00 	.word	0x07270e00
  40180c:	00402a55 	.word	0x00402a55
  401810:	00401725 	.word	0x00401725
  401814:	0040164d 	.word	0x0040164d
  401818:	004016b9 	.word	0x004016b9
  40181c:	0040175d 	.word	0x0040175d
  401820:	00402065 	.word	0x00402065
  401824:	004020e1 	.word	0x004020e1
  401828:	004028ed 	.word	0x004028ed
  40182c:	004017a1 	.word	0x004017a1

00401830 <sysclk_enable_peripheral_clock>:
{
  401830:	b580      	push	{r7, lr}
  401832:	b082      	sub	sp, #8
  401834:	af00      	add	r7, sp, #0
  401836:	6078      	str	r0, [r7, #4]
	pmc_enable_periph_clk(ul_id);
  401838:	6878      	ldr	r0, [r7, #4]
  40183a:	4b03      	ldr	r3, [pc, #12]	; (401848 <sysclk_enable_peripheral_clock+0x18>)
  40183c:	4798      	blx	r3
}
  40183e:	bf00      	nop
  401840:	3708      	adds	r7, #8
  401842:	46bd      	mov	sp, r7
  401844:	bd80      	pop	{r7, pc}
  401846:	bf00      	nop
  401848:	00402329 	.word	0x00402329

0040184c <ioport_init>:
 *
 * This function must be called before using any other functions in the IOPORT
 * service.
 */
static inline void ioport_init(void)
{
  40184c:	b580      	push	{r7, lr}
  40184e:	af00      	add	r7, sp, #0
}

__always_inline static void arch_ioport_init(void)
{
#ifdef ID_PIOA
	sysclk_enable_peripheral_clock(ID_PIOA);
  401850:	200a      	movs	r0, #10
  401852:	4b08      	ldr	r3, [pc, #32]	; (401874 <ioport_init+0x28>)
  401854:	4798      	blx	r3
#endif
#ifdef ID_PIOB
	sysclk_enable_peripheral_clock(ID_PIOB);
  401856:	200b      	movs	r0, #11
  401858:	4b06      	ldr	r3, [pc, #24]	; (401874 <ioport_init+0x28>)
  40185a:	4798      	blx	r3
#endif
#ifdef ID_PIOC
	sysclk_enable_peripheral_clock(ID_PIOC);
  40185c:	200c      	movs	r0, #12
  40185e:	4b05      	ldr	r3, [pc, #20]	; (401874 <ioport_init+0x28>)
  401860:	4798      	blx	r3
#endif
#ifdef ID_PIOD
	sysclk_enable_peripheral_clock(ID_PIOD);
  401862:	2010      	movs	r0, #16
  401864:	4b03      	ldr	r3, [pc, #12]	; (401874 <ioport_init+0x28>)
  401866:	4798      	blx	r3
#endif
#ifdef ID_PIOE
	sysclk_enable_peripheral_clock(ID_PIOE);
  401868:	2011      	movs	r0, #17
  40186a:	4b02      	ldr	r3, [pc, #8]	; (401874 <ioport_init+0x28>)
  40186c:	4798      	blx	r3
	arch_ioport_init();
}
  40186e:	bf00      	nop
  401870:	bd80      	pop	{r7, pc}
  401872:	bf00      	nop
  401874:	00401831 	.word	0x00401831

00401878 <ioport_disable_pin>:
 *        IOPORT_CREATE_PIN().
 *
 * \param pin IOPORT pin to disable
 */
static inline void ioport_disable_pin(ioport_pin_t pin)
{
  401878:	b480      	push	{r7}
  40187a:	b089      	sub	sp, #36	; 0x24
  40187c:	af00      	add	r7, sp, #0
  40187e:	6078      	str	r0, [r7, #4]
  401880:	687b      	ldr	r3, [r7, #4]
  401882:	61fb      	str	r3, [r7, #28]
  401884:	69fb      	ldr	r3, [r7, #28]
  401886:	61bb      	str	r3, [r7, #24]
	return pin >> 5;
  401888:	69bb      	ldr	r3, [r7, #24]
  40188a:	095a      	lsrs	r2, r3, #5
  40188c:	69fb      	ldr	r3, [r7, #28]
  40188e:	617b      	str	r3, [r7, #20]
	return 1U << (pin & 0x1F);
  401890:	697b      	ldr	r3, [r7, #20]
  401892:	f003 031f 	and.w	r3, r3, #31
  401896:	2101      	movs	r1, #1
  401898:	fa01 f303 	lsl.w	r3, r1, r3
  40189c:	613a      	str	r2, [r7, #16]
  40189e:	60fb      	str	r3, [r7, #12]
  4018a0:	693b      	ldr	r3, [r7, #16]
  4018a2:	60bb      	str	r3, [r7, #8]
	return (Pio *)((uintptr_t)IOPORT_BASE_ADDRESS +
  4018a4:	68ba      	ldr	r2, [r7, #8]
  4018a6:	4b06      	ldr	r3, [pc, #24]	; (4018c0 <ioport_disable_pin+0x48>)
  4018a8:	4413      	add	r3, r2
  4018aa:	025b      	lsls	r3, r3, #9
  4018ac:	461a      	mov	r2, r3
}

__always_inline static void arch_ioport_disable_port(ioport_port_t port,
		ioport_port_mask_t mask)
{
	arch_ioport_port_to_base(port)->PIO_PDR = mask;
  4018ae:	68fb      	ldr	r3, [r7, #12]
  4018b0:	6053      	str	r3, [r2, #4]
	arch_ioport_disable_pin(pin);
}
  4018b2:	bf00      	nop
  4018b4:	3724      	adds	r7, #36	; 0x24
  4018b6:	46bd      	mov	sp, r7
  4018b8:	f85d 7b04 	ldr.w	r7, [sp], #4
  4018bc:	4770      	bx	lr
  4018be:	bf00      	nop
  4018c0:	00200707 	.word	0x00200707

004018c4 <ioport_set_pin_mode>:
 *
 * \param pin IOPORT pin to configure
 * \param mode Mode masks to configure for the specified pin (\ref ioport_modes)
 */
static inline void ioport_set_pin_mode(ioport_pin_t pin, ioport_mode_t mode)
{
  4018c4:	b480      	push	{r7}
  4018c6:	b08d      	sub	sp, #52	; 0x34
  4018c8:	af00      	add	r7, sp, #0
  4018ca:	6078      	str	r0, [r7, #4]
  4018cc:	6039      	str	r1, [r7, #0]
  4018ce:	687b      	ldr	r3, [r7, #4]
  4018d0:	62fb      	str	r3, [r7, #44]	; 0x2c
  4018d2:	683b      	ldr	r3, [r7, #0]
  4018d4:	62bb      	str	r3, [r7, #40]	; 0x28
  4018d6:	6afb      	ldr	r3, [r7, #44]	; 0x2c
  4018d8:	627b      	str	r3, [r7, #36]	; 0x24
	return pin >> 5;
  4018da:	6a7b      	ldr	r3, [r7, #36]	; 0x24
  4018dc:	095a      	lsrs	r2, r3, #5
  4018de:	6afb      	ldr	r3, [r7, #44]	; 0x2c
  4018e0:	623b      	str	r3, [r7, #32]
	return 1U << (pin & 0x1F);
  4018e2:	6a3b      	ldr	r3, [r7, #32]
  4018e4:	f003 031f 	and.w	r3, r3, #31
  4018e8:	2101      	movs	r1, #1
  4018ea:	fa01 f303 	lsl.w	r3, r1, r3
  4018ee:	61fa      	str	r2, [r7, #28]
  4018f0:	61bb      	str	r3, [r7, #24]
  4018f2:	6abb      	ldr	r3, [r7, #40]	; 0x28
  4018f4:	617b      	str	r3, [r7, #20]
  4018f6:	69fb      	ldr	r3, [r7, #28]
  4018f8:	613b      	str	r3, [r7, #16]
	return (Pio *)((uintptr_t)IOPORT_BASE_ADDRESS +
  4018fa:	693a      	ldr	r2, [r7, #16]
  4018fc:	4b37      	ldr	r3, [pc, #220]	; (4019dc <ioport_set_pin_mode+0x118>)
  4018fe:	4413      	add	r3, r2
  401900:	025b      	lsls	r3, r3, #9
}

__always_inline static void arch_ioport_set_port_mode(ioport_port_t port,
		ioport_port_mask_t mask, ioport_mode_t mode)
{
	Pio *base = arch_ioport_port_to_base(port);
  401902:	60fb      	str	r3, [r7, #12]

	if (mode & IOPORT_MODE_PULLUP) {
  401904:	697b      	ldr	r3, [r7, #20]
  401906:	f003 0308 	and.w	r3, r3, #8
  40190a:	2b00      	cmp	r3, #0
  40190c:	d003      	beq.n	401916 <ioport_set_pin_mode+0x52>
		base->PIO_PUER = mask;
  40190e:	68fb      	ldr	r3, [r7, #12]
  401910:	69ba      	ldr	r2, [r7, #24]
  401912:	665a      	str	r2, [r3, #100]	; 0x64
  401914:	e002      	b.n	40191c <ioport_set_pin_mode+0x58>
	} else {
		base->PIO_PUDR = mask;
  401916:	68fb      	ldr	r3, [r7, #12]
  401918:	69ba      	ldr	r2, [r7, #24]
  40191a:	661a      	str	r2, [r3, #96]	; 0x60
	}

#if defined(IOPORT_MODE_PULLDOWN)
	if (mode & IOPORT_MODE_PULLDOWN) {
  40191c:	697b      	ldr	r3, [r7, #20]
  40191e:	f003 0310 	and.w	r3, r3, #16
  401922:	2b00      	cmp	r3, #0
  401924:	d004      	beq.n	401930 <ioport_set_pin_mode+0x6c>
		base->PIO_PPDER = mask;
  401926:	68fb      	ldr	r3, [r7, #12]
  401928:	69ba      	ldr	r2, [r7, #24]
  40192a:	f8c3 2094 	str.w	r2, [r3, #148]	; 0x94
  40192e:	e003      	b.n	401938 <ioport_set_pin_mode+0x74>
	} else {
		base->PIO_PPDDR = mask;
  401930:	68fb      	ldr	r3, [r7, #12]
  401932:	69ba      	ldr	r2, [r7, #24]
  401934:	f8c3 2090 	str.w	r2, [r3, #144]	; 0x90
	}
#endif

	if (mode & IOPORT_MODE_OPEN_DRAIN) {
  401938:	697b      	ldr	r3, [r7, #20]
  40193a:	f003 0320 	and.w	r3, r3, #32
  40193e:	2b00      	cmp	r3, #0
  401940:	d003      	beq.n	40194a <ioport_set_pin_mode+0x86>
		base->PIO_MDER = mask;
  401942:	68fb      	ldr	r3, [r7, #12]
  401944:	69ba      	ldr	r2, [r7, #24]
  401946:	651a      	str	r2, [r3, #80]	; 0x50
  401948:	e002      	b.n	401950 <ioport_set_pin_mode+0x8c>
	} else {
		base->PIO_MDDR = mask;
  40194a:	68fb      	ldr	r3, [r7, #12]
  40194c:	69ba      	ldr	r2, [r7, #24]
  40194e:	655a      	str	r2, [r3, #84]	; 0x54
	}

	if (mode & (IOPORT_MODE_GLITCH_FILTER | IOPORT_MODE_DEBOUNCE)) {
  401950:	697b      	ldr	r3, [r7, #20]
  401952:	f003 03c0 	and.w	r3, r3, #192	; 0xc0
  401956:	2b00      	cmp	r3, #0
  401958:	d003      	beq.n	401962 <ioport_set_pin_mode+0x9e>
		base->PIO_IFER = mask;
  40195a:	68fb      	ldr	r3, [r7, #12]
  40195c:	69ba      	ldr	r2, [r7, #24]
  40195e:	621a      	str	r2, [r3, #32]
  401960:	e002      	b.n	401968 <ioport_set_pin_mode+0xa4>
	} else {
		base->PIO_IFDR = mask;
  401962:	68fb      	ldr	r3, [r7, #12]
  401964:	69ba      	ldr	r2, [r7, #24]
  401966:	625a      	str	r2, [r3, #36]	; 0x24
	}

	if (mode & IOPORT_MODE_DEBOUNCE) {
  401968:	697b      	ldr	r3, [r7, #20]
  40196a:	f003 0380 	and.w	r3, r3, #128	; 0x80
  40196e:	2b00      	cmp	r3, #0
  401970:	d004      	beq.n	40197c <ioport_set_pin_mode+0xb8>
#if SAM3U || SAM3XA
		base->PIO_DIFSR = mask;
#else
		base->PIO_IFSCER = mask;
  401972:	68fb      	ldr	r3, [r7, #12]
  401974:	69ba      	ldr	r2, [r7, #24]
  401976:	f8c3 2084 	str.w	r2, [r3, #132]	; 0x84
  40197a:	e003      	b.n	401984 <ioport_set_pin_mode+0xc0>
#endif
	} else {
#if SAM3U || SAM3XA
		base->PIO_SCIFSR = mask;
#else
		base->PIO_IFSCDR = mask;
  40197c:	68fb      	ldr	r3, [r7, #12]
  40197e:	69ba      	ldr	r2, [r7, #24]
  401980:	f8c3 2080 	str.w	r2, [r3, #128]	; 0x80
		base->PIO_ABSR |= mask;
	} else {
		base->PIO_ABSR &= ~mask;
	}
#else
	if (mode & IOPORT_MODE_MUX_BIT0) {
  401984:	697b      	ldr	r3, [r7, #20]
  401986:	f003 0301 	and.w	r3, r3, #1
  40198a:	2b00      	cmp	r3, #0
  40198c:	d006      	beq.n	40199c <ioport_set_pin_mode+0xd8>
		base->PIO_ABCDSR[0] |= mask;
  40198e:	68fb      	ldr	r3, [r7, #12]
  401990:	6f1a      	ldr	r2, [r3, #112]	; 0x70
  401992:	69bb      	ldr	r3, [r7, #24]
  401994:	431a      	orrs	r2, r3
  401996:	68fb      	ldr	r3, [r7, #12]
  401998:	671a      	str	r2, [r3, #112]	; 0x70
  40199a:	e006      	b.n	4019aa <ioport_set_pin_mode+0xe6>
	} else {
		base->PIO_ABCDSR[0] &= ~mask;
  40199c:	68fb      	ldr	r3, [r7, #12]
  40199e:	6f1a      	ldr	r2, [r3, #112]	; 0x70
  4019a0:	69bb      	ldr	r3, [r7, #24]
  4019a2:	43db      	mvns	r3, r3
  4019a4:	401a      	ands	r2, r3
  4019a6:	68fb      	ldr	r3, [r7, #12]
  4019a8:	671a      	str	r2, [r3, #112]	; 0x70
	}

	if (mode & IOPORT_MODE_MUX_BIT1) {
  4019aa:	697b      	ldr	r3, [r7, #20]
  4019ac:	f003 0302 	and.w	r3, r3, #2
  4019b0:	2b00      	cmp	r3, #0
  4019b2:	d006      	beq.n	4019c2 <ioport_set_pin_mode+0xfe>
		base->PIO_ABCDSR[1] |= mask;
  4019b4:	68fb      	ldr	r3, [r7, #12]
  4019b6:	6f5a      	ldr	r2, [r3, #116]	; 0x74
  4019b8:	69bb      	ldr	r3, [r7, #24]
  4019ba:	431a      	orrs	r2, r3
  4019bc:	68fb      	ldr	r3, [r7, #12]
  4019be:	675a      	str	r2, [r3, #116]	; 0x74
	arch_ioport_set_pin_mode(pin, mode);
}
  4019c0:	e006      	b.n	4019d0 <ioport_set_pin_mode+0x10c>
	} else {
		base->PIO_ABCDSR[1] &= ~mask;
  4019c2:	68fb      	ldr	r3, [r7, #12]
  4019c4:	6f5a      	ldr	r2, [r3, #116]	; 0x74
  4019c6:	69bb      	ldr	r3, [r7, #24]
  4019c8:	43db      	mvns	r3, r3
  4019ca:	401a      	ands	r2, r3
  4019cc:	68fb      	ldr	r3, [r7, #12]
  4019ce:	675a      	str	r2, [r3, #116]	; 0x74
  4019d0:	bf00      	nop
  4019d2:	3734      	adds	r7, #52	; 0x34
  4019d4:	46bd      	mov	sp, r7
  4019d6:	f85d 7b04 	ldr.w	r7, [sp], #4
  4019da:	4770      	bx	lr
  4019dc:	00200707 	.word	0x00200707

004019e0 <ioport_set_pin_dir>:
 * \param pin IOPORT pin to configure
 * \param dir Direction to set for the specified pin (\ref ioport_direction)
 */
static inline void ioport_set_pin_dir(ioport_pin_t pin,
		enum ioport_direction dir)
{
  4019e0:	b480      	push	{r7}
  4019e2:	b08d      	sub	sp, #52	; 0x34
  4019e4:	af00      	add	r7, sp, #0
  4019e6:	6078      	str	r0, [r7, #4]
  4019e8:	460b      	mov	r3, r1
  4019ea:	70fb      	strb	r3, [r7, #3]
  4019ec:	687b      	ldr	r3, [r7, #4]
  4019ee:	62fb      	str	r3, [r7, #44]	; 0x2c
  4019f0:	78fb      	ldrb	r3, [r7, #3]
  4019f2:	f887 302b 	strb.w	r3, [r7, #43]	; 0x2b
  4019f6:	6afb      	ldr	r3, [r7, #44]	; 0x2c
  4019f8:	627b      	str	r3, [r7, #36]	; 0x24
  4019fa:	6a7b      	ldr	r3, [r7, #36]	; 0x24
  4019fc:	623b      	str	r3, [r7, #32]
	return pin >> 5;
  4019fe:	6a3b      	ldr	r3, [r7, #32]
  401a00:	095b      	lsrs	r3, r3, #5
  401a02:	61fb      	str	r3, [r7, #28]
	return (Pio *)((uintptr_t)IOPORT_BASE_ADDRESS +
  401a04:	69fa      	ldr	r2, [r7, #28]
  401a06:	4b17      	ldr	r3, [pc, #92]	; (401a64 <ioport_set_pin_dir+0x84>)
  401a08:	4413      	add	r3, r2
  401a0a:	025b      	lsls	r3, r3, #9
}

__always_inline static void arch_ioport_set_pin_dir(ioport_pin_t pin,
		enum ioport_direction dir)
{
	Pio *base = arch_ioport_pin_to_base(pin);
  401a0c:	61bb      	str	r3, [r7, #24]

	if (dir == IOPORT_DIR_OUTPUT) {
  401a0e:	f897 302b 	ldrb.w	r3, [r7, #43]	; 0x2b
  401a12:	2b01      	cmp	r3, #1
  401a14:	d109      	bne.n	401a2a <ioport_set_pin_dir+0x4a>
  401a16:	6afb      	ldr	r3, [r7, #44]	; 0x2c
  401a18:	617b      	str	r3, [r7, #20]
	return 1U << (pin & 0x1F);
  401a1a:	697b      	ldr	r3, [r7, #20]
  401a1c:	f003 031f 	and.w	r3, r3, #31
  401a20:	2201      	movs	r2, #1
  401a22:	409a      	lsls	r2, r3
		base->PIO_OER = arch_ioport_pin_to_mask(pin);
  401a24:	69bb      	ldr	r3, [r7, #24]
  401a26:	611a      	str	r2, [r3, #16]
  401a28:	e00c      	b.n	401a44 <ioport_set_pin_dir+0x64>
	} else if (dir == IOPORT_DIR_INPUT) {
  401a2a:	f897 302b 	ldrb.w	r3, [r7, #43]	; 0x2b
  401a2e:	2b00      	cmp	r3, #0
  401a30:	d108      	bne.n	401a44 <ioport_set_pin_dir+0x64>
  401a32:	6afb      	ldr	r3, [r7, #44]	; 0x2c
  401a34:	613b      	str	r3, [r7, #16]
	return 1U << (pin & 0x1F);
  401a36:	693b      	ldr	r3, [r7, #16]
  401a38:	f003 031f 	and.w	r3, r3, #31
  401a3c:	2201      	movs	r2, #1
  401a3e:	409a      	lsls	r2, r3
		base->PIO_ODR = arch_ioport_pin_to_mask(pin);
  401a40:	69bb      	ldr	r3, [r7, #24]
  401a42:	615a      	str	r2, [r3, #20]
  401a44:	6afb      	ldr	r3, [r7, #44]	; 0x2c
  401a46:	60fb      	str	r3, [r7, #12]
	return 1U << (pin & 0x1F);
  401a48:	68fb      	ldr	r3, [r7, #12]
  401a4a:	f003 031f 	and.w	r3, r3, #31
  401a4e:	2201      	movs	r2, #1
  401a50:	409a      	lsls	r2, r3
	}

	base->PIO_OWER = arch_ioport_pin_to_mask(pin);
  401a52:	69bb      	ldr	r3, [r7, #24]
  401a54:	f8c3 20a0 	str.w	r2, [r3, #160]	; 0xa0
	arch_ioport_set_pin_dir(pin, dir);
}
  401a58:	bf00      	nop
  401a5a:	3734      	adds	r7, #52	; 0x34
  401a5c:	46bd      	mov	sp, r7
  401a5e:	f85d 7b04 	ldr.w	r7, [sp], #4
  401a62:	4770      	bx	lr
  401a64:	00200707 	.word	0x00200707

00401a68 <ioport_set_pin_level>:
 *
 * \param pin IOPORT pin to configure
 * \param level Logical value of the pin
 */
static inline void ioport_set_pin_level(ioport_pin_t pin, bool level)
{
  401a68:	b480      	push	{r7}
  401a6a:	b08b      	sub	sp, #44	; 0x2c
  401a6c:	af00      	add	r7, sp, #0
  401a6e:	6078      	str	r0, [r7, #4]
  401a70:	460b      	mov	r3, r1
  401a72:	70fb      	strb	r3, [r7, #3]
  401a74:	687b      	ldr	r3, [r7, #4]
  401a76:	627b      	str	r3, [r7, #36]	; 0x24
  401a78:	78fb      	ldrb	r3, [r7, #3]
  401a7a:	f887 3023 	strb.w	r3, [r7, #35]	; 0x23
  401a7e:	6a7b      	ldr	r3, [r7, #36]	; 0x24
  401a80:	61fb      	str	r3, [r7, #28]
  401a82:	69fb      	ldr	r3, [r7, #28]
  401a84:	61bb      	str	r3, [r7, #24]
	return pin >> 5;
  401a86:	69bb      	ldr	r3, [r7, #24]
  401a88:	095b      	lsrs	r3, r3, #5
  401a8a:	617b      	str	r3, [r7, #20]
	return (Pio *)((uintptr_t)IOPORT_BASE_ADDRESS +
  401a8c:	697a      	ldr	r2, [r7, #20]
  401a8e:	4b10      	ldr	r3, [pc, #64]	; (401ad0 <ioport_set_pin_level+0x68>)
  401a90:	4413      	add	r3, r2
  401a92:	025b      	lsls	r3, r3, #9
}

__always_inline static void arch_ioport_set_pin_level(ioport_pin_t pin,
		bool level)
{
	Pio *base = arch_ioport_pin_to_base(pin);
  401a94:	613b      	str	r3, [r7, #16]

	if (level) {
  401a96:	f897 3023 	ldrb.w	r3, [r7, #35]	; 0x23
  401a9a:	2b00      	cmp	r3, #0
  401a9c:	d009      	beq.n	401ab2 <ioport_set_pin_level+0x4a>
  401a9e:	6a7b      	ldr	r3, [r7, #36]	; 0x24
  401aa0:	60fb      	str	r3, [r7, #12]
	return 1U << (pin & 0x1F);
  401aa2:	68fb      	ldr	r3, [r7, #12]
  401aa4:	f003 031f 	and.w	r3, r3, #31
  401aa8:	2201      	movs	r2, #1
  401aaa:	409a      	lsls	r2, r3
		base->PIO_SODR = arch_ioport_pin_to_mask(pin);
  401aac:	693b      	ldr	r3, [r7, #16]
  401aae:	631a      	str	r2, [r3, #48]	; 0x30
	arch_ioport_set_pin_level(pin, level);
}
  401ab0:	e008      	b.n	401ac4 <ioport_set_pin_level+0x5c>
  401ab2:	6a7b      	ldr	r3, [r7, #36]	; 0x24
  401ab4:	60bb      	str	r3, [r7, #8]
	return 1U << (pin & 0x1F);
  401ab6:	68bb      	ldr	r3, [r7, #8]
  401ab8:	f003 031f 	and.w	r3, r3, #31
  401abc:	2201      	movs	r2, #1
  401abe:	409a      	lsls	r2, r3
	} else {
		base->PIO_CODR = arch_ioport_pin_to_mask(pin);
  401ac0:	693b      	ldr	r3, [r7, #16]
  401ac2:	635a      	str	r2, [r3, #52]	; 0x34
  401ac4:	bf00      	nop
  401ac6:	372c      	adds	r7, #44	; 0x2c
  401ac8:	46bd      	mov	sp, r7
  401aca:	f85d 7b04 	ldr.w	r7, [sp], #4
  401ace:	4770      	bx	lr
  401ad0:	00200707 	.word	0x00200707

00401ad4 <ioport_set_pin_sense_mode>:
 * \param pin IOPORT pin to configure
 * \param pin_sense Edge to sense for the pin (\ref ioport_sense)
 */
static inline void ioport_set_pin_sense_mode(ioport_pin_t pin,
		enum ioport_sense pin_sense)
{
  401ad4:	b480      	push	{r7}
  401ad6:	b08d      	sub	sp, #52	; 0x34
  401ad8:	af00      	add	r7, sp, #0
  401ada:	6078      	str	r0, [r7, #4]
  401adc:	460b      	mov	r3, r1
  401ade:	70fb      	strb	r3, [r7, #3]
  401ae0:	687b      	ldr	r3, [r7, #4]
  401ae2:	62fb      	str	r3, [r7, #44]	; 0x2c
  401ae4:	78fb      	ldrb	r3, [r7, #3]
  401ae6:	f887 302b 	strb.w	r3, [r7, #43]	; 0x2b
  401aea:	6afb      	ldr	r3, [r7, #44]	; 0x2c
  401aec:	627b      	str	r3, [r7, #36]	; 0x24
	return pin >> 5;
  401aee:	6a7b      	ldr	r3, [r7, #36]	; 0x24
  401af0:	095a      	lsrs	r2, r3, #5
  401af2:	6afb      	ldr	r3, [r7, #44]	; 0x2c
  401af4:	623b      	str	r3, [r7, #32]
	return 1U << (pin & 0x1F);
  401af6:	6a3b      	ldr	r3, [r7, #32]
  401af8:	f003 031f 	and.w	r3, r3, #31
  401afc:	2101      	movs	r1, #1
  401afe:	fa01 f303 	lsl.w	r3, r1, r3
  401b02:	61fa      	str	r2, [r7, #28]
  401b04:	61bb      	str	r3, [r7, #24]
  401b06:	f897 302b 	ldrb.w	r3, [r7, #43]	; 0x2b
  401b0a:	75fb      	strb	r3, [r7, #23]
  401b0c:	69fb      	ldr	r3, [r7, #28]
  401b0e:	613b      	str	r3, [r7, #16]
	return (Pio *)((uintptr_t)IOPORT_BASE_ADDRESS +
  401b10:	693a      	ldr	r2, [r7, #16]
  401b12:	4b23      	ldr	r3, [pc, #140]	; (401ba0 <ioport_set_pin_sense_mode+0xcc>)
  401b14:	4413      	add	r3, r2
  401b16:	025b      	lsls	r3, r3, #9
}

__always_inline static void arch_ioport_set_port_sense_mode(ioport_port_t port,
		ioport_port_mask_t mask, enum ioport_sense pin_sense)
{
	Pio *base = arch_ioport_port_to_base(port);
  401b18:	60fb      	str	r3, [r7, #12]
	 *       1       0         0    IOPORT_SENSE_FALLING
	 *       1       0         1    IOPORT_SENSE_RISING
	 *       1       1         0    IOPORT_SENSE_LEVEL_LOW
	 *       1       1         1    IOPORT_SENSE_LEVEL_HIGH
	 */
	switch(pin_sense) {
  401b1a:	7dfb      	ldrb	r3, [r7, #23]
  401b1c:	3b01      	subs	r3, #1
  401b1e:	2b03      	cmp	r3, #3
  401b20:	d82e      	bhi.n	401b80 <ioport_set_pin_sense_mode+0xac>
  401b22:	a201      	add	r2, pc, #4	; (adr r2, 401b28 <ioport_set_pin_sense_mode+0x54>)
  401b24:	f852 f023 	ldr.w	pc, [r2, r3, lsl #2]
  401b28:	00401b5d 	.word	0x00401b5d
  401b2c:	00401b6f 	.word	0x00401b6f
  401b30:	00401b39 	.word	0x00401b39
  401b34:	00401b4b 	.word	0x00401b4b
	case IOPORT_SENSE_LEVEL_LOW:
		base->PIO_LSR = mask;
  401b38:	68fb      	ldr	r3, [r7, #12]
  401b3a:	69ba      	ldr	r2, [r7, #24]
  401b3c:	f8c3 20c4 	str.w	r2, [r3, #196]	; 0xc4
		base->PIO_FELLSR = mask;
  401b40:	68fb      	ldr	r3, [r7, #12]
  401b42:	69ba      	ldr	r2, [r7, #24]
  401b44:	f8c3 20d0 	str.w	r2, [r3, #208]	; 0xd0
  401b48:	e01f      	b.n	401b8a <ioport_set_pin_sense_mode+0xb6>
		break;
	case IOPORT_SENSE_LEVEL_HIGH:
		base->PIO_LSR = mask;
  401b4a:	68fb      	ldr	r3, [r7, #12]
  401b4c:	69ba      	ldr	r2, [r7, #24]
  401b4e:	f8c3 20c4 	str.w	r2, [r3, #196]	; 0xc4
		base->PIO_REHLSR = mask;
  401b52:	68fb      	ldr	r3, [r7, #12]
  401b54:	69ba      	ldr	r2, [r7, #24]
  401b56:	f8c3 20d4 	str.w	r2, [r3, #212]	; 0xd4
  401b5a:	e016      	b.n	401b8a <ioport_set_pin_sense_mode+0xb6>
		break;
	case IOPORT_SENSE_FALLING:
		base->PIO_ESR = mask;
  401b5c:	68fb      	ldr	r3, [r7, #12]
  401b5e:	69ba      	ldr	r2, [r7, #24]
  401b60:	f8c3 20c0 	str.w	r2, [r3, #192]	; 0xc0
		base->PIO_FELLSR = mask;
  401b64:	68fb      	ldr	r3, [r7, #12]
  401b66:	69ba      	ldr	r2, [r7, #24]
  401b68:	f8c3 20d0 	str.w	r2, [r3, #208]	; 0xd0
  401b6c:	e00d      	b.n	401b8a <ioport_set_pin_sense_mode+0xb6>
		break;
	case IOPORT_SENSE_RISING:
		base->PIO_ESR = mask;
  401b6e:	68fb      	ldr	r3, [r7, #12]
  401b70:	69ba      	ldr	r2, [r7, #24]
  401b72:	f8c3 20c0 	str.w	r2, [r3, #192]	; 0xc0
		base->PIO_REHLSR = mask;
  401b76:	68fb      	ldr	r3, [r7, #12]
  401b78:	69ba      	ldr	r2, [r7, #24]
  401b7a:	f8c3 20d4 	str.w	r2, [r3, #212]	; 0xd4
  401b7e:	e004      	b.n	401b8a <ioport_set_pin_sense_mode+0xb6>
		break;
	default:
		base->PIO_AIMDR = mask;
  401b80:	68fb      	ldr	r3, [r7, #12]
  401b82:	69ba      	ldr	r2, [r7, #24]
  401b84:	f8c3 20b4 	str.w	r2, [r3, #180]	; 0xb4
	arch_ioport_set_pin_sense_mode(pin, pin_sense);
}
  401b88:	e003      	b.n	401b92 <ioport_set_pin_sense_mode+0xbe>
		return;
	}
	base->PIO_AIMER = mask;
  401b8a:	68fb      	ldr	r3, [r7, #12]
  401b8c:	69ba      	ldr	r2, [r7, #24]
  401b8e:	f8c3 20b0 	str.w	r2, [r3, #176]	; 0xb0
  401b92:	bf00      	nop
  401b94:	3734      	adds	r7, #52	; 0x34
  401b96:	46bd      	mov	sp, r7
  401b98:	f85d 7b04 	ldr.w	r7, [sp], #4
  401b9c:	4770      	bx	lr
  401b9e:	bf00      	nop
  401ba0:	00200707 	.word	0x00200707

00401ba4 <tcm_disable>:
/** \brief  TCM memory Disable

	The function enables TCM memories
 */
static inline void tcm_disable(void) 
{
  401ba4:	b480      	push	{r7}
  401ba6:	af00      	add	r7, sp, #0
    This function acts as a special kind of Data Memory Barrier.
    It completes when all explicit memory accesses before this instruction complete.
 */
__attribute__( ( always_inline ) ) __STATIC_INLINE void __DSB(void)
{
  __ASM volatile ("dsb");
  401ba8:	f3bf 8f4f 	dsb	sy
  __ASM volatile ("isb");
  401bac:	f3bf 8f6f 	isb	sy

	__DSB();
	__ISB();
	SCB->ITCMCR &= ~(uint32_t)(1UL);
  401bb0:	4a0c      	ldr	r2, [pc, #48]	; (401be4 <tcm_disable+0x40>)
  401bb2:	4b0c      	ldr	r3, [pc, #48]	; (401be4 <tcm_disable+0x40>)
  401bb4:	f8d3 3290 	ldr.w	r3, [r3, #656]	; 0x290
  401bb8:	f023 0301 	bic.w	r3, r3, #1
  401bbc:	f8c2 3290 	str.w	r3, [r2, #656]	; 0x290
	SCB->DTCMCR &= ~(uint32_t)SCB_DTCMCR_EN_Msk;
  401bc0:	4a08      	ldr	r2, [pc, #32]	; (401be4 <tcm_disable+0x40>)
  401bc2:	4b08      	ldr	r3, [pc, #32]	; (401be4 <tcm_disable+0x40>)
  401bc4:	f8d3 3294 	ldr.w	r3, [r3, #660]	; 0x294
  401bc8:	f023 0301 	bic.w	r3, r3, #1
  401bcc:	f8c2 3294 	str.w	r3, [r2, #660]	; 0x294
  __ASM volatile ("dsb");
  401bd0:	f3bf 8f4f 	dsb	sy
  __ASM volatile ("isb");
  401bd4:	f3bf 8f6f 	isb	sy
	__DSB();
	__ISB();
}
  401bd8:	bf00      	nop
  401bda:	46bd      	mov	sp, r7
  401bdc:	f85d 7b04 	ldr.w	r7, [sp], #4
  401be0:	4770      	bx	lr
  401be2:	bf00      	nop
  401be4:	e000ed00 	.word	0xe000ed00

00401be8 <board_init>:
#endif

void board_init(void)
{
  401be8:	b580      	push	{r7, lr}
  401bea:	af00      	add	r7, sp, #0
#ifndef CONF_BOARD_KEEP_WATCHDOG_AT_INIT
	/* Disable the watchdog */
	WDT->WDT_MR = WDT_MR_WDDIS;
  401bec:	4b1c      	ldr	r3, [pc, #112]	; (401c60 <board_init+0x78>)
  401bee:	f44f 4200 	mov.w	r2, #32768	; 0x8000
  401bf2:	605a      	str	r2, [r3, #4]
		*dst++ = *src++;
	}
#endif
#else
	/* TCM Configuration */
	EFC->EEFC_FCR = (EEFC_FCR_FKEY_PASSWD | EEFC_FCR_FCMD_CGPB 
  401bf4:	4b1b      	ldr	r3, [pc, #108]	; (401c64 <board_init+0x7c>)
  401bf6:	4a1c      	ldr	r2, [pc, #112]	; (401c68 <board_init+0x80>)
  401bf8:	605a      	str	r2, [r3, #4]
					| EEFC_FCR_FARG(8));
	EFC->EEFC_FCR = (EEFC_FCR_FKEY_PASSWD | EEFC_FCR_FCMD_CGPB 
  401bfa:	4b1a      	ldr	r3, [pc, #104]	; (401c64 <board_init+0x7c>)
  401bfc:	4a1b      	ldr	r2, [pc, #108]	; (401c6c <board_init+0x84>)
  401bfe:	605a      	str	r2, [r3, #4]
					| EEFC_FCR_FARG(7));
	
	tcm_disable();
  401c00:	4b1b      	ldr	r3, [pc, #108]	; (401c70 <board_init+0x88>)
  401c02:	4798      	blx	r3
#endif

	/* Initialize IOPORTs */
	ioport_init();
  401c04:	4b1b      	ldr	r3, [pc, #108]	; (401c74 <board_init+0x8c>)
  401c06:	4798      	blx	r3

	/* Configure the pins connected to LED as output and set their
	 * default initial state to high (LED off).
	 */
	ioport_set_pin_dir(LED0_GPIO, IOPORT_DIR_OUTPUT);
  401c08:	2101      	movs	r1, #1
  401c0a:	2048      	movs	r0, #72	; 0x48
  401c0c:	4b1a      	ldr	r3, [pc, #104]	; (401c78 <board_init+0x90>)
  401c0e:	4798      	blx	r3
	ioport_set_pin_level(LED0_GPIO, LED0_INACTIVE_LEVEL);
  401c10:	2101      	movs	r1, #1
  401c12:	2048      	movs	r0, #72	; 0x48
  401c14:	4b19      	ldr	r3, [pc, #100]	; (401c7c <board_init+0x94>)
  401c16:	4798      	blx	r3

	/* Configure Push Button pins */
	ioport_set_pin_input_mode(GPIO_PUSH_BUTTON_1, GPIO_PUSH_BUTTON_1_FLAGS,
  401c18:	2100      	movs	r1, #0
  401c1a:	200b      	movs	r0, #11
  401c1c:	4b16      	ldr	r3, [pc, #88]	; (401c78 <board_init+0x90>)
  401c1e:	4798      	blx	r3
  401c20:	2188      	movs	r1, #136	; 0x88
  401c22:	200b      	movs	r0, #11
  401c24:	4b16      	ldr	r3, [pc, #88]	; (401c80 <board_init+0x98>)
  401c26:	4798      	blx	r3
  401c28:	2102      	movs	r1, #2
  401c2a:	200b      	movs	r0, #11
  401c2c:	4b15      	ldr	r3, [pc, #84]	; (401c84 <board_init+0x9c>)
  401c2e:	4798      	blx	r3
			GPIO_PUSH_BUTTON_1_SENSE);

#ifdef CONF_BOARD_UART_CONSOLE
	/* Configure UART pins */
	ioport_set_pin_peripheral_mode(USART1_RXD_GPIO, USART1_RXD_FLAGS);
  401c30:	2100      	movs	r1, #0
  401c32:	2015      	movs	r0, #21
  401c34:	4b12      	ldr	r3, [pc, #72]	; (401c80 <board_init+0x98>)
  401c36:	4798      	blx	r3
  401c38:	2015      	movs	r0, #21
  401c3a:	4b13      	ldr	r3, [pc, #76]	; (401c88 <board_init+0xa0>)
  401c3c:	4798      	blx	r3
	MATRIX->CCFG_SYSIO |= CCFG_SYSIO_SYSIO4;
  401c3e:	4a13      	ldr	r2, [pc, #76]	; (401c8c <board_init+0xa4>)
  401c40:	4b12      	ldr	r3, [pc, #72]	; (401c8c <board_init+0xa4>)
  401c42:	f8d3 3114 	ldr.w	r3, [r3, #276]	; 0x114
  401c46:	f043 0310 	orr.w	r3, r3, #16
  401c4a:	f8c2 3114 	str.w	r3, [r2, #276]	; 0x114
	ioport_set_pin_peripheral_mode(USART1_TXD_GPIO, USART1_TXD_FLAGS);
  401c4e:	2103      	movs	r1, #3
  401c50:	2024      	movs	r0, #36	; 0x24
  401c52:	4b0b      	ldr	r3, [pc, #44]	; (401c80 <board_init+0x98>)
  401c54:	4798      	blx	r3
  401c56:	2024      	movs	r0, #36	; 0x24
  401c58:	4b0b      	ldr	r3, [pc, #44]	; (401c88 <board_init+0xa0>)
  401c5a:	4798      	blx	r3
	pio_configure_pin(LCD_SPI_CDS_PIO, LCD_SPI_CDS_FLAGS);
	pio_configure_pin(LCD_SPI_BACKLIGHT_PIO, LCD_SPI_BACKLIGHT_FLAGS);
	pio_set_pin_high(LCD_SPI_BACKLIGHT_PIO);

#endif
}
  401c5c:	bf00      	nop
  401c5e:	bd80      	pop	{r7, pc}
  401c60:	400e1850 	.word	0x400e1850
  401c64:	400e0c00 	.word	0x400e0c00
  401c68:	5a00080c 	.word	0x5a00080c
  401c6c:	5a00070c 	.word	0x5a00070c
  401c70:	00401ba5 	.word	0x00401ba5
  401c74:	0040184d 	.word	0x0040184d
  401c78:	004019e1 	.word	0x004019e1
  401c7c:	00401a69 	.word	0x00401a69
  401c80:	004018c5 	.word	0x004018c5
  401c84:	00401ad5 	.word	0x00401ad5
  401c88:	00401879 	.word	0x00401879
  401c8c:	40088000 	.word	0x40088000

00401c90 <pio_pull_up>:
 * \param ul_pull_up_enable Indicates if the pin(s) internal pull-up shall be
 * configured.
 */
void pio_pull_up(Pio *p_pio, const uint32_t ul_mask,
		const uint32_t ul_pull_up_enable)
{
  401c90:	b480      	push	{r7}
  401c92:	b085      	sub	sp, #20
  401c94:	af00      	add	r7, sp, #0
  401c96:	60f8      	str	r0, [r7, #12]
  401c98:	60b9      	str	r1, [r7, #8]
  401c9a:	607a      	str	r2, [r7, #4]
	/* Enable the pull-up(s) if necessary */
	if (ul_pull_up_enable) {
  401c9c:	687b      	ldr	r3, [r7, #4]
  401c9e:	2b00      	cmp	r3, #0
  401ca0:	d003      	beq.n	401caa <pio_pull_up+0x1a>
		p_pio->PIO_PUER = ul_mask;
  401ca2:	68fb      	ldr	r3, [r7, #12]
  401ca4:	68ba      	ldr	r2, [r7, #8]
  401ca6:	665a      	str	r2, [r3, #100]	; 0x64
	} else {
		p_pio->PIO_PUDR = ul_mask;
	}
}
  401ca8:	e002      	b.n	401cb0 <pio_pull_up+0x20>
		p_pio->PIO_PUDR = ul_mask;
  401caa:	68fb      	ldr	r3, [r7, #12]
  401cac:	68ba      	ldr	r2, [r7, #8]
  401cae:	661a      	str	r2, [r3, #96]	; 0x60
}
  401cb0:	bf00      	nop
  401cb2:	3714      	adds	r7, #20
  401cb4:	46bd      	mov	sp, r7
  401cb6:	f85d 7b04 	ldr.w	r7, [sp], #4
  401cba:	4770      	bx	lr

00401cbc <pio_set_input>:
 * \param ul_mask Bitmask indicating which pin(s) to configure as input(s).
 * \param ul_attribute PIO attribute(s).
 */
void pio_set_input(Pio *p_pio, const uint32_t ul_mask,
		const uint32_t ul_attribute)
{
  401cbc:	b580      	push	{r7, lr}
  401cbe:	b084      	sub	sp, #16
  401cc0:	af00      	add	r7, sp, #0
  401cc2:	60f8      	str	r0, [r7, #12]
  401cc4:	60b9      	str	r1, [r7, #8]
  401cc6:	607a      	str	r2, [r7, #4]
	pio_disable_interrupt(p_pio, ul_mask);
  401cc8:	68b9      	ldr	r1, [r7, #8]
  401cca:	68f8      	ldr	r0, [r7, #12]
  401ccc:	4b19      	ldr	r3, [pc, #100]	; (401d34 <pio_set_input+0x78>)
  401cce:	4798      	blx	r3
	pio_pull_up(p_pio, ul_mask, ul_attribute & PIO_PULLUP);
  401cd0:	687b      	ldr	r3, [r7, #4]
  401cd2:	f003 0301 	and.w	r3, r3, #1
  401cd6:	461a      	mov	r2, r3
  401cd8:	68b9      	ldr	r1, [r7, #8]
  401cda:	68f8      	ldr	r0, [r7, #12]
  401cdc:	4b16      	ldr	r3, [pc, #88]	; (401d38 <pio_set_input+0x7c>)
  401cde:	4798      	blx	r3

	/* Enable Input Filter if necessary */
	if (ul_attribute & (PIO_DEGLITCH | PIO_DEBOUNCE)) {
  401ce0:	687b      	ldr	r3, [r7, #4]
  401ce2:	f003 030a 	and.w	r3, r3, #10
  401ce6:	2b00      	cmp	r3, #0
  401ce8:	d003      	beq.n	401cf2 <pio_set_input+0x36>
		p_pio->PIO_IFER = ul_mask;
  401cea:	68fb      	ldr	r3, [r7, #12]
  401cec:	68ba      	ldr	r2, [r7, #8]
  401cee:	621a      	str	r2, [r3, #32]
  401cf0:	e002      	b.n	401cf8 <pio_set_input+0x3c>
	} else {
		p_pio->PIO_IFDR = ul_mask;
  401cf2:	68fb      	ldr	r3, [r7, #12]
  401cf4:	68ba      	ldr	r2, [r7, #8]
  401cf6:	625a      	str	r2, [r3, #36]	; 0x24
	}

#if (SAM3S || SAM3N || SAM4S || SAM4E || SAM4N || SAM4C || SAMG || SAM4CP || SAM4CM || SAMV71 || SAMV70 || SAME70 || SAMS70)
	/* Enable de-glitch or de-bounce if necessary */
	if (ul_attribute & PIO_DEGLITCH) {
  401cf8:	687b      	ldr	r3, [r7, #4]
  401cfa:	f003 0302 	and.w	r3, r3, #2
  401cfe:	2b00      	cmp	r3, #0
  401d00:	d004      	beq.n	401d0c <pio_set_input+0x50>
		p_pio->PIO_IFSCDR = ul_mask;
  401d02:	68fb      	ldr	r3, [r7, #12]
  401d04:	68ba      	ldr	r2, [r7, #8]
  401d06:	f8c3 2080 	str.w	r2, [r3, #128]	; 0x80
  401d0a:	e008      	b.n	401d1e <pio_set_input+0x62>
	} else {
		if (ul_attribute & PIO_DEBOUNCE) {
  401d0c:	687b      	ldr	r3, [r7, #4]
  401d0e:	f003 0308 	and.w	r3, r3, #8
  401d12:	2b00      	cmp	r3, #0
  401d14:	d003      	beq.n	401d1e <pio_set_input+0x62>
			p_pio->PIO_IFSCER = ul_mask;
  401d16:	68fb      	ldr	r3, [r7, #12]
  401d18:	68ba      	ldr	r2, [r7, #8]
  401d1a:	f8c3 2084 	str.w	r2, [r3, #132]	; 0x84
#else
#error "Unsupported device"
#endif

	/* Configure pin as input */
	p_pio->PIO_ODR = ul_mask;
  401d1e:	68fb      	ldr	r3, [r7, #12]
  401d20:	68ba      	ldr	r2, [r7, #8]
  401d22:	615a      	str	r2, [r3, #20]
	p_pio->PIO_PER = ul_mask;
  401d24:	68fb      	ldr	r3, [r7, #12]
  401d26:	68ba      	ldr	r2, [r7, #8]
  401d28:	601a      	str	r2, [r3, #0]
}
  401d2a:	bf00      	nop
  401d2c:	3710      	adds	r7, #16
  401d2e:	46bd      	mov	sp, r7
  401d30:	bd80      	pop	{r7, pc}
  401d32:	bf00      	nop
  401d34:	00401dc5 	.word	0x00401dc5
  401d38:	00401c91 	.word	0x00401c91

00401d3c <pio_configure_interrupt>:
 * \param ul_mask Interrupt source bit map.
 * \param ul_attr Interrupt source attributes.
 */
void pio_configure_interrupt(Pio *p_pio, const uint32_t ul_mask,
		const uint32_t ul_attr)
{
  401d3c:	b480      	push	{r7}
  401d3e:	b085      	sub	sp, #20
  401d40:	af00      	add	r7, sp, #0
  401d42:	60f8      	str	r0, [r7, #12]
  401d44:	60b9      	str	r1, [r7, #8]
  401d46:	607a      	str	r2, [r7, #4]
	/* Configure additional interrupt mode registers. */
	if (ul_attr & PIO_IT_AIME) {
  401d48:	687b      	ldr	r3, [r7, #4]
  401d4a:	f003 0310 	and.w	r3, r3, #16
  401d4e:	2b00      	cmp	r3, #0
  401d50:	d020      	beq.n	401d94 <pio_configure_interrupt+0x58>
		/* Enable additional interrupt mode. */
		p_pio->PIO_AIMER = ul_mask;
  401d52:	68fb      	ldr	r3, [r7, #12]
  401d54:	68ba      	ldr	r2, [r7, #8]
  401d56:	f8c3 20b0 	str.w	r2, [r3, #176]	; 0xb0

		/* If bit field of the selected pin is 1, set as
		   Rising Edge/High level detection event. */
		if (ul_attr & PIO_IT_RE_OR_HL) {
  401d5a:	687b      	ldr	r3, [r7, #4]
  401d5c:	f003 0320 	and.w	r3, r3, #32
  401d60:	2b00      	cmp	r3, #0
  401d62:	d004      	beq.n	401d6e <pio_configure_interrupt+0x32>
			/* Rising Edge or High Level */
			p_pio->PIO_REHLSR = ul_mask;
  401d64:	68fb      	ldr	r3, [r7, #12]
  401d66:	68ba      	ldr	r2, [r7, #8]
  401d68:	f8c3 20d4 	str.w	r2, [r3, #212]	; 0xd4
  401d6c:	e003      	b.n	401d76 <pio_configure_interrupt+0x3a>
		} else {
			/* Falling Edge or Low Level */
			p_pio->PIO_FELLSR = ul_mask;
  401d6e:	68fb      	ldr	r3, [r7, #12]
  401d70:	68ba      	ldr	r2, [r7, #8]
  401d72:	f8c3 20d0 	str.w	r2, [r3, #208]	; 0xd0
		}

		/* If bit field of the selected pin is 1, set as
		   edge detection source. */
		if (ul_attr & PIO_IT_EDGE) {
  401d76:	687b      	ldr	r3, [r7, #4]
  401d78:	f003 0340 	and.w	r3, r3, #64	; 0x40
  401d7c:	2b00      	cmp	r3, #0
  401d7e:	d004      	beq.n	401d8a <pio_configure_interrupt+0x4e>
			/* Edge select */
			p_pio->PIO_ESR = ul_mask;
  401d80:	68fb      	ldr	r3, [r7, #12]
  401d82:	68ba      	ldr	r2, [r7, #8]
  401d84:	f8c3 20c0 	str.w	r2, [r3, #192]	; 0xc0
		}
	} else {
		/* Disable additional interrupt mode. */
		p_pio->PIO_AIMDR = ul_mask;
	}
}
  401d88:	e008      	b.n	401d9c <pio_configure_interrupt+0x60>
			p_pio->PIO_LSR = ul_mask;
  401d8a:	68fb      	ldr	r3, [r7, #12]
  401d8c:	68ba      	ldr	r2, [r7, #8]
  401d8e:	f8c3 20c4 	str.w	r2, [r3, #196]	; 0xc4
}
  401d92:	e003      	b.n	401d9c <pio_configure_interrupt+0x60>
		p_pio->PIO_AIMDR = ul_mask;
  401d94:	68fb      	ldr	r3, [r7, #12]
  401d96:	68ba      	ldr	r2, [r7, #8]
  401d98:	f8c3 20b4 	str.w	r2, [r3, #180]	; 0xb4
}
  401d9c:	bf00      	nop
  401d9e:	3714      	adds	r7, #20
  401da0:	46bd      	mov	sp, r7
  401da2:	f85d 7b04 	ldr.w	r7, [sp], #4
  401da6:	4770      	bx	lr

00401da8 <pio_enable_interrupt>:
 *
 * \param p_pio Pointer to a PIO instance.
 * \param ul_mask Interrupt sources bit map.
 */
void pio_enable_interrupt(Pio *p_pio, const uint32_t ul_mask)
{
  401da8:	b480      	push	{r7}
  401daa:	b083      	sub	sp, #12
  401dac:	af00      	add	r7, sp, #0
  401dae:	6078      	str	r0, [r7, #4]
  401db0:	6039      	str	r1, [r7, #0]
	p_pio->PIO_IER = ul_mask;
  401db2:	687b      	ldr	r3, [r7, #4]
  401db4:	683a      	ldr	r2, [r7, #0]
  401db6:	641a      	str	r2, [r3, #64]	; 0x40
}
  401db8:	bf00      	nop
  401dba:	370c      	adds	r7, #12
  401dbc:	46bd      	mov	sp, r7
  401dbe:	f85d 7b04 	ldr.w	r7, [sp], #4
  401dc2:	4770      	bx	lr

00401dc4 <pio_disable_interrupt>:
 *
 * \param p_pio Pointer to a PIO instance.
 * \param ul_mask Interrupt sources bit map.
 */
void pio_disable_interrupt(Pio *p_pio, const uint32_t ul_mask)
{
  401dc4:	b480      	push	{r7}
  401dc6:	b083      	sub	sp, #12
  401dc8:	af00      	add	r7, sp, #0
  401dca:	6078      	str	r0, [r7, #4]
  401dcc:	6039      	str	r1, [r7, #0]
	p_pio->PIO_IDR = ul_mask;
  401dce:	687b      	ldr	r3, [r7, #4]
  401dd0:	683a      	ldr	r2, [r7, #0]
  401dd2:	645a      	str	r2, [r3, #68]	; 0x44
}
  401dd4:	bf00      	nop
  401dd6:	370c      	adds	r7, #12
  401dd8:	46bd      	mov	sp, r7
  401dda:	f85d 7b04 	ldr.w	r7, [sp], #4
  401dde:	4770      	bx	lr

00401de0 <pio_get_interrupt_status>:
 * \param p_pio Pointer to a PIO instance.
 *
 * \return The interrupt status value.
 */
uint32_t pio_get_interrupt_status(const Pio *p_pio)
{
  401de0:	b480      	push	{r7}
  401de2:	b083      	sub	sp, #12
  401de4:	af00      	add	r7, sp, #0
  401de6:	6078      	str	r0, [r7, #4]
	return p_pio->PIO_ISR;
  401de8:	687b      	ldr	r3, [r7, #4]
  401dea:	6cdb      	ldr	r3, [r3, #76]	; 0x4c
}
  401dec:	4618      	mov	r0, r3
  401dee:	370c      	adds	r7, #12
  401df0:	46bd      	mov	sp, r7
  401df2:	f85d 7b04 	ldr.w	r7, [sp], #4
  401df6:	4770      	bx	lr

00401df8 <pio_get_interrupt_mask>:
 * \param p_pio Pointer to a PIO instance.
 *
 * \return The interrupt mask value.
 */
uint32_t pio_get_interrupt_mask(const Pio *p_pio)
{
  401df8:	b480      	push	{r7}
  401dfa:	b083      	sub	sp, #12
  401dfc:	af00      	add	r7, sp, #0
  401dfe:	6078      	str	r0, [r7, #4]
	return p_pio->PIO_IMR;
  401e00:	687b      	ldr	r3, [r7, #4]
  401e02:	6c9b      	ldr	r3, [r3, #72]	; 0x48
}
  401e04:	4618      	mov	r0, r3
  401e06:	370c      	adds	r7, #12
  401e08:	46bd      	mov	sp, r7
  401e0a:	f85d 7b04 	ldr.w	r7, [sp], #4
  401e0e:	4770      	bx	lr

00401e10 <pio_set_pin_high>:
 * \param ul_pin The pin index.
 *
 * \note The function \ref pio_configure_pin must be called beforehand.
 */
void pio_set_pin_high(uint32_t ul_pin)
{
  401e10:	b580      	push	{r7, lr}
  401e12:	b084      	sub	sp, #16
  401e14:	af00      	add	r7, sp, #0
  401e16:	6078      	str	r0, [r7, #4]
	Pio *p_pio = pio_get_pin_group(ul_pin);
  401e18:	6878      	ldr	r0, [r7, #4]
  401e1a:	4b08      	ldr	r3, [pc, #32]	; (401e3c <pio_set_pin_high+0x2c>)
  401e1c:	4798      	blx	r3
  401e1e:	60f8      	str	r0, [r7, #12]

	/* Value to be driven on the I/O line: 1. */
	p_pio->PIO_SODR = 1 << (ul_pin & 0x1F);
  401e20:	687b      	ldr	r3, [r7, #4]
  401e22:	f003 031f 	and.w	r3, r3, #31
  401e26:	2201      	movs	r2, #1
  401e28:	fa02 f303 	lsl.w	r3, r2, r3
  401e2c:	461a      	mov	r2, r3
  401e2e:	68fb      	ldr	r3, [r7, #12]
  401e30:	631a      	str	r2, [r3, #48]	; 0x30
}
  401e32:	bf00      	nop
  401e34:	3710      	adds	r7, #16
  401e36:	46bd      	mov	sp, r7
  401e38:	bd80      	pop	{r7, pc}
  401e3a:	bf00      	nop
  401e3c:	00401e71 	.word	0x00401e71

00401e40 <pio_set_pin_low>:
 * \param ul_pin The pin index.
 *
 * \note The function \ref pio_configure_pin must be called before.
 */
void pio_set_pin_low(uint32_t ul_pin)
{
  401e40:	b580      	push	{r7, lr}
  401e42:	b084      	sub	sp, #16
  401e44:	af00      	add	r7, sp, #0
  401e46:	6078      	str	r0, [r7, #4]
	Pio *p_pio = pio_get_pin_group(ul_pin);
  401e48:	6878      	ldr	r0, [r7, #4]
  401e4a:	4b08      	ldr	r3, [pc, #32]	; (401e6c <pio_set_pin_low+0x2c>)
  401e4c:	4798      	blx	r3
  401e4e:	60f8      	str	r0, [r7, #12]

	/* Value to be driven on the I/O line: 0. */
	p_pio->PIO_CODR = 1 << (ul_pin & 0x1F);
  401e50:	687b      	ldr	r3, [r7, #4]
  401e52:	f003 031f 	and.w	r3, r3, #31
  401e56:	2201      	movs	r2, #1
  401e58:	fa02 f303 	lsl.w	r3, r2, r3
  401e5c:	461a      	mov	r2, r3
  401e5e:	68fb      	ldr	r3, [r7, #12]
  401e60:	635a      	str	r2, [r3, #52]	; 0x34
}
  401e62:	bf00      	nop
  401e64:	3710      	adds	r7, #16
  401e66:	46bd      	mov	sp, r7
  401e68:	bd80      	pop	{r7, pc}
  401e6a:	bf00      	nop
  401e6c:	00401e71 	.word	0x00401e71

00401e70 <pio_get_pin_group>:
 * \param ul_pin The pin index.
 *
 * \return Pointer to \ref Pio struct for GPIO port.
 */
Pio *pio_get_pin_group(uint32_t ul_pin)
{
  401e70:	b480      	push	{r7}
  401e72:	b085      	sub	sp, #20
  401e74:	af00      	add	r7, sp, #0
  401e76:	6078      	str	r0, [r7, #4]
		p_pio = PIOC;
	} else {
		p_pio = (Pio *)((uint32_t)PIOA + (PIO_DELTA * (ul_pin >> 5)));
	}
#else
	p_pio = (Pio *)((uint32_t)PIOA + (PIO_DELTA * (ul_pin >> 5)));
  401e78:	687b      	ldr	r3, [r7, #4]
  401e7a:	095a      	lsrs	r2, r3, #5
  401e7c:	4b05      	ldr	r3, [pc, #20]	; (401e94 <pio_get_pin_group+0x24>)
  401e7e:	4413      	add	r3, r2
  401e80:	025b      	lsls	r3, r3, #9
  401e82:	60fb      	str	r3, [r7, #12]
#endif
	return p_pio;
  401e84:	68fb      	ldr	r3, [r7, #12]
}
  401e86:	4618      	mov	r0, r3
  401e88:	3714      	adds	r7, #20
  401e8a:	46bd      	mov	sp, r7
  401e8c:	f85d 7b04 	ldr.w	r7, [sp], #4
  401e90:	4770      	bx	lr
  401e92:	bf00      	nop
  401e94:	00200707 	.word	0x00200707

00401e98 <pio_handler_process>:
 *
 * \param p_pio PIO controller base address.
 * \param ul_id PIO controller ID.
 */
void pio_handler_process(Pio *p_pio, uint32_t ul_id)
{
  401e98:	b580      	push	{r7, lr}
  401e9a:	b084      	sub	sp, #16
  401e9c:	af00      	add	r7, sp, #0
  401e9e:	6078      	str	r0, [r7, #4]
  401ea0:	6039      	str	r1, [r7, #0]
	uint32_t status;
	uint32_t i;

	/* Read PIO controller status */
	status = pio_get_interrupt_status(p_pio);
  401ea2:	6878      	ldr	r0, [r7, #4]
  401ea4:	4b26      	ldr	r3, [pc, #152]	; (401f40 <pio_handler_process+0xa8>)
  401ea6:	4798      	blx	r3
  401ea8:	60f8      	str	r0, [r7, #12]
	status &= pio_get_interrupt_mask(p_pio);
  401eaa:	6878      	ldr	r0, [r7, #4]
  401eac:	4b25      	ldr	r3, [pc, #148]	; (401f44 <pio_handler_process+0xac>)
  401eae:	4798      	blx	r3
  401eb0:	4602      	mov	r2, r0
  401eb2:	68fb      	ldr	r3, [r7, #12]
  401eb4:	4013      	ands	r3, r2
  401eb6:	60fb      	str	r3, [r7, #12]

	/* Check pending events */
	if (status != 0) {
  401eb8:	68fb      	ldr	r3, [r7, #12]
  401eba:	2b00      	cmp	r3, #0
  401ebc:	d03c      	beq.n	401f38 <pio_handler_process+0xa0>
		/* Find triggering source */
		i = 0;
  401ebe:	2300      	movs	r3, #0
  401ec0:	60bb      	str	r3, [r7, #8]
		while (status != 0) {
  401ec2:	e034      	b.n	401f2e <pio_handler_process+0x96>
			/* Source is configured on the same controller */
			if (gs_interrupt_sources[i].id == ul_id) {
  401ec4:	4a20      	ldr	r2, [pc, #128]	; (401f48 <pio_handler_process+0xb0>)
  401ec6:	68bb      	ldr	r3, [r7, #8]
  401ec8:	011b      	lsls	r3, r3, #4
  401eca:	4413      	add	r3, r2
  401ecc:	681a      	ldr	r2, [r3, #0]
  401ece:	683b      	ldr	r3, [r7, #0]
  401ed0:	429a      	cmp	r2, r3
  401ed2:	d126      	bne.n	401f22 <pio_handler_process+0x8a>
				/* Source has PIOs whose statuses have changed */
				if ((status & gs_interrupt_sources[i].mask) != 0) {
  401ed4:	4a1c      	ldr	r2, [pc, #112]	; (401f48 <pio_handler_process+0xb0>)
  401ed6:	68bb      	ldr	r3, [r7, #8]
  401ed8:	011b      	lsls	r3, r3, #4
  401eda:	4413      	add	r3, r2
  401edc:	3304      	adds	r3, #4
  401ede:	681a      	ldr	r2, [r3, #0]
  401ee0:	68fb      	ldr	r3, [r7, #12]
  401ee2:	4013      	ands	r3, r2
  401ee4:	2b00      	cmp	r3, #0
  401ee6:	d01c      	beq.n	401f22 <pio_handler_process+0x8a>
					gs_interrupt_sources[i].handler(gs_interrupt_sources[i].id,
  401ee8:	4a17      	ldr	r2, [pc, #92]	; (401f48 <pio_handler_process+0xb0>)
  401eea:	68bb      	ldr	r3, [r7, #8]
  401eec:	011b      	lsls	r3, r3, #4
  401eee:	4413      	add	r3, r2
  401ef0:	330c      	adds	r3, #12
  401ef2:	681b      	ldr	r3, [r3, #0]
  401ef4:	4914      	ldr	r1, [pc, #80]	; (401f48 <pio_handler_process+0xb0>)
  401ef6:	68ba      	ldr	r2, [r7, #8]
  401ef8:	0112      	lsls	r2, r2, #4
  401efa:	440a      	add	r2, r1
  401efc:	6810      	ldr	r0, [r2, #0]
  401efe:	4912      	ldr	r1, [pc, #72]	; (401f48 <pio_handler_process+0xb0>)
  401f00:	68ba      	ldr	r2, [r7, #8]
  401f02:	0112      	lsls	r2, r2, #4
  401f04:	440a      	add	r2, r1
  401f06:	3204      	adds	r2, #4
  401f08:	6812      	ldr	r2, [r2, #0]
  401f0a:	4611      	mov	r1, r2
  401f0c:	4798      	blx	r3
							gs_interrupt_sources[i].mask);
					status &= ~(gs_interrupt_sources[i].mask);
  401f0e:	4a0e      	ldr	r2, [pc, #56]	; (401f48 <pio_handler_process+0xb0>)
  401f10:	68bb      	ldr	r3, [r7, #8]
  401f12:	011b      	lsls	r3, r3, #4
  401f14:	4413      	add	r3, r2
  401f16:	3304      	adds	r3, #4
  401f18:	681b      	ldr	r3, [r3, #0]
  401f1a:	43db      	mvns	r3, r3
  401f1c:	68fa      	ldr	r2, [r7, #12]
  401f1e:	4013      	ands	r3, r2
  401f20:	60fb      	str	r3, [r7, #12]
				}
			}
			i++;
  401f22:	68bb      	ldr	r3, [r7, #8]
  401f24:	3301      	adds	r3, #1
  401f26:	60bb      	str	r3, [r7, #8]
			if (i >= MAX_INTERRUPT_SOURCES) {
  401f28:	68bb      	ldr	r3, [r7, #8]
  401f2a:	2b06      	cmp	r3, #6
  401f2c:	d803      	bhi.n	401f36 <pio_handler_process+0x9e>
		while (status != 0) {
  401f2e:	68fb      	ldr	r3, [r7, #12]
  401f30:	2b00      	cmp	r3, #0
  401f32:	d1c7      	bne.n	401ec4 <pio_handler_process+0x2c>
		if (pio_capture_handler) {
			pio_capture_handler(p_pio);
		}
	}
#endif
}
  401f34:	e000      	b.n	401f38 <pio_handler_process+0xa0>
				break;
  401f36:	bf00      	nop
}
  401f38:	bf00      	nop
  401f3a:	3710      	adds	r7, #16
  401f3c:	46bd      	mov	sp, r7
  401f3e:	bd80      	pop	{r7, pc}
  401f40:	00401de1 	.word	0x00401de1
  401f44:	00401df9 	.word	0x00401df9
  401f48:	2040081c 	.word	0x2040081c

00401f4c <pio_handler_set>:
 *
 * \return 0 if successful, 1 if the maximum number of sources has been defined.
 */
uint32_t pio_handler_set(Pio *p_pio, uint32_t ul_id, uint32_t ul_mask,
		uint32_t ul_attr, void (*p_handler) (uint32_t, uint32_t))
{
  401f4c:	b580      	push	{r7, lr}
  401f4e:	b086      	sub	sp, #24
  401f50:	af00      	add	r7, sp, #0
  401f52:	60f8      	str	r0, [r7, #12]
  401f54:	60b9      	str	r1, [r7, #8]
  401f56:	607a      	str	r2, [r7, #4]
  401f58:	603b      	str	r3, [r7, #0]
    uint8_t i;
	struct s_interrupt_source *pSource;

	if (gs_ul_nb_sources >= MAX_INTERRUPT_SOURCES)
  401f5a:	4b21      	ldr	r3, [pc, #132]	; (401fe0 <pio_handler_set+0x94>)
  401f5c:	681b      	ldr	r3, [r3, #0]
  401f5e:	2b06      	cmp	r3, #6
  401f60:	d901      	bls.n	401f66 <pio_handler_set+0x1a>
		return 1;
  401f62:	2301      	movs	r3, #1
  401f64:	e038      	b.n	401fd8 <pio_handler_set+0x8c>

    /* Check interrupt for this pin, if already defined, redefine it. */
	for (i = 0; i <= gs_ul_nb_sources; i++) {
  401f66:	2300      	movs	r3, #0
  401f68:	75fb      	strb	r3, [r7, #23]
  401f6a:	e011      	b.n	401f90 <pio_handler_set+0x44>
		pSource = &(gs_interrupt_sources[i]);
  401f6c:	7dfb      	ldrb	r3, [r7, #23]
  401f6e:	011b      	lsls	r3, r3, #4
  401f70:	4a1c      	ldr	r2, [pc, #112]	; (401fe4 <pio_handler_set+0x98>)
  401f72:	4413      	add	r3, r2
  401f74:	613b      	str	r3, [r7, #16]
		if (pSource->id == ul_id && pSource->mask == ul_mask) {
  401f76:	693b      	ldr	r3, [r7, #16]
  401f78:	681a      	ldr	r2, [r3, #0]
  401f7a:	68bb      	ldr	r3, [r7, #8]
  401f7c:	429a      	cmp	r2, r3
  401f7e:	d104      	bne.n	401f8a <pio_handler_set+0x3e>
  401f80:	693b      	ldr	r3, [r7, #16]
  401f82:	685a      	ldr	r2, [r3, #4]
  401f84:	687b      	ldr	r3, [r7, #4]
  401f86:	429a      	cmp	r2, r3
  401f88:	d008      	beq.n	401f9c <pio_handler_set+0x50>
	for (i = 0; i <= gs_ul_nb_sources; i++) {
  401f8a:	7dfb      	ldrb	r3, [r7, #23]
  401f8c:	3301      	adds	r3, #1
  401f8e:	75fb      	strb	r3, [r7, #23]
  401f90:	7dfa      	ldrb	r2, [r7, #23]
  401f92:	4b13      	ldr	r3, [pc, #76]	; (401fe0 <pio_handler_set+0x94>)
  401f94:	681b      	ldr	r3, [r3, #0]
  401f96:	429a      	cmp	r2, r3
  401f98:	d9e8      	bls.n	401f6c <pio_handler_set+0x20>
  401f9a:	e000      	b.n	401f9e <pio_handler_set+0x52>
			break;
  401f9c:	bf00      	nop
		}
	}

	/* Define new source */
	pSource->id = ul_id;
  401f9e:	693b      	ldr	r3, [r7, #16]
  401fa0:	68ba      	ldr	r2, [r7, #8]
  401fa2:	601a      	str	r2, [r3, #0]
	pSource->mask = ul_mask;
  401fa4:	693b      	ldr	r3, [r7, #16]
  401fa6:	687a      	ldr	r2, [r7, #4]
  401fa8:	605a      	str	r2, [r3, #4]
	pSource->attr = ul_attr;
  401faa:	693b      	ldr	r3, [r7, #16]
  401fac:	683a      	ldr	r2, [r7, #0]
  401fae:	609a      	str	r2, [r3, #8]
	pSource->handler = p_handler;
  401fb0:	693b      	ldr	r3, [r7, #16]
  401fb2:	6a3a      	ldr	r2, [r7, #32]
  401fb4:	60da      	str	r2, [r3, #12]
	if (i == gs_ul_nb_sources + 1) {
  401fb6:	7dfa      	ldrb	r2, [r7, #23]
  401fb8:	4b09      	ldr	r3, [pc, #36]	; (401fe0 <pio_handler_set+0x94>)
  401fba:	681b      	ldr	r3, [r3, #0]
  401fbc:	3301      	adds	r3, #1
  401fbe:	429a      	cmp	r2, r3
  401fc0:	d104      	bne.n	401fcc <pio_handler_set+0x80>
		gs_ul_nb_sources++;
  401fc2:	4b07      	ldr	r3, [pc, #28]	; (401fe0 <pio_handler_set+0x94>)
  401fc4:	681b      	ldr	r3, [r3, #0]
  401fc6:	3301      	adds	r3, #1
  401fc8:	4a05      	ldr	r2, [pc, #20]	; (401fe0 <pio_handler_set+0x94>)
  401fca:	6013      	str	r3, [r2, #0]
	}

	/* Configure interrupt mode */
	pio_configure_interrupt(p_pio, ul_mask, ul_attr);
  401fcc:	683a      	ldr	r2, [r7, #0]
  401fce:	6879      	ldr	r1, [r7, #4]
  401fd0:	68f8      	ldr	r0, [r7, #12]
  401fd2:	4b05      	ldr	r3, [pc, #20]	; (401fe8 <pio_handler_set+0x9c>)
  401fd4:	4798      	blx	r3

	return 0;
  401fd6:	2300      	movs	r3, #0
}
  401fd8:	4618      	mov	r0, r3
  401fda:	3718      	adds	r7, #24
  401fdc:	46bd      	mov	sp, r7
  401fde:	bd80      	pop	{r7, pc}
  401fe0:	2040088c 	.word	0x2040088c
  401fe4:	2040081c 	.word	0x2040081c
  401fe8:	00401d3d 	.word	0x00401d3d

00401fec <PIOA_Handler>:
/**
 * \brief Parallel IO Controller A interrupt handler.
 * Redefined PIOA interrupt handler for NVIC interrupt table.
 */
void PIOA_Handler(void)
{
  401fec:	b580      	push	{r7, lr}
  401fee:	af00      	add	r7, sp, #0
	pio_handler_process(PIOA, ID_PIOA);
  401ff0:	210a      	movs	r1, #10
  401ff2:	4802      	ldr	r0, [pc, #8]	; (401ffc <PIOA_Handler+0x10>)
  401ff4:	4b02      	ldr	r3, [pc, #8]	; (402000 <PIOA_Handler+0x14>)
  401ff6:	4798      	blx	r3
}
  401ff8:	bf00      	nop
  401ffa:	bd80      	pop	{r7, pc}
  401ffc:	400e0e00 	.word	0x400e0e00
  402000:	00401e99 	.word	0x00401e99

00402004 <PIOB_Handler>:
/**
 * \brief Parallel IO Controller B interrupt handler
 * Redefined PIOB interrupt handler for NVIC interrupt table.
 */
void PIOB_Handler(void)
{
  402004:	b580      	push	{r7, lr}
  402006:	af00      	add	r7, sp, #0
    pio_handler_process(PIOB, ID_PIOB);
  402008:	210b      	movs	r1, #11
  40200a:	4802      	ldr	r0, [pc, #8]	; (402014 <PIOB_Handler+0x10>)
  40200c:	4b02      	ldr	r3, [pc, #8]	; (402018 <PIOB_Handler+0x14>)
  40200e:	4798      	blx	r3
}
  402010:	bf00      	nop
  402012:	bd80      	pop	{r7, pc}
  402014:	400e1000 	.word	0x400e1000
  402018:	00401e99 	.word	0x00401e99

0040201c <PIOC_Handler>:
/**
 * \brief Parallel IO Controller C interrupt handler.
 * Redefined PIOC interrupt handler for NVIC interrupt table.
 */
void PIOC_Handler(void)
{
  40201c:	b580      	push	{r7, lr}
  40201e:	af00      	add	r7, sp, #0
	pio_handler_process(PIOC, ID_PIOC);
  402020:	210c      	movs	r1, #12
  402022:	4802      	ldr	r0, [pc, #8]	; (40202c <PIOC_Handler+0x10>)
  402024:	4b02      	ldr	r3, [pc, #8]	; (402030 <PIOC_Handler+0x14>)
  402026:	4798      	blx	r3
}
  402028:	bf00      	nop
  40202a:	bd80      	pop	{r7, pc}
  40202c:	400e1200 	.word	0x400e1200
  402030:	00401e99 	.word	0x00401e99

00402034 <PIOD_Handler>:
/**
 * \brief Parallel IO Controller D interrupt handler.
 * Redefined PIOD interrupt handler for NVIC interrupt table.
 */
void PIOD_Handler(void)
{
  402034:	b580      	push	{r7, lr}
  402036:	af00      	add	r7, sp, #0
	pio_handler_process(PIOD, ID_PIOD);
  402038:	2110      	movs	r1, #16
  40203a:	4802      	ldr	r0, [pc, #8]	; (402044 <PIOD_Handler+0x10>)
  40203c:	4b02      	ldr	r3, [pc, #8]	; (402048 <PIOD_Handler+0x14>)
  40203e:	4798      	blx	r3
}
  402040:	bf00      	nop
  402042:	bd80      	pop	{r7, pc}
  402044:	400e1400 	.word	0x400e1400
  402048:	00401e99 	.word	0x00401e99

0040204c <PIOE_Handler>:
/**
 * \brief Parallel IO Controller E interrupt handler.
 * Redefined PIOE interrupt handler for NVIC interrupt table.
 */
void PIOE_Handler(void)
{
  40204c:	b580      	push	{r7, lr}
  40204e:	af00      	add	r7, sp, #0
	pio_handler_process(PIOE, ID_PIOE);
  402050:	2111      	movs	r1, #17
  402052:	4802      	ldr	r0, [pc, #8]	; (40205c <PIOE_Handler+0x10>)
  402054:	4b02      	ldr	r3, [pc, #8]	; (402060 <PIOE_Handler+0x14>)
  402056:	4798      	blx	r3
}
  402058:	bf00      	nop
  40205a:	bd80      	pop	{r7, pc}
  40205c:	400e1600 	.word	0x400e1600
  402060:	00401e99 	.word	0x00401e99

00402064 <pmc_mck_set_division>:
 * \brief Set the division of the MCK.
 *
 * \param ul_div Division value.
 */
void pmc_mck_set_division(uint32_t ul_div)
{
  402064:	b480      	push	{r7}
  402066:	b083      	sub	sp, #12
  402068:	af00      	add	r7, sp, #0
  40206a:	6078      	str	r0, [r7, #4]
	switch (ul_div) {
  40206c:	687b      	ldr	r3, [r7, #4]
  40206e:	3b01      	subs	r3, #1
  402070:	2b03      	cmp	r3, #3
  402072:	d81a      	bhi.n	4020aa <pmc_mck_set_division+0x46>
  402074:	a201      	add	r2, pc, #4	; (adr r2, 40207c <pmc_mck_set_division+0x18>)
  402076:	f852 f023 	ldr.w	pc, [r2, r3, lsl #2]
  40207a:	bf00      	nop
  40207c:	0040208d 	.word	0x0040208d
  402080:	00402093 	.word	0x00402093
  402084:	0040209b 	.word	0x0040209b
  402088:	004020a3 	.word	0x004020a3
		case 1:
			ul_div = PMC_MCKR_MDIV_EQ_PCK;
  40208c:	2300      	movs	r3, #0
  40208e:	607b      	str	r3, [r7, #4]
			break;
  402090:	e00e      	b.n	4020b0 <pmc_mck_set_division+0x4c>
		case 2:
			ul_div = PMC_MCKR_MDIV_PCK_DIV2;
  402092:	f44f 7380 	mov.w	r3, #256	; 0x100
  402096:	607b      	str	r3, [r7, #4]
			break;
  402098:	e00a      	b.n	4020b0 <pmc_mck_set_division+0x4c>
		case 3:
			ul_div = PMC_MCKR_MDIV_PCK_DIV3;
  40209a:	f44f 7340 	mov.w	r3, #768	; 0x300
  40209e:	607b      	str	r3, [r7, #4]
			break;
  4020a0:	e006      	b.n	4020b0 <pmc_mck_set_division+0x4c>
		case 4:
			ul_div = PMC_MCKR_MDIV_PCK_DIV4;
  4020a2:	f44f 7300 	mov.w	r3, #512	; 0x200
  4020a6:	607b      	str	r3, [r7, #4]
			break;
  4020a8:	e002      	b.n	4020b0 <pmc_mck_set_division+0x4c>
		default:
			ul_div = PMC_MCKR_MDIV_EQ_PCK;
  4020aa:	2300      	movs	r3, #0
  4020ac:	607b      	str	r3, [r7, #4]
			break;
  4020ae:	bf00      	nop
	}
	PMC->PMC_MCKR =
  4020b0:	490a      	ldr	r1, [pc, #40]	; (4020dc <pmc_mck_set_division+0x78>)
			(PMC->PMC_MCKR & (~PMC_MCKR_MDIV_Msk)) | ul_div;
  4020b2:	4b0a      	ldr	r3, [pc, #40]	; (4020dc <pmc_mck_set_division+0x78>)
  4020b4:	6b1b      	ldr	r3, [r3, #48]	; 0x30
  4020b6:	f423 7240 	bic.w	r2, r3, #768	; 0x300
  4020ba:	687b      	ldr	r3, [r7, #4]
  4020bc:	4313      	orrs	r3, r2
	PMC->PMC_MCKR =
  4020be:	630b      	str	r3, [r1, #48]	; 0x30
	while (!(PMC->PMC_SR & PMC_SR_MCKRDY));
  4020c0:	bf00      	nop
  4020c2:	4b06      	ldr	r3, [pc, #24]	; (4020dc <pmc_mck_set_division+0x78>)
  4020c4:	6e9b      	ldr	r3, [r3, #104]	; 0x68
  4020c6:	f003 0308 	and.w	r3, r3, #8
  4020ca:	2b00      	cmp	r3, #0
  4020cc:	d0f9      	beq.n	4020c2 <pmc_mck_set_division+0x5e>
}
  4020ce:	bf00      	nop
  4020d0:	370c      	adds	r7, #12
  4020d2:	46bd      	mov	sp, r7
  4020d4:	f85d 7b04 	ldr.w	r7, [sp], #4
  4020d8:	4770      	bx	lr
  4020da:	bf00      	nop
  4020dc:	400e0600 	.word	0x400e0600

004020e0 <pmc_switch_mck_to_pllack>:
 *
 * \retval 0 Success.
 * \retval 1 Timeout error.
 */
uint32_t pmc_switch_mck_to_pllack(uint32_t ul_pres)
{
  4020e0:	b480      	push	{r7}
  4020e2:	b085      	sub	sp, #20
  4020e4:	af00      	add	r7, sp, #0
  4020e6:	6078      	str	r0, [r7, #4]
	uint32_t ul_timeout;

	PMC->PMC_MCKR = (PMC->PMC_MCKR & (~PMC_MCKR_PRES_Msk)) | ul_pres;
  4020e8:	491d      	ldr	r1, [pc, #116]	; (402160 <pmc_switch_mck_to_pllack+0x80>)
  4020ea:	4b1d      	ldr	r3, [pc, #116]	; (402160 <pmc_switch_mck_to_pllack+0x80>)
  4020ec:	6b1b      	ldr	r3, [r3, #48]	; 0x30
  4020ee:	f023 0270 	bic.w	r2, r3, #112	; 0x70
  4020f2:	687b      	ldr	r3, [r7, #4]
  4020f4:	4313      	orrs	r3, r2
  4020f6:	630b      	str	r3, [r1, #48]	; 0x30
	for (ul_timeout = PMC_TIMEOUT; !(PMC->PMC_SR & PMC_SR_MCKRDY);
  4020f8:	f44f 5380 	mov.w	r3, #4096	; 0x1000
  4020fc:	60fb      	str	r3, [r7, #12]
  4020fe:	e007      	b.n	402110 <pmc_switch_mck_to_pllack+0x30>
			--ul_timeout) {
		if (ul_timeout == 0) {
  402100:	68fb      	ldr	r3, [r7, #12]
  402102:	2b00      	cmp	r3, #0
  402104:	d101      	bne.n	40210a <pmc_switch_mck_to_pllack+0x2a>
			return 1;
  402106:	2301      	movs	r3, #1
  402108:	e023      	b.n	402152 <pmc_switch_mck_to_pllack+0x72>
			--ul_timeout) {
  40210a:	68fb      	ldr	r3, [r7, #12]
  40210c:	3b01      	subs	r3, #1
  40210e:	60fb      	str	r3, [r7, #12]
	for (ul_timeout = PMC_TIMEOUT; !(PMC->PMC_SR & PMC_SR_MCKRDY);
  402110:	4b13      	ldr	r3, [pc, #76]	; (402160 <pmc_switch_mck_to_pllack+0x80>)
  402112:	6e9b      	ldr	r3, [r3, #104]	; 0x68
  402114:	f003 0308 	and.w	r3, r3, #8
  402118:	2b00      	cmp	r3, #0
  40211a:	d0f1      	beq.n	402100 <pmc_switch_mck_to_pllack+0x20>
		}
	}

	PMC->PMC_MCKR = (PMC->PMC_MCKR & (~PMC_MCKR_CSS_Msk)) |
  40211c:	4a10      	ldr	r2, [pc, #64]	; (402160 <pmc_switch_mck_to_pllack+0x80>)
  40211e:	4b10      	ldr	r3, [pc, #64]	; (402160 <pmc_switch_mck_to_pllack+0x80>)
  402120:	6b1b      	ldr	r3, [r3, #48]	; 0x30
  402122:	f023 0303 	bic.w	r3, r3, #3
  402126:	f043 0302 	orr.w	r3, r3, #2
  40212a:	6313      	str	r3, [r2, #48]	; 0x30
			PMC_MCKR_CSS_PLLA_CLK;

	for (ul_timeout = PMC_TIMEOUT; !(PMC->PMC_SR & PMC_SR_MCKRDY);
  40212c:	f44f 5380 	mov.w	r3, #4096	; 0x1000
  402130:	60fb      	str	r3, [r7, #12]
  402132:	e007      	b.n	402144 <pmc_switch_mck_to_pllack+0x64>
			--ul_timeout) {
		if (ul_timeout == 0) {
  402134:	68fb      	ldr	r3, [r7, #12]
  402136:	2b00      	cmp	r3, #0
  402138:	d101      	bne.n	40213e <pmc_switch_mck_to_pllack+0x5e>
			return 1;
  40213a:	2301      	movs	r3, #1
  40213c:	e009      	b.n	402152 <pmc_switch_mck_to_pllack+0x72>
			--ul_timeout) {
  40213e:	68fb      	ldr	r3, [r7, #12]
  402140:	3b01      	subs	r3, #1
  402142:	60fb      	str	r3, [r7, #12]
	for (ul_timeout = PMC_TIMEOUT; !(PMC->PMC_SR & PMC_SR_MCKRDY);
  402144:	4b06      	ldr	r3, [pc, #24]	; (402160 <pmc_switch_mck_to_pllack+0x80>)
  402146:	6e9b      	ldr	r3, [r3, #104]	; 0x68
  402148:	f003 0308 	and.w	r3, r3, #8
  40214c:	2b00      	cmp	r3, #0
  40214e:	d0f1      	beq.n	402134 <pmc_switch_mck_to_pllack+0x54>
		}
	}

	return 0;
  402150:	2300      	movs	r3, #0
}
  402152:	4618      	mov	r0, r3
  402154:	3714      	adds	r7, #20
  402156:	46bd      	mov	sp, r7
  402158:	f85d 7b04 	ldr.w	r7, [sp], #4
  40215c:	4770      	bx	lr
  40215e:	bf00      	nop
  402160:	400e0600 	.word	0x400e0600

00402164 <pmc_switch_sclk_to_32kxtal>:
 *       VDDIO power supply.
 *
 * \param ul_bypass 0 for Xtal, 1 for bypass.
 */
void pmc_switch_sclk_to_32kxtal(uint32_t ul_bypass)
{
  402164:	b480      	push	{r7}
  402166:	b083      	sub	sp, #12
  402168:	af00      	add	r7, sp, #0
  40216a:	6078      	str	r0, [r7, #4]
	/* Set Bypass mode if required */
	if (ul_bypass == 1) {
  40216c:	687b      	ldr	r3, [r7, #4]
  40216e:	2b01      	cmp	r3, #1
  402170:	d105      	bne.n	40217e <pmc_switch_sclk_to_32kxtal+0x1a>
		SUPC->SUPC_MR |= SUPC_MR_KEY_PASSWD |
  402172:	4907      	ldr	r1, [pc, #28]	; (402190 <pmc_switch_sclk_to_32kxtal+0x2c>)
  402174:	4b06      	ldr	r3, [pc, #24]	; (402190 <pmc_switch_sclk_to_32kxtal+0x2c>)
  402176:	689a      	ldr	r2, [r3, #8]
  402178:	4b06      	ldr	r3, [pc, #24]	; (402194 <pmc_switch_sclk_to_32kxtal+0x30>)
  40217a:	4313      	orrs	r3, r2
  40217c:	608b      	str	r3, [r1, #8]
			SUPC_MR_OSCBYPASS;
	}

	SUPC->SUPC_CR = SUPC_CR_KEY_PASSWD | SUPC_CR_XTALSEL;
  40217e:	4b04      	ldr	r3, [pc, #16]	; (402190 <pmc_switch_sclk_to_32kxtal+0x2c>)
  402180:	4a05      	ldr	r2, [pc, #20]	; (402198 <pmc_switch_sclk_to_32kxtal+0x34>)
  402182:	601a      	str	r2, [r3, #0]
}
  402184:	bf00      	nop
  402186:	370c      	adds	r7, #12
  402188:	46bd      	mov	sp, r7
  40218a:	f85d 7b04 	ldr.w	r7, [sp], #4
  40218e:	4770      	bx	lr
  402190:	400e1810 	.word	0x400e1810
  402194:	a5100000 	.word	0xa5100000
  402198:	a5000008 	.word	0xa5000008

0040219c <pmc_osc_is_ready_32kxtal>:
 *
 * \retval 1 External 32k Xtal is ready.
 * \retval 0 External 32k Xtal is not ready.
 */
uint32_t pmc_osc_is_ready_32kxtal(void)
{
  40219c:	b480      	push	{r7}
  40219e:	af00      	add	r7, sp, #0
	return ((SUPC->SUPC_SR & SUPC_SR_OSCSEL)
  4021a0:	4b09      	ldr	r3, [pc, #36]	; (4021c8 <pmc_osc_is_ready_32kxtal+0x2c>)
  4021a2:	695b      	ldr	r3, [r3, #20]
  4021a4:	f003 0380 	and.w	r3, r3, #128	; 0x80
			&& (PMC->PMC_SR & PMC_SR_OSCSELS));
  4021a8:	2b00      	cmp	r3, #0
  4021aa:	d007      	beq.n	4021bc <pmc_osc_is_ready_32kxtal+0x20>
  4021ac:	4b07      	ldr	r3, [pc, #28]	; (4021cc <pmc_osc_is_ready_32kxtal+0x30>)
  4021ae:	6e9b      	ldr	r3, [r3, #104]	; 0x68
  4021b0:	f003 0380 	and.w	r3, r3, #128	; 0x80
  4021b4:	2b00      	cmp	r3, #0
  4021b6:	d001      	beq.n	4021bc <pmc_osc_is_ready_32kxtal+0x20>
  4021b8:	2301      	movs	r3, #1
  4021ba:	e000      	b.n	4021be <pmc_osc_is_ready_32kxtal+0x22>
  4021bc:	2300      	movs	r3, #0
}
  4021be:	4618      	mov	r0, r3
  4021c0:	46bd      	mov	sp, r7
  4021c2:	f85d 7b04 	ldr.w	r7, [sp], #4
  4021c6:	4770      	bx	lr
  4021c8:	400e1810 	.word	0x400e1810
  4021cc:	400e0600 	.word	0x400e0600

004021d0 <pmc_switch_mainck_to_fastrc>:
 * \retval 0 Success.
 * \retval 1 Timeout error.
 * \retval 2 Invalid frequency.
 */
void pmc_switch_mainck_to_fastrc(uint32_t ul_moscrcf)
{
  4021d0:	b480      	push	{r7}
  4021d2:	b083      	sub	sp, #12
  4021d4:	af00      	add	r7, sp, #0
  4021d6:	6078      	str	r0, [r7, #4]
	/* Enable Fast RC oscillator but DO NOT switch to RC now */
	PMC->CKGR_MOR |= (CKGR_MOR_KEY_PASSWD | CKGR_MOR_MOSCRCEN);
  4021d8:	4915      	ldr	r1, [pc, #84]	; (402230 <pmc_switch_mainck_to_fastrc+0x60>)
  4021da:	4b15      	ldr	r3, [pc, #84]	; (402230 <pmc_switch_mainck_to_fastrc+0x60>)
  4021dc:	6a1a      	ldr	r2, [r3, #32]
  4021de:	4b15      	ldr	r3, [pc, #84]	; (402234 <pmc_switch_mainck_to_fastrc+0x64>)
  4021e0:	4313      	orrs	r3, r2
  4021e2:	620b      	str	r3, [r1, #32]

	/* Wait the Fast RC to stabilize */
	while (!(PMC->PMC_SR & PMC_SR_MOSCRCS));
  4021e4:	bf00      	nop
  4021e6:	4b12      	ldr	r3, [pc, #72]	; (402230 <pmc_switch_mainck_to_fastrc+0x60>)
  4021e8:	6e9b      	ldr	r3, [r3, #104]	; 0x68
  4021ea:	f403 3300 	and.w	r3, r3, #131072	; 0x20000
  4021ee:	2b00      	cmp	r3, #0
  4021f0:	d0f9      	beq.n	4021e6 <pmc_switch_mainck_to_fastrc+0x16>

	/* Change Fast RC oscillator frequency */
	PMC->CKGR_MOR = (PMC->CKGR_MOR & ~CKGR_MOR_MOSCRCF_Msk) |
  4021f2:	490f      	ldr	r1, [pc, #60]	; (402230 <pmc_switch_mainck_to_fastrc+0x60>)
  4021f4:	4b0e      	ldr	r3, [pc, #56]	; (402230 <pmc_switch_mainck_to_fastrc+0x60>)
  4021f6:	6a1a      	ldr	r2, [r3, #32]
  4021f8:	4b0f      	ldr	r3, [pc, #60]	; (402238 <pmc_switch_mainck_to_fastrc+0x68>)
  4021fa:	4013      	ands	r3, r2
			CKGR_MOR_KEY_PASSWD | ul_moscrcf;
  4021fc:	687a      	ldr	r2, [r7, #4]
  4021fe:	4313      	orrs	r3, r2
  402200:	f443 135c 	orr.w	r3, r3, #3604480	; 0x370000
	PMC->CKGR_MOR = (PMC->CKGR_MOR & ~CKGR_MOR_MOSCRCF_Msk) |
  402204:	620b      	str	r3, [r1, #32]

	/* Wait the Fast RC to stabilize */
	while (!(PMC->PMC_SR & PMC_SR_MOSCRCS));
  402206:	bf00      	nop
  402208:	4b09      	ldr	r3, [pc, #36]	; (402230 <pmc_switch_mainck_to_fastrc+0x60>)
  40220a:	6e9b      	ldr	r3, [r3, #104]	; 0x68
  40220c:	f403 3300 	and.w	r3, r3, #131072	; 0x20000
  402210:	2b00      	cmp	r3, #0
  402212:	d0f9      	beq.n	402208 <pmc_switch_mainck_to_fastrc+0x38>

	/* Switch to Fast RC */
	PMC->CKGR_MOR = (PMC->CKGR_MOR & ~CKGR_MOR_MOSCSEL) |
  402214:	4906      	ldr	r1, [pc, #24]	; (402230 <pmc_switch_mainck_to_fastrc+0x60>)
  402216:	4b06      	ldr	r3, [pc, #24]	; (402230 <pmc_switch_mainck_to_fastrc+0x60>)
  402218:	6a1a      	ldr	r2, [r3, #32]
  40221a:	4b08      	ldr	r3, [pc, #32]	; (40223c <pmc_switch_mainck_to_fastrc+0x6c>)
  40221c:	4013      	ands	r3, r2
  40221e:	f443 135c 	orr.w	r3, r3, #3604480	; 0x370000
  402222:	620b      	str	r3, [r1, #32]
			CKGR_MOR_KEY_PASSWD;
}
  402224:	bf00      	nop
  402226:	370c      	adds	r7, #12
  402228:	46bd      	mov	sp, r7
  40222a:	f85d 7b04 	ldr.w	r7, [sp], #4
  40222e:	4770      	bx	lr
  402230:	400e0600 	.word	0x400e0600
  402234:	00370008 	.word	0x00370008
  402238:	ffc8ff8f 	.word	0xffc8ff8f
  40223c:	fec8ffff 	.word	0xfec8ffff

00402240 <pmc_switch_mainck_to_xtal>:
 * \retval 0 Success.
 * \retval 1 Timeout error.
 */
void pmc_switch_mainck_to_xtal(uint32_t ul_bypass,
		uint32_t ul_xtal_startup_time)
{
  402240:	b480      	push	{r7}
  402242:	b083      	sub	sp, #12
  402244:	af00      	add	r7, sp, #0
  402246:	6078      	str	r0, [r7, #4]
  402248:	6039      	str	r1, [r7, #0]
	/* Enable Main Xtal oscillator */
	if (ul_bypass) {
  40224a:	687b      	ldr	r3, [r7, #4]
  40224c:	2b00      	cmp	r3, #0
  40224e:	d008      	beq.n	402262 <pmc_switch_mainck_to_xtal+0x22>
		PMC->CKGR_MOR = (PMC->CKGR_MOR & ~CKGR_MOR_MOSCXTEN) |
  402250:	4913      	ldr	r1, [pc, #76]	; (4022a0 <pmc_switch_mainck_to_xtal+0x60>)
  402252:	4b13      	ldr	r3, [pc, #76]	; (4022a0 <pmc_switch_mainck_to_xtal+0x60>)
  402254:	6a1b      	ldr	r3, [r3, #32]
				CKGR_MOR_KEY_PASSWD | CKGR_MOR_MOSCXTBY |
  402256:	4a13      	ldr	r2, [pc, #76]	; (4022a4 <pmc_switch_mainck_to_xtal+0x64>)
  402258:	401a      	ands	r2, r3
  40225a:	4b13      	ldr	r3, [pc, #76]	; (4022a8 <pmc_switch_mainck_to_xtal+0x68>)
  40225c:	4313      	orrs	r3, r2
		PMC->CKGR_MOR = (PMC->CKGR_MOR & ~CKGR_MOR_MOSCXTEN) |
  40225e:	620b      	str	r3, [r1, #32]
		/* Wait the Xtal to stabilize */
		while (!(PMC->PMC_SR & PMC_SR_MOSCXTS));

		PMC->CKGR_MOR |= CKGR_MOR_KEY_PASSWD | CKGR_MOR_MOSCSEL;
	}
}
  402260:	e018      	b.n	402294 <pmc_switch_mainck_to_xtal+0x54>
		PMC->CKGR_MOR = (PMC->CKGR_MOR & ~CKGR_MOR_MOSCXTBY) |
  402262:	490f      	ldr	r1, [pc, #60]	; (4022a0 <pmc_switch_mainck_to_xtal+0x60>)
  402264:	4b0e      	ldr	r3, [pc, #56]	; (4022a0 <pmc_switch_mainck_to_xtal+0x60>)
  402266:	6a1a      	ldr	r2, [r3, #32]
				CKGR_MOR_KEY_PASSWD | CKGR_MOR_MOSCXTEN |
  402268:	4b10      	ldr	r3, [pc, #64]	; (4022ac <pmc_switch_mainck_to_xtal+0x6c>)
  40226a:	4013      	ands	r3, r2
				CKGR_MOR_MOSCXTST(ul_xtal_startup_time);
  40226c:	683a      	ldr	r2, [r7, #0]
  40226e:	0212      	lsls	r2, r2, #8
  402270:	b292      	uxth	r2, r2
				CKGR_MOR_KEY_PASSWD | CKGR_MOR_MOSCXTEN |
  402272:	431a      	orrs	r2, r3
  402274:	4b0e      	ldr	r3, [pc, #56]	; (4022b0 <pmc_switch_mainck_to_xtal+0x70>)
  402276:	4313      	orrs	r3, r2
		PMC->CKGR_MOR = (PMC->CKGR_MOR & ~CKGR_MOR_MOSCXTBY) |
  402278:	620b      	str	r3, [r1, #32]
		while (!(PMC->PMC_SR & PMC_SR_MOSCXTS));
  40227a:	bf00      	nop
  40227c:	4b08      	ldr	r3, [pc, #32]	; (4022a0 <pmc_switch_mainck_to_xtal+0x60>)
  40227e:	6e9b      	ldr	r3, [r3, #104]	; 0x68
  402280:	f003 0301 	and.w	r3, r3, #1
  402284:	2b00      	cmp	r3, #0
  402286:	d0f9      	beq.n	40227c <pmc_switch_mainck_to_xtal+0x3c>
		PMC->CKGR_MOR |= CKGR_MOR_KEY_PASSWD | CKGR_MOR_MOSCSEL;
  402288:	4905      	ldr	r1, [pc, #20]	; (4022a0 <pmc_switch_mainck_to_xtal+0x60>)
  40228a:	4b05      	ldr	r3, [pc, #20]	; (4022a0 <pmc_switch_mainck_to_xtal+0x60>)
  40228c:	6a1a      	ldr	r2, [r3, #32]
  40228e:	4b09      	ldr	r3, [pc, #36]	; (4022b4 <pmc_switch_mainck_to_xtal+0x74>)
  402290:	4313      	orrs	r3, r2
  402292:	620b      	str	r3, [r1, #32]
}
  402294:	bf00      	nop
  402296:	370c      	adds	r7, #12
  402298:	46bd      	mov	sp, r7
  40229a:	f85d 7b04 	ldr.w	r7, [sp], #4
  40229e:	4770      	bx	lr
  4022a0:	400e0600 	.word	0x400e0600
  4022a4:	fec8fffc 	.word	0xfec8fffc
  4022a8:	01370002 	.word	0x01370002
  4022ac:	ffc8fffc 	.word	0xffc8fffc
  4022b0:	00370001 	.word	0x00370001
  4022b4:	01370000 	.word	0x01370000

004022b8 <pmc_osc_is_ready_mainck>:
 *
 * \retval 1 Xtal is ready.
 * \retval 0 Xtal is not ready.
 */
uint32_t pmc_osc_is_ready_mainck(void)
{
  4022b8:	b480      	push	{r7}
  4022ba:	af00      	add	r7, sp, #0
	return PMC->PMC_SR & PMC_SR_MOSCSELS;
  4022bc:	4b04      	ldr	r3, [pc, #16]	; (4022d0 <pmc_osc_is_ready_mainck+0x18>)
  4022be:	6e9b      	ldr	r3, [r3, #104]	; 0x68
  4022c0:	f403 3380 	and.w	r3, r3, #65536	; 0x10000
}
  4022c4:	4618      	mov	r0, r3
  4022c6:	46bd      	mov	sp, r7
  4022c8:	f85d 7b04 	ldr.w	r7, [sp], #4
  4022cc:	4770      	bx	lr
  4022ce:	bf00      	nop
  4022d0:	400e0600 	.word	0x400e0600

004022d4 <pmc_disable_pllack>:

/**
 * \brief Disable PLLA clock.
 */
void pmc_disable_pllack(void)
{
  4022d4:	b480      	push	{r7}
  4022d6:	af00      	add	r7, sp, #0
#if (SAM4C || SAM4CM || SAM4CP || SAMG)
	PMC->CKGR_PLLAR = CKGR_PLLAR_MULA(0);
#else
	PMC->CKGR_PLLAR = CKGR_PLLAR_ONE | CKGR_PLLAR_MULA(0);
  4022d8:	4b04      	ldr	r3, [pc, #16]	; (4022ec <pmc_disable_pllack+0x18>)
  4022da:	f04f 5200 	mov.w	r2, #536870912	; 0x20000000
  4022de:	629a      	str	r2, [r3, #40]	; 0x28
#endif
}
  4022e0:	bf00      	nop
  4022e2:	46bd      	mov	sp, r7
  4022e4:	f85d 7b04 	ldr.w	r7, [sp], #4
  4022e8:	4770      	bx	lr
  4022ea:	bf00      	nop
  4022ec:	400e0600 	.word	0x400e0600

004022f0 <pmc_is_locked_pllack>:
 *
 * \retval 0 Not locked.
 * \retval 1 Locked.
 */
uint32_t pmc_is_locked_pllack(void)
{
  4022f0:	b480      	push	{r7}
  4022f2:	af00      	add	r7, sp, #0
	return (PMC->PMC_SR & PMC_SR_LOCKA);
  4022f4:	4b04      	ldr	r3, [pc, #16]	; (402308 <pmc_is_locked_pllack+0x18>)
  4022f6:	6e9b      	ldr	r3, [r3, #104]	; 0x68
  4022f8:	f003 0302 	and.w	r3, r3, #2
}
  4022fc:	4618      	mov	r0, r3
  4022fe:	46bd      	mov	sp, r7
  402300:	f85d 7b04 	ldr.w	r7, [sp], #4
  402304:	4770      	bx	lr
  402306:	bf00      	nop
  402308:	400e0600 	.word	0x400e0600

0040230c <pmc_is_locked_upll>:
 *
 * \retval 0 Not locked.
 * \retval 1 Locked.
 */
uint32_t pmc_is_locked_upll(void)
{
  40230c:	b480      	push	{r7}
  40230e:	af00      	add	r7, sp, #0
	return (PMC->PMC_SR & PMC_SR_LOCKU);
  402310:	4b04      	ldr	r3, [pc, #16]	; (402324 <pmc_is_locked_upll+0x18>)
  402312:	6e9b      	ldr	r3, [r3, #104]	; 0x68
  402314:	f003 0340 	and.w	r3, r3, #64	; 0x40
}
  402318:	4618      	mov	r0, r3
  40231a:	46bd      	mov	sp, r7
  40231c:	f85d 7b04 	ldr.w	r7, [sp], #4
  402320:	4770      	bx	lr
  402322:	bf00      	nop
  402324:	400e0600 	.word	0x400e0600

00402328 <pmc_enable_periph_clk>:
 *
 * \retval 0 Success.
 * \retval 1 Invalid parameter.
 */
uint32_t pmc_enable_periph_clk(uint32_t ul_id)
{
  402328:	b480      	push	{r7}
  40232a:	b085      	sub	sp, #20
  40232c:	af00      	add	r7, sp, #0
  40232e:	6078      	str	r0, [r7, #4]
#if defined(REG_PMC_PCR) && !SAMG55
	uint32_t pcr;
	PMC->PMC_PCR = ul_id & 0x7F;
  402330:	4a0b      	ldr	r2, [pc, #44]	; (402360 <pmc_enable_periph_clk+0x38>)
  402332:	687b      	ldr	r3, [r7, #4]
  402334:	f003 037f 	and.w	r3, r3, #127	; 0x7f
  402338:	f8c2 310c 	str.w	r3, [r2, #268]	; 0x10c
	pcr = PMC->PMC_PCR | PMC_PCR_EN | PMC_PCR_CMD;
  40233c:	4b08      	ldr	r3, [pc, #32]	; (402360 <pmc_enable_periph_clk+0x38>)
  40233e:	f8d3 310c 	ldr.w	r3, [r3, #268]	; 0x10c
  402342:	f043 2310 	orr.w	r3, r3, #268439552	; 0x10001000
  402346:	60fb      	str	r3, [r7, #12]
	PMC->PMC_PCR = pcr;
  402348:	4a05      	ldr	r2, [pc, #20]	; (402360 <pmc_enable_periph_clk+0x38>)
  40234a:	68fb      	ldr	r3, [r7, #12]
  40234c:	f8c2 310c 	str.w	r3, [r2, #268]	; 0x10c
	return 0;
  402350:	2300      	movs	r3, #0
#endif
	}

	return 0;
#endif /* defined(REG_PMC_PCR) && !SAMG55 */
}
  402352:	4618      	mov	r0, r3
  402354:	3714      	adds	r7, #20
  402356:	46bd      	mov	sp, r7
  402358:	f85d 7b04 	ldr.w	r7, [sp], #4
  40235c:	4770      	bx	lr
  40235e:	bf00      	nop
  402360:	400e0600 	.word	0x400e0600

00402364 <pmc_set_flash_in_wait_mode>:
 *
 * \param ul_flash_state PMC_WAIT_MODE_FLASH_STANDBY flash in standby mode,
 * PMC_WAIT_MODE_FLASH_DEEP_POWERDOWN flash in deep power down mode.
 */
void pmc_set_flash_in_wait_mode(uint32_t ul_flash_state)
{
  402364:	b480      	push	{r7}
  402366:	b083      	sub	sp, #12
  402368:	af00      	add	r7, sp, #0
  40236a:	6078      	str	r0, [r7, #4]
	ul_flash_in_wait_mode = ul_flash_state;
  40236c:	4a04      	ldr	r2, [pc, #16]	; (402380 <pmc_set_flash_in_wait_mode+0x1c>)
  40236e:	687b      	ldr	r3, [r7, #4]
  402370:	6013      	str	r3, [r2, #0]
}
  402372:	bf00      	nop
  402374:	370c      	adds	r7, #12
  402376:	46bd      	mov	sp, r7
  402378:	f85d 7b04 	ldr.w	r7, [sp], #4
  40237c:	4770      	bx	lr
  40237e:	bf00      	nop
  402380:	20400004 	.word	0x20400004

00402384 <pmc_enable_waitmode>:
 * Generally, this function will be called by pmc_sleep() in order to
 * complete all sequence entering wait mode.
 * See \ref pmc_sleep() for entering different sleep modes.
 */
void pmc_enable_waitmode(void)
{
  402384:	b480      	push	{r7}
  402386:	b083      	sub	sp, #12
  402388:	af00      	add	r7, sp, #0
	uint32_t i;

	/* Flash in wait mode */
	i = PMC->PMC_FSMR;
  40238a:	4b20      	ldr	r3, [pc, #128]	; (40240c <pmc_enable_waitmode+0x88>)
  40238c:	6f1b      	ldr	r3, [r3, #112]	; 0x70
  40238e:	607b      	str	r3, [r7, #4]
	i &= ~PMC_FSMR_FLPM_Msk;
  402390:	687b      	ldr	r3, [r7, #4]
  402392:	f423 03c0 	bic.w	r3, r3, #6291456	; 0x600000
  402396:	607b      	str	r3, [r7, #4]
#if !(SAMV71 || SAMV70 || SAME70 || SAMS70)
	i |= ul_flash_in_wait_mode;
#else
	(void)ul_flash_in_wait_mode;
	i |= PMC_WAIT_MODE_FLASH_IDLE;
  402398:	687b      	ldr	r3, [r7, #4]
  40239a:	f443 0380 	orr.w	r3, r3, #4194304	; 0x400000
  40239e:	607b      	str	r3, [r7, #4]
#endif
	PMC->PMC_FSMR = i;
  4023a0:	4a1a      	ldr	r2, [pc, #104]	; (40240c <pmc_enable_waitmode+0x88>)
  4023a2:	687b      	ldr	r3, [r7, #4]
  4023a4:	6713      	str	r3, [r2, #112]	; 0x70

	/* Set the WAITMODE bit = 1 */
	PMC->CKGR_MOR |= CKGR_MOR_KEY_PASSWD | CKGR_MOR_WAITMODE;
  4023a6:	4919      	ldr	r1, [pc, #100]	; (40240c <pmc_enable_waitmode+0x88>)
  4023a8:	4b18      	ldr	r3, [pc, #96]	; (40240c <pmc_enable_waitmode+0x88>)
  4023aa:	6a1a      	ldr	r2, [r3, #32]
  4023ac:	4b18      	ldr	r3, [pc, #96]	; (402410 <pmc_enable_waitmode+0x8c>)
  4023ae:	4313      	orrs	r3, r2
  4023b0:	620b      	str	r3, [r1, #32]

	/* Waiting for Master Clock Ready MCKRDY = 1 */
	while (!(PMC->PMC_SR & PMC_SR_MCKRDY));
  4023b2:	bf00      	nop
  4023b4:	4b15      	ldr	r3, [pc, #84]	; (40240c <pmc_enable_waitmode+0x88>)
  4023b6:	6e9b      	ldr	r3, [r3, #104]	; 0x68
  4023b8:	f003 0308 	and.w	r3, r3, #8
  4023bc:	2b00      	cmp	r3, #0
  4023be:	d0f9      	beq.n	4023b4 <pmc_enable_waitmode+0x30>

	/* Waiting for MOSCRCEN bit cleared is strongly recommended
	 * to ensure that the core will not execute undesired instructions
	 */
	for (i = 0; i < 500; i++) {
  4023c0:	2300      	movs	r3, #0
  4023c2:	607b      	str	r3, [r7, #4]
  4023c4:	e003      	b.n	4023ce <pmc_enable_waitmode+0x4a>
  __ASM volatile ("nop");
  4023c6:	bf00      	nop
  4023c8:	687b      	ldr	r3, [r7, #4]
  4023ca:	3301      	adds	r3, #1
  4023cc:	607b      	str	r3, [r7, #4]
  4023ce:	687b      	ldr	r3, [r7, #4]
  4023d0:	f5b3 7ffa 	cmp.w	r3, #500	; 0x1f4
  4023d4:	d3f7      	bcc.n	4023c6 <pmc_enable_waitmode+0x42>
		__NOP();
	}
	while (!(PMC->CKGR_MOR & CKGR_MOR_MOSCRCEN));
  4023d6:	bf00      	nop
  4023d8:	4b0c      	ldr	r3, [pc, #48]	; (40240c <pmc_enable_waitmode+0x88>)
  4023da:	6a1b      	ldr	r3, [r3, #32]
  4023dc:	f003 0308 	and.w	r3, r3, #8
  4023e0:	2b00      	cmp	r3, #0
  4023e2:	d0f9      	beq.n	4023d8 <pmc_enable_waitmode+0x54>

#if (!SAMG)
	/* Restore Flash in idle mode */
	i = PMC->PMC_FSMR;
  4023e4:	4b09      	ldr	r3, [pc, #36]	; (40240c <pmc_enable_waitmode+0x88>)
  4023e6:	6f1b      	ldr	r3, [r3, #112]	; 0x70
  4023e8:	607b      	str	r3, [r7, #4]
	i &= ~PMC_FSMR_FLPM_Msk;
  4023ea:	687b      	ldr	r3, [r7, #4]
  4023ec:	f423 03c0 	bic.w	r3, r3, #6291456	; 0x600000
  4023f0:	607b      	str	r3, [r7, #4]
	i |= PMC_WAIT_MODE_FLASH_IDLE;
  4023f2:	687b      	ldr	r3, [r7, #4]
  4023f4:	f443 0380 	orr.w	r3, r3, #4194304	; 0x400000
  4023f8:	607b      	str	r3, [r7, #4]
	PMC->PMC_FSMR = i;
  4023fa:	4a04      	ldr	r2, [pc, #16]	; (40240c <pmc_enable_waitmode+0x88>)
  4023fc:	687b      	ldr	r3, [r7, #4]
  4023fe:	6713      	str	r3, [r2, #112]	; 0x70
#endif
}
  402400:	bf00      	nop
  402402:	370c      	adds	r7, #12
  402404:	46bd      	mov	sp, r7
  402406:	f85d 7b04 	ldr.w	r7, [sp], #4
  40240a:	4770      	bx	lr
  40240c:	400e0600 	.word	0x400e0600
  402410:	00370004 	.word	0x00370004

00402414 <pmc_sleep>:
static volatile bool b_is_sleep_clock_used = false;
/** Callback invoked once when clocks are restored */
static pmc_callback_wakeup_clocks_restored_t callback_clocks_restored = NULL;

void pmc_sleep(int sleep_mode)
{
  402414:	b590      	push	{r4, r7, lr}
  402416:	b099      	sub	sp, #100	; 0x64
  402418:	af00      	add	r7, sp, #0
  40241a:	6078      	str	r0, [r7, #4]
	switch (sleep_mode) {
  40241c:	687b      	ldr	r3, [r7, #4]
  40241e:	3b01      	subs	r3, #1
  402420:	2b04      	cmp	r3, #4
  402422:	f200 81a5 	bhi.w	402770 <pmc_sleep+0x35c>
  402426:	a201      	add	r2, pc, #4	; (adr r2, 40242c <pmc_sleep+0x18>)
  402428:	f852 f023 	ldr.w	pc, [r2, r3, lsl #2]
  40242c:	00402441 	.word	0x00402441
  402430:	00402441 	.word	0x00402441
  402434:	00402461 	.word	0x00402461
  402438:	00402461 	.word	0x00402461
  40243c:	0040274f 	.word	0x0040274f
	case SAM_PM_SMODE_SLEEP_WFI:
	case SAM_PM_SMODE_SLEEP_WFE:
#if (SAM4S || SAM4E || SAM4N || SAM4C || SAM4CM || SAM4CP || SAMG || SAMV71 || SAMV70 || SAMS70 || SAME70)
		SCB->SCR &= (uint32_t)~SCR_SLEEPDEEP;
  402440:	4a72      	ldr	r2, [pc, #456]	; (40260c <pmc_sleep+0x1f8>)
  402442:	4b72      	ldr	r3, [pc, #456]	; (40260c <pmc_sleep+0x1f8>)
  402444:	691b      	ldr	r3, [r3, #16]
  402446:	f023 0304 	bic.w	r3, r3, #4
  40244a:	6113      	str	r3, [r2, #16]
		cpu_irq_enable();
  40244c:	4b70      	ldr	r3, [pc, #448]	; (402610 <pmc_sleep+0x1fc>)
  40244e:	2201      	movs	r2, #1
  402450:	701a      	strb	r2, [r3, #0]
    This function ensures the apparent order of the explicit memory operations before
    and after the instruction, without ensuring their completion.
 */
__attribute__( ( always_inline ) ) __STATIC_INLINE void __DMB(void)
{
  __ASM volatile ("dmb");
  402452:	f3bf 8f5f 	dmb	sy
  This function enables IRQ interrupts by clearing the I-bit in the CPSR.
  Can only be executed in Privileged modes.
 */
__attribute__( ( always_inline ) ) __STATIC_INLINE void __enable_irq(void)
{
  __ASM volatile ("cpsie i" : : : "memory");
  402456:	b662      	cpsie	i
  __ASM volatile ("dsb");
  402458:	f3bf 8f4f 	dsb	sy
  __ASM volatile ("wfi");
  40245c:	bf30      	wfi
		__DSB();
		__WFI();
		break;
  40245e:	e187      	b.n	402770 <pmc_sleep+0x35c>
#if defined(EFC1)
		uint32_t fmr1;
#endif
#if (SAM4S || SAM4E || SAM4N || SAM4C || SAM4CM || SAM4CP || SAMG || SAMV71 || SAMV70 || SAMS70 || SAME70)
		(sleep_mode == SAM_PM_SMODE_WAIT_FAST) ?
				pmc_set_flash_in_wait_mode(PMC_FSMR_FLPM_FLASH_STANDBY) :
  402460:	687b      	ldr	r3, [r7, #4]
  402462:	2b03      	cmp	r3, #3
  402464:	d103      	bne.n	40246e <pmc_sleep+0x5a>
  402466:	2000      	movs	r0, #0
  402468:	4b6a      	ldr	r3, [pc, #424]	; (402614 <pmc_sleep+0x200>)
  40246a:	4798      	blx	r3
  40246c:	e003      	b.n	402476 <pmc_sleep+0x62>
				pmc_set_flash_in_wait_mode(PMC_FSMR_FLPM_FLASH_DEEP_POWERDOWN);
  40246e:	f44f 1000 	mov.w	r0, #2097152	; 0x200000
  402472:	4b68      	ldr	r3, [pc, #416]	; (402614 <pmc_sleep+0x200>)
  402474:	4798      	blx	r3
  This function disables IRQ interrupts by setting the I-bit in the CPSR.
  Can only be executed in Privileged modes.
 */
__attribute__( ( always_inline ) ) __STATIC_INLINE void __disable_irq(void)
{
  __ASM volatile ("cpsid i" : : : "memory");
  402476:	b672      	cpsid	i
  __ASM volatile ("dmb");
  402478:	f3bf 8f5f 	dmb	sy
#endif
		cpu_irq_disable();
  40247c:	4b64      	ldr	r3, [pc, #400]	; (402610 <pmc_sleep+0x1fc>)
  40247e:	2200      	movs	r2, #0
  402480:	701a      	strb	r2, [r3, #0]
		b_is_sleep_clock_used = true;
  402482:	4b65      	ldr	r3, [pc, #404]	; (402618 <pmc_sleep+0x204>)
  402484:	2201      	movs	r2, #1
  402486:	701a      	strb	r2, [r3, #0]
		/* Backup the sub-system 1 status and stop sub-system 1 */
		uint32_t cpclk_backup = PMC->PMC_SCSR &
				(PMC_SCSR_CPCK | PMC_SCSR_CPBMCK);
		PMC->PMC_SCDR = cpclk_backup | PMC_SCDR_CPKEY_PASSWD;
#endif
		pmc_save_clock_settings(&mor, &pllr0, &pllr1, &mckr, &fmr,
  402488:	687b      	ldr	r3, [r7, #4]
  40248a:	2b04      	cmp	r3, #4
  40248c:	bf0c      	ite	eq
  40248e:	2301      	moveq	r3, #1
  402490:	2300      	movne	r3, #0
  402492:	b2da      	uxtb	r2, r3
  402494:	f107 031c 	add.w	r3, r7, #28
  402498:	643b      	str	r3, [r7, #64]	; 0x40
  40249a:	f107 0318 	add.w	r3, r7, #24
  40249e:	63fb      	str	r3, [r7, #60]	; 0x3c
  4024a0:	f107 0314 	add.w	r3, r7, #20
  4024a4:	63bb      	str	r3, [r7, #56]	; 0x38
  4024a6:	f107 0310 	add.w	r3, r7, #16
  4024aa:	637b      	str	r3, [r7, #52]	; 0x34
  4024ac:	f107 030c 	add.w	r3, r7, #12
  4024b0:	633b      	str	r3, [r7, #48]	; 0x30
  4024b2:	4613      	mov	r3, r2
  4024b4:	f887 302f 	strb.w	r3, [r7, #47]	; 0x2f
	uint32_t mor  = PMC->CKGR_MOR;
  4024b8:	4b58      	ldr	r3, [pc, #352]	; (40261c <pmc_sleep+0x208>)
  4024ba:	6a1b      	ldr	r3, [r3, #32]
  4024bc:	62bb      	str	r3, [r7, #40]	; 0x28
	uint32_t mckr = PMC->PMC_MCKR;
  4024be:	4b57      	ldr	r3, [pc, #348]	; (40261c <pmc_sleep+0x208>)
  4024c0:	6b1b      	ldr	r3, [r3, #48]	; 0x30
  4024c2:	627b      	str	r3, [r7, #36]	; 0x24
	uint32_t fmr  = EFC0->EEFC_FMR;
  4024c4:	4b56      	ldr	r3, [pc, #344]	; (402620 <pmc_sleep+0x20c>)
  4024c6:	681b      	ldr	r3, [r3, #0]
  4024c8:	623b      	str	r3, [r7, #32]
	if (p_osc_setting) {
  4024ca:	6c3b      	ldr	r3, [r7, #64]	; 0x40
  4024cc:	2b00      	cmp	r3, #0
  4024ce:	d002      	beq.n	4024d6 <pmc_sleep+0xc2>
		*p_osc_setting = mor;
  4024d0:	6c3b      	ldr	r3, [r7, #64]	; 0x40
  4024d2:	6aba      	ldr	r2, [r7, #40]	; 0x28
  4024d4:	601a      	str	r2, [r3, #0]
	if (p_pll0_setting) {
  4024d6:	6bfb      	ldr	r3, [r7, #60]	; 0x3c
  4024d8:	2b00      	cmp	r3, #0
  4024da:	d003      	beq.n	4024e4 <pmc_sleep+0xd0>
		*p_pll0_setting = PMC->CKGR_PLLAR;
  4024dc:	4b4f      	ldr	r3, [pc, #316]	; (40261c <pmc_sleep+0x208>)
  4024de:	6a9a      	ldr	r2, [r3, #40]	; 0x28
  4024e0:	6bfb      	ldr	r3, [r7, #60]	; 0x3c
  4024e2:	601a      	str	r2, [r3, #0]
	if (p_pll1_setting) {
  4024e4:	6bbb      	ldr	r3, [r7, #56]	; 0x38
  4024e6:	2b00      	cmp	r3, #0
  4024e8:	d002      	beq.n	4024f0 <pmc_sleep+0xdc>
		*p_pll1_setting = 0;
  4024ea:	6bbb      	ldr	r3, [r7, #56]	; 0x38
  4024ec:	2200      	movs	r2, #0
  4024ee:	601a      	str	r2, [r3, #0]
	if (p_mck_setting) {
  4024f0:	6b7b      	ldr	r3, [r7, #52]	; 0x34
  4024f2:	2b00      	cmp	r3, #0
  4024f4:	d002      	beq.n	4024fc <pmc_sleep+0xe8>
		*p_mck_setting  = mckr;
  4024f6:	6b7b      	ldr	r3, [r7, #52]	; 0x34
  4024f8:	6a7a      	ldr	r2, [r7, #36]	; 0x24
  4024fa:	601a      	str	r2, [r3, #0]
	if (p_fmr_setting) {
  4024fc:	6b3b      	ldr	r3, [r7, #48]	; 0x30
  4024fe:	2b00      	cmp	r3, #0
  402500:	d002      	beq.n	402508 <pmc_sleep+0xf4>
		*p_fmr_setting  = fmr;
  402502:	6b3b      	ldr	r3, [r7, #48]	; 0x30
  402504:	6a3a      	ldr	r2, [r7, #32]
  402506:	601a      	str	r2, [r3, #0]
	PMC->CKGR_MOR = CKGR_MOR_KEY_PASSWD | mor | CKGR_MOR_MOSCRCEN;
  402508:	4944      	ldr	r1, [pc, #272]	; (40261c <pmc_sleep+0x208>)
  40250a:	6aba      	ldr	r2, [r7, #40]	; 0x28
  40250c:	4b45      	ldr	r3, [pc, #276]	; (402624 <pmc_sleep+0x210>)
  40250e:	4313      	orrs	r3, r2
  402510:	620b      	str	r3, [r1, #32]
	if ((mckr & PMC_MCKR_CSS_Msk) > PMC_MCKR_CSS_MAIN_CLK) {
  402512:	6a7b      	ldr	r3, [r7, #36]	; 0x24
  402514:	f003 0303 	and.w	r3, r3, #3
  402518:	2b01      	cmp	r3, #1
  40251a:	d90e      	bls.n	40253a <pmc_sleep+0x126>
		mckr = (mckr & (~PMC_MCKR_CSS_Msk)) | PMC_MCKR_CSS_MAIN_CLK;
  40251c:	6a7b      	ldr	r3, [r7, #36]	; 0x24
  40251e:	f023 0303 	bic.w	r3, r3, #3
  402522:	f043 0301 	orr.w	r3, r3, #1
  402526:	627b      	str	r3, [r7, #36]	; 0x24
		PMC->PMC_MCKR = mckr;
  402528:	4a3c      	ldr	r2, [pc, #240]	; (40261c <pmc_sleep+0x208>)
  40252a:	6a7b      	ldr	r3, [r7, #36]	; 0x24
  40252c:	6313      	str	r3, [r2, #48]	; 0x30
		while(!(PMC->PMC_SR & PMC_SR_MCKRDY));
  40252e:	4b3b      	ldr	r3, [pc, #236]	; (40261c <pmc_sleep+0x208>)
  402530:	6e9b      	ldr	r3, [r3, #104]	; 0x68
  402532:	f003 0308 	and.w	r3, r3, #8
  402536:	2b00      	cmp	r3, #0
  402538:	d0f9      	beq.n	40252e <pmc_sleep+0x11a>
	if (mckr & PMC_MCKR_PRES_Msk) {
  40253a:	6a7b      	ldr	r3, [r7, #36]	; 0x24
  40253c:	f003 0370 	and.w	r3, r3, #112	; 0x70
  402540:	2b00      	cmp	r3, #0
  402542:	d00c      	beq.n	40255e <pmc_sleep+0x14a>
		mckr = (mckr & (~PMC_MCKR_PRES_Msk));
  402544:	6a7b      	ldr	r3, [r7, #36]	; 0x24
  402546:	f023 0370 	bic.w	r3, r3, #112	; 0x70
  40254a:	627b      	str	r3, [r7, #36]	; 0x24
		PMC->PMC_MCKR = mckr;
  40254c:	4a33      	ldr	r2, [pc, #204]	; (40261c <pmc_sleep+0x208>)
  40254e:	6a7b      	ldr	r3, [r7, #36]	; 0x24
  402550:	6313      	str	r3, [r2, #48]	; 0x30
		while(!(PMC->PMC_SR & PMC_SR_MCKRDY));
  402552:	4b32      	ldr	r3, [pc, #200]	; (40261c <pmc_sleep+0x208>)
  402554:	6e9b      	ldr	r3, [r3, #104]	; 0x68
  402556:	f003 0308 	and.w	r3, r3, #8
  40255a:	2b00      	cmp	r3, #0
  40255c:	d0f9      	beq.n	402552 <pmc_sleep+0x13e>
	pmc_disable_pllack();
  40255e:	4b32      	ldr	r3, [pc, #200]	; (402628 <pmc_sleep+0x214>)
  402560:	4798      	blx	r3
	while (!(PMC->PMC_SR & PMC_SR_MOSCRCS));
  402562:	4b2e      	ldr	r3, [pc, #184]	; (40261c <pmc_sleep+0x208>)
  402564:	6e9b      	ldr	r3, [r3, #104]	; 0x68
  402566:	f403 3300 	and.w	r3, r3, #131072	; 0x20000
  40256a:	2b00      	cmp	r3, #0
  40256c:	d0f9      	beq.n	402562 <pmc_sleep+0x14e>
	PMC->CKGR_MOR = (PMC->CKGR_MOR & ~CKGR_MOR_MOSCSEL) |
  40256e:	492b      	ldr	r1, [pc, #172]	; (40261c <pmc_sleep+0x208>)
  402570:	4b2a      	ldr	r3, [pc, #168]	; (40261c <pmc_sleep+0x208>)
  402572:	6a1a      	ldr	r2, [r3, #32]
  402574:	4b2d      	ldr	r3, [pc, #180]	; (40262c <pmc_sleep+0x218>)
  402576:	4013      	ands	r3, r2
  402578:	f443 135c 	orr.w	r3, r3, #3604480	; 0x370000
  40257c:	620b      	str	r3, [r1, #32]
	while (!(PMC->PMC_SR & PMC_SR_MOSCSELS));
  40257e:	4b27      	ldr	r3, [pc, #156]	; (40261c <pmc_sleep+0x208>)
  402580:	6e9b      	ldr	r3, [r3, #104]	; 0x68
  402582:	f403 3380 	and.w	r3, r3, #65536	; 0x10000
  402586:	2b00      	cmp	r3, #0
  402588:	d0f9      	beq.n	40257e <pmc_sleep+0x16a>
	EFC0->EEFC_FMR = fmr & (~EEFC_FMR_FWS_Msk);
  40258a:	4a25      	ldr	r2, [pc, #148]	; (402620 <pmc_sleep+0x20c>)
  40258c:	6a3b      	ldr	r3, [r7, #32]
  40258e:	f423 6370 	bic.w	r3, r3, #3840	; 0xf00
  402592:	6013      	str	r3, [r2, #0]
	if (disable_xtal) {
  402594:	f897 302f 	ldrb.w	r3, [r7, #47]	; 0x2f
  402598:	2b00      	cmp	r3, #0
  40259a:	d007      	beq.n	4025ac <pmc_sleep+0x198>
		PMC->CKGR_MOR = (PMC->CKGR_MOR & ~CKGR_MOR_MOSCXTEN) |
  40259c:	491f      	ldr	r1, [pc, #124]	; (40261c <pmc_sleep+0x208>)
  40259e:	4b1f      	ldr	r3, [pc, #124]	; (40261c <pmc_sleep+0x208>)
  4025a0:	6a1a      	ldr	r2, [r3, #32]
  4025a2:	4b23      	ldr	r3, [pc, #140]	; (402630 <pmc_sleep+0x21c>)
  4025a4:	4013      	ands	r3, r2
  4025a6:	f443 135c 	orr.w	r3, r3, #3604480	; 0x370000
  4025aa:	620b      	str	r3, [r1, #32]
				&fmr1,
#endif
				(sleep_mode == SAM_PM_SMODE_WAIT));

		/* Enter wait mode */
		cpu_irq_enable();
  4025ac:	4b18      	ldr	r3, [pc, #96]	; (402610 <pmc_sleep+0x1fc>)
  4025ae:	2201      	movs	r2, #1
  4025b0:	701a      	strb	r2, [r3, #0]
  4025b2:	f3bf 8f5f 	dmb	sy
  __ASM volatile ("cpsie i" : : : "memory");
  4025b6:	b662      	cpsie	i

		pmc_enable_waitmode();
  4025b8:	4b1e      	ldr	r3, [pc, #120]	; (402634 <pmc_sleep+0x220>)
  4025ba:	4798      	blx	r3
  __ASM volatile ("cpsid i" : : : "memory");
  4025bc:	b672      	cpsid	i
  4025be:	f3bf 8f5f 	dmb	sy

		cpu_irq_disable();
  4025c2:	4b13      	ldr	r3, [pc, #76]	; (402610 <pmc_sleep+0x1fc>)
  4025c4:	2200      	movs	r2, #0
  4025c6:	701a      	strb	r2, [r3, #0]
		pmc_restore_clock_setting(mor, pllr0, pllr1, mckr, fmr
  4025c8:	69fc      	ldr	r4, [r7, #28]
  4025ca:	69b8      	ldr	r0, [r7, #24]
  4025cc:	6979      	ldr	r1, [r7, #20]
  4025ce:	693a      	ldr	r2, [r7, #16]
  4025d0:	68fb      	ldr	r3, [r7, #12]
  4025d2:	65fc      	str	r4, [r7, #92]	; 0x5c
  4025d4:	65b8      	str	r0, [r7, #88]	; 0x58
  4025d6:	6579      	str	r1, [r7, #84]	; 0x54
  4025d8:	653a      	str	r2, [r7, #80]	; 0x50
  4025da:	64fb      	str	r3, [r7, #76]	; 0x4c
	uint32_t pll_sr = 0;
  4025dc:	2300      	movs	r3, #0
  4025de:	64bb      	str	r3, [r7, #72]	; 0x48
	if (CKGR_MOR_MOSCXTBY == (osc_setting & CKGR_MOR_MOSCXTBY)) {
  4025e0:	6dfb      	ldr	r3, [r7, #92]	; 0x5c
  4025e2:	f003 0302 	and.w	r3, r3, #2
  4025e6:	2b00      	cmp	r3, #0
  4025e8:	d02c      	beq.n	402644 <pmc_sleep+0x230>
		PMC->CKGR_MOR = (PMC->CKGR_MOR & ~CKGR_MOR_MOSCXTEN) |
  4025ea:	490c      	ldr	r1, [pc, #48]	; (40261c <pmc_sleep+0x208>)
  4025ec:	4b0b      	ldr	r3, [pc, #44]	; (40261c <pmc_sleep+0x208>)
  4025ee:	6a1b      	ldr	r3, [r3, #32]
				CKGR_MOR_KEY_PASSWD | CKGR_MOR_MOSCXTBY |
  4025f0:	4a11      	ldr	r2, [pc, #68]	; (402638 <pmc_sleep+0x224>)
  4025f2:	401a      	ands	r2, r3
  4025f4:	4b11      	ldr	r3, [pc, #68]	; (40263c <pmc_sleep+0x228>)
  4025f6:	4313      	orrs	r3, r2
		PMC->CKGR_MOR = (PMC->CKGR_MOR & ~CKGR_MOR_MOSCXTEN) |
  4025f8:	620b      	str	r3, [r1, #32]
		PMC->CKGR_MOR = (PMC->CKGR_MOR & ~CKGR_MOR_MOSCRCEN &
  4025fa:	4908      	ldr	r1, [pc, #32]	; (40261c <pmc_sleep+0x208>)
  4025fc:	4b07      	ldr	r3, [pc, #28]	; (40261c <pmc_sleep+0x208>)
  4025fe:	6a1a      	ldr	r2, [r3, #32]
				| CKGR_MOR_KEY_PASSWD;
  402600:	4b0f      	ldr	r3, [pc, #60]	; (402640 <pmc_sleep+0x22c>)
  402602:	4013      	ands	r3, r2
  402604:	f443 135c 	orr.w	r3, r3, #3604480	; 0x370000
		PMC->CKGR_MOR = (PMC->CKGR_MOR & ~CKGR_MOR_MOSCRCEN &
  402608:	620b      	str	r3, [r1, #32]
  40260a:	e04e      	b.n	4026aa <pmc_sleep+0x296>
  40260c:	e000ed00 	.word	0xe000ed00
  402610:	20400000 	.word	0x20400000
  402614:	00402365 	.word	0x00402365
  402618:	20400890 	.word	0x20400890
  40261c:	400e0600 	.word	0x400e0600
  402620:	400e0c00 	.word	0x400e0c00
  402624:	00370008 	.word	0x00370008
  402628:	004022d5 	.word	0x004022d5
  40262c:	fec8ffff 	.word	0xfec8ffff
  402630:	ffc8fffe 	.word	0xffc8fffe
  402634:	00402385 	.word	0x00402385
  402638:	fec8fffc 	.word	0xfec8fffc
  40263c:	01370002 	.word	0x01370002
  402640:	ffc8ff87 	.word	0xffc8ff87
	} else if (CKGR_MOR_MOSCXTEN == (osc_setting & CKGR_MOR_MOSCXTEN)) {
  402644:	6dfb      	ldr	r3, [r7, #92]	; 0x5c
  402646:	f003 0301 	and.w	r3, r3, #1
  40264a:	2b00      	cmp	r3, #0
  40264c:	d02d      	beq.n	4026aa <pmc_sleep+0x296>
		if (!(PMC->CKGR_MOR & CKGR_MOR_MOSCXTEN)) {
  40264e:	4b4a      	ldr	r3, [pc, #296]	; (402778 <pmc_sleep+0x364>)
  402650:	6a1b      	ldr	r3, [r3, #32]
  402652:	f003 0301 	and.w	r3, r3, #1
  402656:	2b00      	cmp	r3, #0
  402658:	d10d      	bne.n	402676 <pmc_sleep+0x262>
			PMC->CKGR_MOR = (PMC->CKGR_MOR & ~CKGR_MOR_MOSCXTBY) |
  40265a:	4947      	ldr	r1, [pc, #284]	; (402778 <pmc_sleep+0x364>)
  40265c:	4b46      	ldr	r3, [pc, #280]	; (402778 <pmc_sleep+0x364>)
  40265e:	6a1b      	ldr	r3, [r3, #32]
					CKGR_MOR_KEY_PASSWD | CKGR_MOR_MOSCXTEN;
  402660:	4a46      	ldr	r2, [pc, #280]	; (40277c <pmc_sleep+0x368>)
  402662:	401a      	ands	r2, r3
  402664:	4b46      	ldr	r3, [pc, #280]	; (402780 <pmc_sleep+0x36c>)
  402666:	4313      	orrs	r3, r2
			PMC->CKGR_MOR = (PMC->CKGR_MOR & ~CKGR_MOR_MOSCXTBY) |
  402668:	620b      	str	r3, [r1, #32]
			while (!(PMC->PMC_SR & PMC_SR_MOSCXTS));
  40266a:	4b43      	ldr	r3, [pc, #268]	; (402778 <pmc_sleep+0x364>)
  40266c:	6e9b      	ldr	r3, [r3, #104]	; 0x68
  40266e:	f003 0301 	and.w	r3, r3, #1
  402672:	2b00      	cmp	r3, #0
  402674:	d0f9      	beq.n	40266a <pmc_sleep+0x256>
		if (!(PMC->CKGR_MOR & CKGR_MOR_MOSCSEL)) {
  402676:	4b40      	ldr	r3, [pc, #256]	; (402778 <pmc_sleep+0x364>)
  402678:	6a1b      	ldr	r3, [r3, #32]
  40267a:	f003 7380 	and.w	r3, r3, #16777216	; 0x1000000
  40267e:	2b00      	cmp	r3, #0
  402680:	d10b      	bne.n	40269a <pmc_sleep+0x286>
			PMC->CKGR_MOR |= CKGR_MOR_KEY_PASSWD | CKGR_MOR_MOSCSEL;
  402682:	493d      	ldr	r1, [pc, #244]	; (402778 <pmc_sleep+0x364>)
  402684:	4b3c      	ldr	r3, [pc, #240]	; (402778 <pmc_sleep+0x364>)
  402686:	6a1a      	ldr	r2, [r3, #32]
  402688:	4b3e      	ldr	r3, [pc, #248]	; (402784 <pmc_sleep+0x370>)
  40268a:	4313      	orrs	r3, r2
  40268c:	620b      	str	r3, [r1, #32]
			while (!(PMC->PMC_SR & PMC_SR_MOSCSELS));
  40268e:	4b3a      	ldr	r3, [pc, #232]	; (402778 <pmc_sleep+0x364>)
  402690:	6e9b      	ldr	r3, [r3, #104]	; 0x68
  402692:	f403 3380 	and.w	r3, r3, #65536	; 0x10000
  402696:	2b00      	cmp	r3, #0
  402698:	d0f9      	beq.n	40268e <pmc_sleep+0x27a>
		PMC->CKGR_MOR = (PMC->CKGR_MOR & ~CKGR_MOR_MOSCRCEN &
  40269a:	4937      	ldr	r1, [pc, #220]	; (402778 <pmc_sleep+0x364>)
  40269c:	4b36      	ldr	r3, [pc, #216]	; (402778 <pmc_sleep+0x364>)
  40269e:	6a1a      	ldr	r2, [r3, #32]
					| CKGR_MOR_KEY_PASSWD;
  4026a0:	4b39      	ldr	r3, [pc, #228]	; (402788 <pmc_sleep+0x374>)
  4026a2:	4013      	ands	r3, r2
  4026a4:	f443 135c 	orr.w	r3, r3, #3604480	; 0x370000
		PMC->CKGR_MOR = (PMC->CKGR_MOR & ~CKGR_MOR_MOSCRCEN &
  4026a8:	620b      	str	r3, [r1, #32]
	if (pll0_setting & CKGR_PLLAR_MULA_Msk) {
  4026aa:	6dba      	ldr	r2, [r7, #88]	; 0x58
  4026ac:	4b37      	ldr	r3, [pc, #220]	; (40278c <pmc_sleep+0x378>)
  4026ae:	4013      	ands	r3, r2
  4026b0:	2b00      	cmp	r3, #0
  4026b2:	d008      	beq.n	4026c6 <pmc_sleep+0x2b2>
		PMC->CKGR_PLLAR = CKGR_PLLAR_ONE | pll0_setting;
  4026b4:	4a30      	ldr	r2, [pc, #192]	; (402778 <pmc_sleep+0x364>)
  4026b6:	6dbb      	ldr	r3, [r7, #88]	; 0x58
  4026b8:	f043 5300 	orr.w	r3, r3, #536870912	; 0x20000000
  4026bc:	6293      	str	r3, [r2, #40]	; 0x28
		pll_sr |= PMC_SR_LOCKA;
  4026be:	6cbb      	ldr	r3, [r7, #72]	; 0x48
  4026c0:	f043 0302 	orr.w	r3, r3, #2
  4026c4:	64bb      	str	r3, [r7, #72]	; 0x48
	switch(mck_setting & PMC_MCKR_CSS_Msk) {
  4026c6:	6d3b      	ldr	r3, [r7, #80]	; 0x50
  4026c8:	f003 0303 	and.w	r3, r3, #3
  4026cc:	2b02      	cmp	r3, #2
  4026ce:	d105      	bne.n	4026dc <pmc_sleep+0x2c8>
		while (!(PMC->PMC_SR & PMC_SR_LOCKA));
  4026d0:	4b29      	ldr	r3, [pc, #164]	; (402778 <pmc_sleep+0x364>)
  4026d2:	6e9b      	ldr	r3, [r3, #104]	; 0x68
  4026d4:	f003 0302 	and.w	r3, r3, #2
  4026d8:	2b00      	cmp	r3, #0
  4026da:	d0f9      	beq.n	4026d0 <pmc_sleep+0x2bc>
	mckr = PMC->PMC_MCKR;
  4026dc:	4b26      	ldr	r3, [pc, #152]	; (402778 <pmc_sleep+0x364>)
  4026de:	6b1b      	ldr	r3, [r3, #48]	; 0x30
  4026e0:	647b      	str	r3, [r7, #68]	; 0x44
	PMC->PMC_MCKR = (mckr & ~PMC_MCKR_PRES_Msk)
  4026e2:	4925      	ldr	r1, [pc, #148]	; (402778 <pmc_sleep+0x364>)
  4026e4:	6c7b      	ldr	r3, [r7, #68]	; 0x44
  4026e6:	f023 0270 	bic.w	r2, r3, #112	; 0x70
		| (mck_setting & PMC_MCKR_PRES_Msk);
  4026ea:	6d3b      	ldr	r3, [r7, #80]	; 0x50
  4026ec:	f003 0370 	and.w	r3, r3, #112	; 0x70
  4026f0:	4313      	orrs	r3, r2
	PMC->PMC_MCKR = (mckr & ~PMC_MCKR_PRES_Msk)
  4026f2:	630b      	str	r3, [r1, #48]	; 0x30
	while (!(PMC->PMC_SR & PMC_SR_MCKRDY));
  4026f4:	4b20      	ldr	r3, [pc, #128]	; (402778 <pmc_sleep+0x364>)
  4026f6:	6e9b      	ldr	r3, [r3, #104]	; 0x68
  4026f8:	f003 0308 	and.w	r3, r3, #8
  4026fc:	2b00      	cmp	r3, #0
  4026fe:	d0f9      	beq.n	4026f4 <pmc_sleep+0x2e0>
	EFC0->EEFC_FMR = fmr_setting;
  402700:	4a23      	ldr	r2, [pc, #140]	; (402790 <pmc_sleep+0x37c>)
  402702:	6cfb      	ldr	r3, [r7, #76]	; 0x4c
  402704:	6013      	str	r3, [r2, #0]
	PMC->PMC_MCKR = mck_setting;
  402706:	4a1c      	ldr	r2, [pc, #112]	; (402778 <pmc_sleep+0x364>)
  402708:	6d3b      	ldr	r3, [r7, #80]	; 0x50
  40270a:	6313      	str	r3, [r2, #48]	; 0x30
	while (!(PMC->PMC_SR & PMC_SR_MCKRDY));
  40270c:	4b1a      	ldr	r3, [pc, #104]	; (402778 <pmc_sleep+0x364>)
  40270e:	6e9b      	ldr	r3, [r3, #104]	; 0x68
  402710:	f003 0308 	and.w	r3, r3, #8
  402714:	2b00      	cmp	r3, #0
  402716:	d0f9      	beq.n	40270c <pmc_sleep+0x2f8>
	while (!(PMC->PMC_SR & pll_sr));
  402718:	4b17      	ldr	r3, [pc, #92]	; (402778 <pmc_sleep+0x364>)
  40271a:	6e9a      	ldr	r2, [r3, #104]	; 0x68
  40271c:	6cbb      	ldr	r3, [r7, #72]	; 0x48
  40271e:	4013      	ands	r3, r2
  402720:	2b00      	cmp	r3, #0
  402722:	d0f9      	beq.n	402718 <pmc_sleep+0x304>

#if (SAM4C || SAM4CM || SAM4CP)
		/* Restore the sub-system 1 */
		PMC->PMC_SCER = cpclk_backup | PMC_SCER_CPKEY_PASSWD;
#endif
		b_is_sleep_clock_used = false;
  402724:	4b1b      	ldr	r3, [pc, #108]	; (402794 <pmc_sleep+0x380>)
  402726:	2200      	movs	r2, #0
  402728:	701a      	strb	r2, [r3, #0]
		if (callback_clocks_restored) {
  40272a:	4b1b      	ldr	r3, [pc, #108]	; (402798 <pmc_sleep+0x384>)
  40272c:	681b      	ldr	r3, [r3, #0]
  40272e:	2b00      	cmp	r3, #0
  402730:	d005      	beq.n	40273e <pmc_sleep+0x32a>
			callback_clocks_restored();
  402732:	4b19      	ldr	r3, [pc, #100]	; (402798 <pmc_sleep+0x384>)
  402734:	681b      	ldr	r3, [r3, #0]
  402736:	4798      	blx	r3
			callback_clocks_restored = NULL;
  402738:	4b17      	ldr	r3, [pc, #92]	; (402798 <pmc_sleep+0x384>)
  40273a:	2200      	movs	r2, #0
  40273c:	601a      	str	r2, [r3, #0]
		}
		cpu_irq_enable();
  40273e:	4b17      	ldr	r3, [pc, #92]	; (40279c <pmc_sleep+0x388>)
  402740:	2201      	movs	r2, #1
  402742:	701a      	strb	r2, [r3, #0]
  402744:	f3bf 8f5f 	dmb	sy
  __ASM volatile ("cpsie i" : : : "memory");
  402748:	b662      	cpsie	i

		break;
  40274a:	bf00      	nop
  40274c:	e010      	b.n	402770 <pmc_sleep+0x35c>
	}
#if (!(SAMG51 || SAMG53 || SAMG54))
	case SAM_PM_SMODE_BACKUP:
		SCB->SCR |= SCR_SLEEPDEEP;
  40274e:	4a14      	ldr	r2, [pc, #80]	; (4027a0 <pmc_sleep+0x38c>)
  402750:	4b13      	ldr	r3, [pc, #76]	; (4027a0 <pmc_sleep+0x38c>)
  402752:	691b      	ldr	r3, [r3, #16]
  402754:	f043 0304 	orr.w	r3, r3, #4
  402758:	6113      	str	r3, [r2, #16]
#if (SAM4S || SAM4E || SAM4N || SAM4C || SAM4CM || SAM4CP || SAMG55 || SAMV71 || SAMV70 || SAMS70 || SAME70)
		SUPC->SUPC_CR = SUPC_CR_KEY_PASSWD | SUPC_CR_VROFF_STOP_VREG;
  40275a:	4b12      	ldr	r3, [pc, #72]	; (4027a4 <pmc_sleep+0x390>)
  40275c:	4a12      	ldr	r2, [pc, #72]	; (4027a8 <pmc_sleep+0x394>)
  40275e:	601a      	str	r2, [r3, #0]
		cpu_irq_enable();
  402760:	4b0e      	ldr	r3, [pc, #56]	; (40279c <pmc_sleep+0x388>)
  402762:	2201      	movs	r2, #1
  402764:	701a      	strb	r2, [r3, #0]
  402766:	f3bf 8f5f 	dmb	sy
  40276a:	b662      	cpsie	i
  __ASM volatile ("wfi");
  40276c:	bf30      	wfi
		__WFI() ;
#else
		cpu_irq_enable();
		__WFE() ;
#endif
		break;
  40276e:	bf00      	nop
#endif
	}
}
  402770:	bf00      	nop
  402772:	3764      	adds	r7, #100	; 0x64
  402774:	46bd      	mov	sp, r7
  402776:	bd90      	pop	{r4, r7, pc}
  402778:	400e0600 	.word	0x400e0600
  40277c:	ffc8fffc 	.word	0xffc8fffc
  402780:	00370001 	.word	0x00370001
  402784:	01370000 	.word	0x01370000
  402788:	ffc8ff87 	.word	0xffc8ff87
  40278c:	07ff0000 	.word	0x07ff0000
  402790:	400e0c00 	.word	0x400e0c00
  402794:	20400890 	.word	0x20400890
  402798:	20400894 	.word	0x20400894
  40279c:	20400000 	.word	0x20400000
  4027a0:	e000ed00 	.word	0xe000ed00
  4027a4:	400e1810 	.word	0x400e1810
  4027a8:	a5000004 	.word	0xa5000004

004027ac <cpu_irq_save>:

static volatile uint32_t cpu_irq_critical_section_counter;
static volatile bool     cpu_irq_prev_interrupt_state;

static inline irqflags_t cpu_irq_save(void)
{
  4027ac:	b480      	push	{r7}
  4027ae:	b083      	sub	sp, #12
  4027b0:	af00      	add	r7, sp, #0
 */
__attribute__( ( always_inline ) ) __STATIC_INLINE uint32_t __get_PRIMASK(void)
{
  uint32_t result;

  __ASM volatile ("MRS %0, primask" : "=r" (result) );
  4027b2:	f3ef 8310 	mrs	r3, PRIMASK
  4027b6:	607b      	str	r3, [r7, #4]
  return(result);
  4027b8:	687b      	ldr	r3, [r7, #4]
	volatile irqflags_t flags = cpu_irq_is_enabled();
  4027ba:	2b00      	cmp	r3, #0
  4027bc:	bf0c      	ite	eq
  4027be:	2301      	moveq	r3, #1
  4027c0:	2300      	movne	r3, #0
  4027c2:	b2db      	uxtb	r3, r3
  4027c4:	603b      	str	r3, [r7, #0]
  __ASM volatile ("cpsid i" : : : "memory");
  4027c6:	b672      	cpsid	i
  __ASM volatile ("dmb");
  4027c8:	f3bf 8f5f 	dmb	sy
	cpu_irq_disable();
  4027cc:	4b04      	ldr	r3, [pc, #16]	; (4027e0 <cpu_irq_save+0x34>)
  4027ce:	2200      	movs	r2, #0
  4027d0:	701a      	strb	r2, [r3, #0]
	return flags;
  4027d2:	683b      	ldr	r3, [r7, #0]
}
  4027d4:	4618      	mov	r0, r3
  4027d6:	370c      	adds	r7, #12
  4027d8:	46bd      	mov	sp, r7
  4027da:	f85d 7b04 	ldr.w	r7, [sp], #4
  4027de:	4770      	bx	lr
  4027e0:	20400000 	.word	0x20400000

004027e4 <cpu_irq_is_enabled_flags>:

static inline bool cpu_irq_is_enabled_flags(irqflags_t flags)
{
  4027e4:	b480      	push	{r7}
  4027e6:	b083      	sub	sp, #12
  4027e8:	af00      	add	r7, sp, #0
  4027ea:	6078      	str	r0, [r7, #4]
	return (flags);
  4027ec:	687b      	ldr	r3, [r7, #4]
  4027ee:	2b00      	cmp	r3, #0
  4027f0:	bf14      	ite	ne
  4027f2:	2301      	movne	r3, #1
  4027f4:	2300      	moveq	r3, #0
  4027f6:	b2db      	uxtb	r3, r3
}
  4027f8:	4618      	mov	r0, r3
  4027fa:	370c      	adds	r7, #12
  4027fc:	46bd      	mov	sp, r7
  4027fe:	f85d 7b04 	ldr.w	r7, [sp], #4
  402802:	4770      	bx	lr

00402804 <cpu_irq_restore>:

static inline void cpu_irq_restore(irqflags_t flags)
{
  402804:	b580      	push	{r7, lr}
  402806:	b082      	sub	sp, #8
  402808:	af00      	add	r7, sp, #0
  40280a:	6078      	str	r0, [r7, #4]
	if (cpu_irq_is_enabled_flags(flags))
  40280c:	6878      	ldr	r0, [r7, #4]
  40280e:	4b07      	ldr	r3, [pc, #28]	; (40282c <cpu_irq_restore+0x28>)
  402810:	4798      	blx	r3
  402812:	4603      	mov	r3, r0
  402814:	2b00      	cmp	r3, #0
  402816:	d005      	beq.n	402824 <cpu_irq_restore+0x20>
		cpu_irq_enable();
  402818:	4b05      	ldr	r3, [pc, #20]	; (402830 <cpu_irq_restore+0x2c>)
  40281a:	2201      	movs	r2, #1
  40281c:	701a      	strb	r2, [r3, #0]
  40281e:	f3bf 8f5f 	dmb	sy
  __ASM volatile ("cpsie i" : : : "memory");
  402822:	b662      	cpsie	i
}
  402824:	bf00      	nop
  402826:	3708      	adds	r7, #8
  402828:	46bd      	mov	sp, r7
  40282a:	bd80      	pop	{r7, pc}
  40282c:	004027e5 	.word	0x004027e5
  402830:	20400000 	.word	0x20400000

00402834 <Reset_Handler>:
/**
 * \brief This is the code that gets called on processor reset.
 * To initialize the device, and call the main() routine.
 */
void Reset_Handler(void)
{
  402834:	b580      	push	{r7, lr}
  402836:	b084      	sub	sp, #16
  402838:	af00      	add	r7, sp, #0
        uint32_t *pSrc, *pDest;

        /* Initialize the relocate segment */
        pSrc = &_etext;
  40283a:	4b1e      	ldr	r3, [pc, #120]	; (4028b4 <Reset_Handler+0x80>)
  40283c:	60fb      	str	r3, [r7, #12]
        pDest = &_srelocate;
  40283e:	4b1e      	ldr	r3, [pc, #120]	; (4028b8 <Reset_Handler+0x84>)
  402840:	60bb      	str	r3, [r7, #8]

        if (pSrc != pDest) {
  402842:	68fa      	ldr	r2, [r7, #12]
  402844:	68bb      	ldr	r3, [r7, #8]
  402846:	429a      	cmp	r2, r3
  402848:	d00c      	beq.n	402864 <Reset_Handler+0x30>
                for (; pDest < &_erelocate;) {
  40284a:	e007      	b.n	40285c <Reset_Handler+0x28>
                        *pDest++ = *pSrc++;
  40284c:	68bb      	ldr	r3, [r7, #8]
  40284e:	1d1a      	adds	r2, r3, #4
  402850:	60ba      	str	r2, [r7, #8]
  402852:	68fa      	ldr	r2, [r7, #12]
  402854:	1d11      	adds	r1, r2, #4
  402856:	60f9      	str	r1, [r7, #12]
  402858:	6812      	ldr	r2, [r2, #0]
  40285a:	601a      	str	r2, [r3, #0]
                for (; pDest < &_erelocate;) {
  40285c:	68bb      	ldr	r3, [r7, #8]
  40285e:	4a17      	ldr	r2, [pc, #92]	; (4028bc <Reset_Handler+0x88>)
  402860:	4293      	cmp	r3, r2
  402862:	d3f3      	bcc.n	40284c <Reset_Handler+0x18>
                }
        }

        /* Clear the zero segment */
        for (pDest = &_szero; pDest < &_ezero;) {
  402864:	4b16      	ldr	r3, [pc, #88]	; (4028c0 <Reset_Handler+0x8c>)
  402866:	60bb      	str	r3, [r7, #8]
  402868:	e004      	b.n	402874 <Reset_Handler+0x40>
                *pDest++ = 0;
  40286a:	68bb      	ldr	r3, [r7, #8]
  40286c:	1d1a      	adds	r2, r3, #4
  40286e:	60ba      	str	r2, [r7, #8]
  402870:	2200      	movs	r2, #0
  402872:	601a      	str	r2, [r3, #0]
        for (pDest = &_szero; pDest < &_ezero;) {
  402874:	68bb      	ldr	r3, [r7, #8]
  402876:	4a13      	ldr	r2, [pc, #76]	; (4028c4 <Reset_Handler+0x90>)
  402878:	4293      	cmp	r3, r2
  40287a:	d3f6      	bcc.n	40286a <Reset_Handler+0x36>
        }

        /* Set the vector table base address */
        pSrc = (uint32_t *) & _sfixed;
  40287c:	4b12      	ldr	r3, [pc, #72]	; (4028c8 <Reset_Handler+0x94>)
  40287e:	60fb      	str	r3, [r7, #12]
        SCB->VTOR = ((uint32_t) pSrc & SCB_VTOR_TBLOFF_Msk);
  402880:	4a12      	ldr	r2, [pc, #72]	; (4028cc <Reset_Handler+0x98>)
  402882:	68fb      	ldr	r3, [r7, #12]
  402884:	f023 037f 	bic.w	r3, r3, #127	; 0x7f
  402888:	6093      	str	r3, [r2, #8]
 * \brief Enable FPU
 */
__always_inline static void fpu_enable(void)
{
	irqflags_t flags;
	flags = cpu_irq_save();
  40288a:	4b11      	ldr	r3, [pc, #68]	; (4028d0 <Reset_Handler+0x9c>)
  40288c:	4798      	blx	r3
  40288e:	6078      	str	r0, [r7, #4]
	REG_CPACR |=  (0xFu << 20);
  402890:	4a10      	ldr	r2, [pc, #64]	; (4028d4 <Reset_Handler+0xa0>)
  402892:	4b10      	ldr	r3, [pc, #64]	; (4028d4 <Reset_Handler+0xa0>)
  402894:	681b      	ldr	r3, [r3, #0]
  402896:	f443 0370 	orr.w	r3, r3, #15728640	; 0xf00000
  40289a:	6013      	str	r3, [r2, #0]
  __ASM volatile ("dsb");
  40289c:	f3bf 8f4f 	dsb	sy
  __ASM volatile ("isb");
  4028a0:	f3bf 8f6f 	isb	sy
	__DSB();
	__ISB();
	cpu_irq_restore(flags);
  4028a4:	6878      	ldr	r0, [r7, #4]
  4028a6:	4b0c      	ldr	r3, [pc, #48]	; (4028d8 <Reset_Handler+0xa4>)
  4028a8:	4798      	blx	r3
#if __FPU_USED
	fpu_enable();
#endif

        /* Initialize the C library */
        __libc_init_array();
  4028aa:	4b0c      	ldr	r3, [pc, #48]	; (4028dc <Reset_Handler+0xa8>)
  4028ac:	4798      	blx	r3

        /* Branch to main function */
        main();
  4028ae:	4b0c      	ldr	r3, [pc, #48]	; (4028e0 <Reset_Handler+0xac>)
  4028b0:	4798      	blx	r3

        /* Infinite loop */
        while (1);
  4028b2:	e7fe      	b.n	4028b2 <Reset_Handler+0x7e>
  4028b4:	0041b760 	.word	0x0041b760
  4028b8:	20400000 	.word	0x20400000
  4028bc:	2040043c 	.word	0x2040043c
  4028c0:	2040043c 	.word	0x2040043c
  4028c4:	204008cc 	.word	0x204008cc
  4028c8:	00400000 	.word	0x00400000
  4028cc:	e000ed00 	.word	0xe000ed00
  4028d0:	004027ad 	.word	0x004027ad
  4028d4:	e000ed88 	.word	0xe000ed88
  4028d8:	00402805 	.word	0x00402805
  4028dc:	00402b05 	.word	0x00402b05
  4028e0:	004003bd 	.word	0x004003bd

004028e4 <Dummy_Handler>:

/**
 * \brief Default interrupt handler for unused IRQs.
 */
void Dummy_Handler(void)
{
  4028e4:	b480      	push	{r7}
  4028e6:	af00      	add	r7, sp, #0
        while (1) {
  4028e8:	e7fe      	b.n	4028e8 <Dummy_Handler+0x4>
	...

004028ec <SystemCoreClockUpdate>:

  SystemCoreClock = CHIP_FREQ_CPU_MAX;
}

void SystemCoreClockUpdate( void )
{
  4028ec:	b480      	push	{r7}
  4028ee:	af00      	add	r7, sp, #0
  /* Determine clock frequency according to clock register values */
  switch (PMC->PMC_MCKR & (uint32_t) PMC_MCKR_CSS_Msk)
  4028f0:	4b52      	ldr	r3, [pc, #328]	; (402a3c <SystemCoreClockUpdate+0x150>)
  4028f2:	6b1b      	ldr	r3, [r3, #48]	; 0x30
  4028f4:	f003 0303 	and.w	r3, r3, #3
  4028f8:	2b01      	cmp	r3, #1
  4028fa:	d014      	beq.n	402926 <SystemCoreClockUpdate+0x3a>
  4028fc:	2b01      	cmp	r3, #1
  4028fe:	d302      	bcc.n	402906 <SystemCoreClockUpdate+0x1a>
  402900:	2b02      	cmp	r3, #2
  402902:	d038      	beq.n	402976 <SystemCoreClockUpdate+0x8a>
        SystemCoreClock /= ((((PMC->CKGR_PLLAR) & CKGR_PLLAR_DIVA_Msk) >> CKGR_PLLAR_DIVA_Pos));
      }
    break;

    default:
    break;
  402904:	e07a      	b.n	4029fc <SystemCoreClockUpdate+0x110>
      if ( SUPC->SUPC_SR & SUPC_SR_OSCSEL )
  402906:	4b4e      	ldr	r3, [pc, #312]	; (402a40 <SystemCoreClockUpdate+0x154>)
  402908:	695b      	ldr	r3, [r3, #20]
  40290a:	f003 0380 	and.w	r3, r3, #128	; 0x80
  40290e:	2b00      	cmp	r3, #0
  402910:	d004      	beq.n	40291c <SystemCoreClockUpdate+0x30>
        SystemCoreClock = CHIP_FREQ_XTAL_32K;
  402912:	4b4c      	ldr	r3, [pc, #304]	; (402a44 <SystemCoreClockUpdate+0x158>)
  402914:	f44f 4200 	mov.w	r2, #32768	; 0x8000
  402918:	601a      	str	r2, [r3, #0]
    break;
  40291a:	e06f      	b.n	4029fc <SystemCoreClockUpdate+0x110>
        SystemCoreClock = CHIP_FREQ_SLCK_RC;
  40291c:	4b49      	ldr	r3, [pc, #292]	; (402a44 <SystemCoreClockUpdate+0x158>)
  40291e:	f44f 42fa 	mov.w	r2, #32000	; 0x7d00
  402922:	601a      	str	r2, [r3, #0]
    break;
  402924:	e06a      	b.n	4029fc <SystemCoreClockUpdate+0x110>
      if ( PMC->CKGR_MOR & CKGR_MOR_MOSCSEL )
  402926:	4b45      	ldr	r3, [pc, #276]	; (402a3c <SystemCoreClockUpdate+0x150>)
  402928:	6a1b      	ldr	r3, [r3, #32]
  40292a:	f003 7380 	and.w	r3, r3, #16777216	; 0x1000000
  40292e:	2b00      	cmp	r3, #0
  402930:	d003      	beq.n	40293a <SystemCoreClockUpdate+0x4e>
        SystemCoreClock = CHIP_FREQ_XTAL_12M;
  402932:	4b44      	ldr	r3, [pc, #272]	; (402a44 <SystemCoreClockUpdate+0x158>)
  402934:	4a44      	ldr	r2, [pc, #272]	; (402a48 <SystemCoreClockUpdate+0x15c>)
  402936:	601a      	str	r2, [r3, #0]
    break;
  402938:	e060      	b.n	4029fc <SystemCoreClockUpdate+0x110>
        SystemCoreClock = CHIP_FREQ_MAINCK_RC_4MHZ;
  40293a:	4b42      	ldr	r3, [pc, #264]	; (402a44 <SystemCoreClockUpdate+0x158>)
  40293c:	4a43      	ldr	r2, [pc, #268]	; (402a4c <SystemCoreClockUpdate+0x160>)
  40293e:	601a      	str	r2, [r3, #0]
        switch ( PMC->CKGR_MOR & CKGR_MOR_MOSCRCF_Msk )
  402940:	4b3e      	ldr	r3, [pc, #248]	; (402a3c <SystemCoreClockUpdate+0x150>)
  402942:	6a1b      	ldr	r3, [r3, #32]
  402944:	f003 0370 	and.w	r3, r3, #112	; 0x70
  402948:	2b10      	cmp	r3, #16
  40294a:	d004      	beq.n	402956 <SystemCoreClockUpdate+0x6a>
  40294c:	2b20      	cmp	r3, #32
  40294e:	d008      	beq.n	402962 <SystemCoreClockUpdate+0x76>
  402950:	2b00      	cmp	r3, #0
  402952:	d00e      	beq.n	402972 <SystemCoreClockUpdate+0x86>
          break;
  402954:	e00e      	b.n	402974 <SystemCoreClockUpdate+0x88>
            SystemCoreClock *= 2U;
  402956:	4b3b      	ldr	r3, [pc, #236]	; (402a44 <SystemCoreClockUpdate+0x158>)
  402958:	681b      	ldr	r3, [r3, #0]
  40295a:	005b      	lsls	r3, r3, #1
  40295c:	4a39      	ldr	r2, [pc, #228]	; (402a44 <SystemCoreClockUpdate+0x158>)
  40295e:	6013      	str	r3, [r2, #0]
          break;
  402960:	e008      	b.n	402974 <SystemCoreClockUpdate+0x88>
            SystemCoreClock *= 3U;
  402962:	4b38      	ldr	r3, [pc, #224]	; (402a44 <SystemCoreClockUpdate+0x158>)
  402964:	681a      	ldr	r2, [r3, #0]
  402966:	4613      	mov	r3, r2
  402968:	005b      	lsls	r3, r3, #1
  40296a:	4413      	add	r3, r2
  40296c:	4a35      	ldr	r2, [pc, #212]	; (402a44 <SystemCoreClockUpdate+0x158>)
  40296e:	6013      	str	r3, [r2, #0]
          break;
  402970:	e000      	b.n	402974 <SystemCoreClockUpdate+0x88>
          break;
  402972:	bf00      	nop
    break;
  402974:	e042      	b.n	4029fc <SystemCoreClockUpdate+0x110>
      if ( PMC->CKGR_MOR & CKGR_MOR_MOSCSEL )
  402976:	4b31      	ldr	r3, [pc, #196]	; (402a3c <SystemCoreClockUpdate+0x150>)
  402978:	6a1b      	ldr	r3, [r3, #32]
  40297a:	f003 7380 	and.w	r3, r3, #16777216	; 0x1000000
  40297e:	2b00      	cmp	r3, #0
  402980:	d003      	beq.n	40298a <SystemCoreClockUpdate+0x9e>
        SystemCoreClock = CHIP_FREQ_XTAL_12M ;
  402982:	4b30      	ldr	r3, [pc, #192]	; (402a44 <SystemCoreClockUpdate+0x158>)
  402984:	4a30      	ldr	r2, [pc, #192]	; (402a48 <SystemCoreClockUpdate+0x15c>)
  402986:	601a      	str	r2, [r3, #0]
  402988:	e01c      	b.n	4029c4 <SystemCoreClockUpdate+0xd8>
        SystemCoreClock = CHIP_FREQ_MAINCK_RC_4MHZ;
  40298a:	4b2e      	ldr	r3, [pc, #184]	; (402a44 <SystemCoreClockUpdate+0x158>)
  40298c:	4a2f      	ldr	r2, [pc, #188]	; (402a4c <SystemCoreClockUpdate+0x160>)
  40298e:	601a      	str	r2, [r3, #0]
        switch ( PMC->CKGR_MOR & CKGR_MOR_MOSCRCF_Msk )
  402990:	4b2a      	ldr	r3, [pc, #168]	; (402a3c <SystemCoreClockUpdate+0x150>)
  402992:	6a1b      	ldr	r3, [r3, #32]
  402994:	f003 0370 	and.w	r3, r3, #112	; 0x70
  402998:	2b10      	cmp	r3, #16
  40299a:	d004      	beq.n	4029a6 <SystemCoreClockUpdate+0xba>
  40299c:	2b20      	cmp	r3, #32
  40299e:	d008      	beq.n	4029b2 <SystemCoreClockUpdate+0xc6>
  4029a0:	2b00      	cmp	r3, #0
  4029a2:	d00e      	beq.n	4029c2 <SystemCoreClockUpdate+0xd6>
          break;
  4029a4:	e00e      	b.n	4029c4 <SystemCoreClockUpdate+0xd8>
            SystemCoreClock *= 2U;
  4029a6:	4b27      	ldr	r3, [pc, #156]	; (402a44 <SystemCoreClockUpdate+0x158>)
  4029a8:	681b      	ldr	r3, [r3, #0]
  4029aa:	005b      	lsls	r3, r3, #1
  4029ac:	4a25      	ldr	r2, [pc, #148]	; (402a44 <SystemCoreClockUpdate+0x158>)
  4029ae:	6013      	str	r3, [r2, #0]
          break;
  4029b0:	e008      	b.n	4029c4 <SystemCoreClockUpdate+0xd8>
            SystemCoreClock *= 3U;
  4029b2:	4b24      	ldr	r3, [pc, #144]	; (402a44 <SystemCoreClockUpdate+0x158>)
  4029b4:	681a      	ldr	r2, [r3, #0]
  4029b6:	4613      	mov	r3, r2
  4029b8:	005b      	lsls	r3, r3, #1
  4029ba:	4413      	add	r3, r2
  4029bc:	4a21      	ldr	r2, [pc, #132]	; (402a44 <SystemCoreClockUpdate+0x158>)
  4029be:	6013      	str	r3, [r2, #0]
          break;
  4029c0:	e000      	b.n	4029c4 <SystemCoreClockUpdate+0xd8>
          break;
  4029c2:	bf00      	nop
      if ( (uint32_t) (PMC->PMC_MCKR & (uint32_t) PMC_MCKR_CSS_Msk) == PMC_MCKR_CSS_PLLA_CLK )
  4029c4:	4b1d      	ldr	r3, [pc, #116]	; (402a3c <SystemCoreClockUpdate+0x150>)
  4029c6:	6b1b      	ldr	r3, [r3, #48]	; 0x30
  4029c8:	f003 0303 	and.w	r3, r3, #3
  4029cc:	2b02      	cmp	r3, #2
  4029ce:	d114      	bne.n	4029fa <SystemCoreClockUpdate+0x10e>
        SystemCoreClock *= ((((PMC->CKGR_PLLAR) & CKGR_PLLAR_MULA_Msk) >> CKGR_PLLAR_MULA_Pos) + 1U);
  4029d0:	4b1a      	ldr	r3, [pc, #104]	; (402a3c <SystemCoreClockUpdate+0x150>)
  4029d2:	6a9b      	ldr	r3, [r3, #40]	; 0x28
  4029d4:	0c1b      	lsrs	r3, r3, #16
  4029d6:	f3c3 030a 	ubfx	r3, r3, #0, #11
  4029da:	3301      	adds	r3, #1
  4029dc:	4a19      	ldr	r2, [pc, #100]	; (402a44 <SystemCoreClockUpdate+0x158>)
  4029de:	6812      	ldr	r2, [r2, #0]
  4029e0:	fb02 f303 	mul.w	r3, r2, r3
  4029e4:	4a17      	ldr	r2, [pc, #92]	; (402a44 <SystemCoreClockUpdate+0x158>)
  4029e6:	6013      	str	r3, [r2, #0]
        SystemCoreClock /= ((((PMC->CKGR_PLLAR) & CKGR_PLLAR_DIVA_Msk) >> CKGR_PLLAR_DIVA_Pos));
  4029e8:	4b14      	ldr	r3, [pc, #80]	; (402a3c <SystemCoreClockUpdate+0x150>)
  4029ea:	6a9b      	ldr	r3, [r3, #40]	; 0x28
  4029ec:	b2db      	uxtb	r3, r3
  4029ee:	4a15      	ldr	r2, [pc, #84]	; (402a44 <SystemCoreClockUpdate+0x158>)
  4029f0:	6812      	ldr	r2, [r2, #0]
  4029f2:	fbb2 f3f3 	udiv	r3, r2, r3
  4029f6:	4a13      	ldr	r2, [pc, #76]	; (402a44 <SystemCoreClockUpdate+0x158>)
  4029f8:	6013      	str	r3, [r2, #0]
    break;
  4029fa:	bf00      	nop
  }

  if ( (PMC->PMC_MCKR & PMC_MCKR_PRES_Msk) == PMC_MCKR_PRES_CLK_3 )
  4029fc:	4b0f      	ldr	r3, [pc, #60]	; (402a3c <SystemCoreClockUpdate+0x150>)
  4029fe:	6b1b      	ldr	r3, [r3, #48]	; 0x30
  402a00:	f003 0370 	and.w	r3, r3, #112	; 0x70
  402a04:	2b70      	cmp	r3, #112	; 0x70
  402a06:	d108      	bne.n	402a1a <SystemCoreClockUpdate+0x12e>
  {
    SystemCoreClock /= 3U;
  402a08:	4b0e      	ldr	r3, [pc, #56]	; (402a44 <SystemCoreClockUpdate+0x158>)
  402a0a:	681b      	ldr	r3, [r3, #0]
  402a0c:	4a10      	ldr	r2, [pc, #64]	; (402a50 <SystemCoreClockUpdate+0x164>)
  402a0e:	fba2 2303 	umull	r2, r3, r2, r3
  402a12:	085b      	lsrs	r3, r3, #1
  402a14:	4a0b      	ldr	r2, [pc, #44]	; (402a44 <SystemCoreClockUpdate+0x158>)
  402a16:	6013      	str	r3, [r2, #0]
  }
  else
  {
    SystemCoreClock >>= ((PMC->PMC_MCKR & PMC_MCKR_PRES_Msk) >> PMC_MCKR_PRES_Pos);
  }
}
  402a18:	e00a      	b.n	402a30 <SystemCoreClockUpdate+0x144>
    SystemCoreClock >>= ((PMC->PMC_MCKR & PMC_MCKR_PRES_Msk) >> PMC_MCKR_PRES_Pos);
  402a1a:	4b08      	ldr	r3, [pc, #32]	; (402a3c <SystemCoreClockUpdate+0x150>)
  402a1c:	6b1b      	ldr	r3, [r3, #48]	; 0x30
  402a1e:	091b      	lsrs	r3, r3, #4
  402a20:	f003 0307 	and.w	r3, r3, #7
  402a24:	4a07      	ldr	r2, [pc, #28]	; (402a44 <SystemCoreClockUpdate+0x158>)
  402a26:	6812      	ldr	r2, [r2, #0]
  402a28:	fa22 f303 	lsr.w	r3, r2, r3
  402a2c:	4a05      	ldr	r2, [pc, #20]	; (402a44 <SystemCoreClockUpdate+0x158>)
  402a2e:	6013      	str	r3, [r2, #0]
}
  402a30:	bf00      	nop
  402a32:	46bd      	mov	sp, r7
  402a34:	f85d 7b04 	ldr.w	r7, [sp], #4
  402a38:	4770      	bx	lr
  402a3a:	bf00      	nop
  402a3c:	400e0600 	.word	0x400e0600
  402a40:	400e1810 	.word	0x400e1810
  402a44:	20400008 	.word	0x20400008
  402a48:	00b71b00 	.word	0x00b71b00
  402a4c:	003d0900 	.word	0x003d0900
  402a50:	aaaaaaab 	.word	0xaaaaaaab

00402a54 <system_init_flash>:
/**
 * Initialize flash.
 */
void system_init_flash( uint32_t ul_clk )
{
  402a54:	b480      	push	{r7}
  402a56:	b083      	sub	sp, #12
  402a58:	af00      	add	r7, sp, #0
  402a5a:	6078      	str	r0, [r7, #4]
  /* Set FWS for embedded Flash access according to operating frequency */
  if ( ul_clk < CHIP_FREQ_FWS_0 )
  402a5c:	687b      	ldr	r3, [r7, #4]
  402a5e:	4a1d      	ldr	r2, [pc, #116]	; (402ad4 <system_init_flash+0x80>)
  402a60:	4293      	cmp	r3, r2
  402a62:	d804      	bhi.n	402a6e <system_init_flash+0x1a>
  {
    EFC->EEFC_FMR = EEFC_FMR_FWS(0)|EEFC_FMR_CLOE;
  402a64:	4b1c      	ldr	r3, [pc, #112]	; (402ad8 <system_init_flash+0x84>)
  402a66:	f04f 6280 	mov.w	r2, #67108864	; 0x4000000
  402a6a:	601a      	str	r2, [r3, #0]
          }
        }
      }
    }
  }
}
  402a6c:	e02b      	b.n	402ac6 <system_init_flash+0x72>
    if (ul_clk < CHIP_FREQ_FWS_1)
  402a6e:	687b      	ldr	r3, [r7, #4]
  402a70:	4a1a      	ldr	r2, [pc, #104]	; (402adc <system_init_flash+0x88>)
  402a72:	4293      	cmp	r3, r2
  402a74:	d803      	bhi.n	402a7e <system_init_flash+0x2a>
      EFC->EEFC_FMR = EEFC_FMR_FWS(1)|EEFC_FMR_CLOE;
  402a76:	4b18      	ldr	r3, [pc, #96]	; (402ad8 <system_init_flash+0x84>)
  402a78:	4a19      	ldr	r2, [pc, #100]	; (402ae0 <system_init_flash+0x8c>)
  402a7a:	601a      	str	r2, [r3, #0]
}
  402a7c:	e023      	b.n	402ac6 <system_init_flash+0x72>
      if (ul_clk < CHIP_FREQ_FWS_2)
  402a7e:	687b      	ldr	r3, [r7, #4]
  402a80:	4a18      	ldr	r2, [pc, #96]	; (402ae4 <system_init_flash+0x90>)
  402a82:	4293      	cmp	r3, r2
  402a84:	d803      	bhi.n	402a8e <system_init_flash+0x3a>
        EFC->EEFC_FMR = EEFC_FMR_FWS(2)|EEFC_FMR_CLOE;
  402a86:	4b14      	ldr	r3, [pc, #80]	; (402ad8 <system_init_flash+0x84>)
  402a88:	4a17      	ldr	r2, [pc, #92]	; (402ae8 <system_init_flash+0x94>)
  402a8a:	601a      	str	r2, [r3, #0]
}
  402a8c:	e01b      	b.n	402ac6 <system_init_flash+0x72>
        if ( ul_clk < CHIP_FREQ_FWS_3 )
  402a8e:	687b      	ldr	r3, [r7, #4]
  402a90:	4a16      	ldr	r2, [pc, #88]	; (402aec <system_init_flash+0x98>)
  402a92:	4293      	cmp	r3, r2
  402a94:	d803      	bhi.n	402a9e <system_init_flash+0x4a>
          EFC->EEFC_FMR = EEFC_FMR_FWS(3)|EEFC_FMR_CLOE;
  402a96:	4b10      	ldr	r3, [pc, #64]	; (402ad8 <system_init_flash+0x84>)
  402a98:	4a15      	ldr	r2, [pc, #84]	; (402af0 <system_init_flash+0x9c>)
  402a9a:	601a      	str	r2, [r3, #0]
}
  402a9c:	e013      	b.n	402ac6 <system_init_flash+0x72>
          if ( ul_clk < CHIP_FREQ_FWS_4 )
  402a9e:	687b      	ldr	r3, [r7, #4]
  402aa0:	4a14      	ldr	r2, [pc, #80]	; (402af4 <system_init_flash+0xa0>)
  402aa2:	4293      	cmp	r3, r2
  402aa4:	d804      	bhi.n	402ab0 <system_init_flash+0x5c>
            EFC->EEFC_FMR = EEFC_FMR_FWS(4)|EEFC_FMR_CLOE;
  402aa6:	4b0c      	ldr	r3, [pc, #48]	; (402ad8 <system_init_flash+0x84>)
  402aa8:	f04f 2204 	mov.w	r2, #67109888	; 0x4000400
  402aac:	601a      	str	r2, [r3, #0]
}
  402aae:	e00a      	b.n	402ac6 <system_init_flash+0x72>
            if ( ul_clk < CHIP_FREQ_FWS_5 )
  402ab0:	687b      	ldr	r3, [r7, #4]
  402ab2:	4a11      	ldr	r2, [pc, #68]	; (402af8 <system_init_flash+0xa4>)
  402ab4:	4293      	cmp	r3, r2
  402ab6:	d803      	bhi.n	402ac0 <system_init_flash+0x6c>
              EFC->EEFC_FMR = EEFC_FMR_FWS(5)|EEFC_FMR_CLOE;
  402ab8:	4b07      	ldr	r3, [pc, #28]	; (402ad8 <system_init_flash+0x84>)
  402aba:	4a10      	ldr	r2, [pc, #64]	; (402afc <system_init_flash+0xa8>)
  402abc:	601a      	str	r2, [r3, #0]
}
  402abe:	e002      	b.n	402ac6 <system_init_flash+0x72>
              EFC->EEFC_FMR = EEFC_FMR_FWS(6)|EEFC_FMR_CLOE;
  402ac0:	4b05      	ldr	r3, [pc, #20]	; (402ad8 <system_init_flash+0x84>)
  402ac2:	4a0f      	ldr	r2, [pc, #60]	; (402b00 <system_init_flash+0xac>)
  402ac4:	601a      	str	r2, [r3, #0]
}
  402ac6:	bf00      	nop
  402ac8:	370c      	adds	r7, #12
  402aca:	46bd      	mov	sp, r7
  402acc:	f85d 7b04 	ldr.w	r7, [sp], #4
  402ad0:	4770      	bx	lr
  402ad2:	bf00      	nop
  402ad4:	015ef3bf 	.word	0x015ef3bf
  402ad8:	400e0c00 	.word	0x400e0c00
  402adc:	02bde77f 	.word	0x02bde77f
  402ae0:	04000100 	.word	0x04000100
  402ae4:	041cdb3f 	.word	0x041cdb3f
  402ae8:	04000200 	.word	0x04000200
  402aec:	057bceff 	.word	0x057bceff
  402af0:	04000300 	.word	0x04000300
  402af4:	06dac2bf 	.word	0x06dac2bf
  402af8:	0839b67f 	.word	0x0839b67f
  402afc:	04000500 	.word	0x04000500
  402b00:	04000600 	.word	0x04000600

00402b04 <__libc_init_array>:
  402b04:	b570      	push	{r4, r5, r6, lr}
  402b06:	4e0f      	ldr	r6, [pc, #60]	; (402b44 <__libc_init_array+0x40>)
  402b08:	4d0f      	ldr	r5, [pc, #60]	; (402b48 <__libc_init_array+0x44>)
  402b0a:	1b76      	subs	r6, r6, r5
  402b0c:	10b6      	asrs	r6, r6, #2
  402b0e:	bf18      	it	ne
  402b10:	2400      	movne	r4, #0
  402b12:	d005      	beq.n	402b20 <__libc_init_array+0x1c>
  402b14:	3401      	adds	r4, #1
  402b16:	f855 3b04 	ldr.w	r3, [r5], #4
  402b1a:	4798      	blx	r3
  402b1c:	42a6      	cmp	r6, r4
  402b1e:	d1f9      	bne.n	402b14 <__libc_init_array+0x10>
  402b20:	4e0a      	ldr	r6, [pc, #40]	; (402b4c <__libc_init_array+0x48>)
  402b22:	4d0b      	ldr	r5, [pc, #44]	; (402b50 <__libc_init_array+0x4c>)
  402b24:	1b76      	subs	r6, r6, r5
  402b26:	f018 fe09 	bl	41b73c <_init>
  402b2a:	10b6      	asrs	r6, r6, #2
  402b2c:	bf18      	it	ne
  402b2e:	2400      	movne	r4, #0
  402b30:	d006      	beq.n	402b40 <__libc_init_array+0x3c>
  402b32:	3401      	adds	r4, #1
  402b34:	f855 3b04 	ldr.w	r3, [r5], #4
  402b38:	4798      	blx	r3
  402b3a:	42a6      	cmp	r6, r4
  402b3c:	d1f9      	bne.n	402b32 <__libc_init_array+0x2e>
  402b3e:	bd70      	pop	{r4, r5, r6, pc}
  402b40:	bd70      	pop	{r4, r5, r6, pc}
  402b42:	bf00      	nop
  402b44:	0041b748 	.word	0x0041b748
  402b48:	0041b748 	.word	0x0041b748
  402b4c:	0041b750 	.word	0x0041b750
  402b50:	0041b748 	.word	0x0041b748

00402b54 <register_fini>:
  402b54:	4b02      	ldr	r3, [pc, #8]	; (402b60 <register_fini+0xc>)
  402b56:	b113      	cbz	r3, 402b5e <register_fini+0xa>
  402b58:	4802      	ldr	r0, [pc, #8]	; (402b64 <register_fini+0x10>)
  402b5a:	f000 b805 	b.w	402b68 <atexit>
  402b5e:	4770      	bx	lr
  402b60:	00000000 	.word	0x00000000
  402b64:	00402b75 	.word	0x00402b75

00402b68 <atexit>:
  402b68:	2300      	movs	r3, #0
  402b6a:	4601      	mov	r1, r0
  402b6c:	461a      	mov	r2, r3
  402b6e:	4618      	mov	r0, r3
  402b70:	f000 b81e 	b.w	402bb0 <__register_exitproc>

00402b74 <__libc_fini_array>:
  402b74:	b538      	push	{r3, r4, r5, lr}
  402b76:	4c0a      	ldr	r4, [pc, #40]	; (402ba0 <__libc_fini_array+0x2c>)
  402b78:	4d0a      	ldr	r5, [pc, #40]	; (402ba4 <__libc_fini_array+0x30>)
  402b7a:	1b64      	subs	r4, r4, r5
  402b7c:	10a4      	asrs	r4, r4, #2
  402b7e:	d00a      	beq.n	402b96 <__libc_fini_array+0x22>
  402b80:	f104 4380 	add.w	r3, r4, #1073741824	; 0x40000000
  402b84:	3b01      	subs	r3, #1
  402b86:	eb05 0583 	add.w	r5, r5, r3, lsl #2
  402b8a:	3c01      	subs	r4, #1
  402b8c:	f855 3904 	ldr.w	r3, [r5], #-4
  402b90:	4798      	blx	r3
  402b92:	2c00      	cmp	r4, #0
  402b94:	d1f9      	bne.n	402b8a <__libc_fini_array+0x16>
  402b96:	e8bd 4038 	ldmia.w	sp!, {r3, r4, r5, lr}
  402b9a:	f018 bdd9 	b.w	41b750 <_fini>
  402b9e:	bf00      	nop
  402ba0:	0041b760 	.word	0x0041b760
  402ba4:	0041b75c 	.word	0x0041b75c

00402ba8 <__retarget_lock_acquire_recursive>:
  402ba8:	4770      	bx	lr
  402baa:	bf00      	nop

00402bac <__retarget_lock_release_recursive>:
  402bac:	4770      	bx	lr
  402bae:	bf00      	nop

00402bb0 <__register_exitproc>:
  402bb0:	e92d 43f8 	stmdb	sp!, {r3, r4, r5, r6, r7, r8, r9, lr}
  402bb4:	4d2c      	ldr	r5, [pc, #176]	; (402c68 <__register_exitproc+0xb8>)
  402bb6:	4606      	mov	r6, r0
  402bb8:	6828      	ldr	r0, [r5, #0]
  402bba:	4698      	mov	r8, r3
  402bbc:	460f      	mov	r7, r1
  402bbe:	4691      	mov	r9, r2
  402bc0:	f7ff fff2 	bl	402ba8 <__retarget_lock_acquire_recursive>
  402bc4:	4b29      	ldr	r3, [pc, #164]	; (402c6c <__register_exitproc+0xbc>)
  402bc6:	681c      	ldr	r4, [r3, #0]
  402bc8:	f8d4 3148 	ldr.w	r3, [r4, #328]	; 0x148
  402bcc:	2b00      	cmp	r3, #0
  402bce:	d03e      	beq.n	402c4e <__register_exitproc+0x9e>
  402bd0:	685a      	ldr	r2, [r3, #4]
  402bd2:	2a1f      	cmp	r2, #31
  402bd4:	dc1c      	bgt.n	402c10 <__register_exitproc+0x60>
  402bd6:	f102 0e01 	add.w	lr, r2, #1
  402bda:	b176      	cbz	r6, 402bfa <__register_exitproc+0x4a>
  402bdc:	eb03 0182 	add.w	r1, r3, r2, lsl #2
  402be0:	2401      	movs	r4, #1
  402be2:	f8c1 9088 	str.w	r9, [r1, #136]	; 0x88
  402be6:	f8d3 0188 	ldr.w	r0, [r3, #392]	; 0x188
  402bea:	4094      	lsls	r4, r2
  402bec:	4320      	orrs	r0, r4
  402bee:	2e02      	cmp	r6, #2
  402bf0:	f8c3 0188 	str.w	r0, [r3, #392]	; 0x188
  402bf4:	f8c1 8108 	str.w	r8, [r1, #264]	; 0x108
  402bf8:	d023      	beq.n	402c42 <__register_exitproc+0x92>
  402bfa:	3202      	adds	r2, #2
  402bfc:	f8c3 e004 	str.w	lr, [r3, #4]
  402c00:	6828      	ldr	r0, [r5, #0]
  402c02:	f843 7022 	str.w	r7, [r3, r2, lsl #2]
  402c06:	f7ff ffd1 	bl	402bac <__retarget_lock_release_recursive>
  402c0a:	2000      	movs	r0, #0
  402c0c:	e8bd 83f8 	ldmia.w	sp!, {r3, r4, r5, r6, r7, r8, r9, pc}
  402c10:	4b17      	ldr	r3, [pc, #92]	; (402c70 <__register_exitproc+0xc0>)
  402c12:	b30b      	cbz	r3, 402c58 <__register_exitproc+0xa8>
  402c14:	f44f 70c8 	mov.w	r0, #400	; 0x190
  402c18:	f3af 8000 	nop.w
  402c1c:	4603      	mov	r3, r0
  402c1e:	b1d8      	cbz	r0, 402c58 <__register_exitproc+0xa8>
  402c20:	f8d4 2148 	ldr.w	r2, [r4, #328]	; 0x148
  402c24:	6002      	str	r2, [r0, #0]
  402c26:	2100      	movs	r1, #0
  402c28:	6041      	str	r1, [r0, #4]
  402c2a:	460a      	mov	r2, r1
  402c2c:	f8c4 0148 	str.w	r0, [r4, #328]	; 0x148
  402c30:	f04f 0e01 	mov.w	lr, #1
  402c34:	f8c0 1188 	str.w	r1, [r0, #392]	; 0x188
  402c38:	f8c0 118c 	str.w	r1, [r0, #396]	; 0x18c
  402c3c:	2e00      	cmp	r6, #0
  402c3e:	d0dc      	beq.n	402bfa <__register_exitproc+0x4a>
  402c40:	e7cc      	b.n	402bdc <__register_exitproc+0x2c>
  402c42:	f8d3 118c 	ldr.w	r1, [r3, #396]	; 0x18c
  402c46:	430c      	orrs	r4, r1
  402c48:	f8c3 418c 	str.w	r4, [r3, #396]	; 0x18c
  402c4c:	e7d5      	b.n	402bfa <__register_exitproc+0x4a>
  402c4e:	f504 73a6 	add.w	r3, r4, #332	; 0x14c
  402c52:	f8c4 3148 	str.w	r3, [r4, #328]	; 0x148
  402c56:	e7bb      	b.n	402bd0 <__register_exitproc+0x20>
  402c58:	6828      	ldr	r0, [r5, #0]
  402c5a:	f7ff ffa7 	bl	402bac <__retarget_lock_release_recursive>
  402c5e:	f04f 30ff 	mov.w	r0, #4294967295
  402c62:	e8bd 83f8 	ldmia.w	sp!, {r3, r4, r5, r6, r7, r8, r9, pc}
  402c66:	bf00      	nop
  402c68:	20400438 	.word	0x20400438
  402c6c:	0041b738 	.word	0x0041b738
  402c70:	00000000 	.word	0x00000000

00402c74 <image_data_arial_72_0x30>:
  402c74:	ffffffff ffffffff ffffffff ffffffff     ................
  402c84:	ffffffff ffffffff ffffffff ffffffff     ................
  402c94:	ffffffff ffffffff ffffffff ffffffff     ................
  402ca4:	ffffffff ffffffff ffffffff ffffffff     ................
  402cb4:	ffffffff ffffffff ffffffff ffffffff     ................
  402cc4:	ffffffff ffffffff ffffffff ffffffff     ................
  402cd4:	ffffffff ffffffff ffffffff ffffffff     ................
  402ce4:	ffffffff ffffffff ffffffff ffffffff     ................
  402cf4:	ffffffff ffffffff ffffffff ffffffff     ................
  402d04:	ffffffff ffffffff ffffffff ffffffff     ................
  402d14:	ffffffff ffffffff ffffffff ffffffff     ................
  402d24:	ffffffff ffffffff ffffffff ffffffff     ................
  402d34:	ffffffff ffffffff ffffffff ffffffff     ................
  402d44:	ffffffff ffffffff ffffffff ffffffff     ................
  402d54:	ffffffff ffffffff ffffffff ffffffff     ................
  402d64:	ffffffff ffffffff ffffffff ffffffff     ................
  402d74:	ffffffff ffffffff ffffffff ffffffff     ................
  402d84:	ffffffff ffffffff ffffffff ffffffff     ................
  402d94:	ffffffff ffffffff ffffffff ffffffff     ................
  402da4:	ffffffff ffffffff ffffffff ffffffff     ................
  402db4:	ffffffff ffffffff ffffffff ffffffff     ................
  402dc4:	ffffffff ffffffff ffffffff ffffffff     ................
  402dd4:	ffffffff ffffffff ffffffff ffffffff     ................
  402de4:	ffffffff ffffffff ffffffff ffffffff     ................
  402df4:	ffffffff ffffffff ffffffff ffffffff     ................
  402e04:	ffffffff ffffffff ffffffff ffffffff     ................
  402e14:	ffffffff ffffffff ffffffff ffffffff     ................
  402e24:	ffffffff ffffffff ffffffff ffffffff     ................
  402e34:	ffffffff ffffffff ffffffff ffffffff     ................
  402e44:	ffffffff ffffffff ffffffff ffffffff     ................
  402e54:	ffffffff ffffffff ffffffff ffffffff     ................
  402e64:	ffffffff ffffffff ffffffff ffffffff     ................
  402e74:	ffffffff ffffffff ffffffff ffffffff     ................
  402e84:	ffffffff ffffffff ffffffff ffffffff     ................
  402e94:	ffffffff ffffffff ffffffff ffffffff     ................
  402ea4:	ffffffff ffffffff ffffffff ffffffff     ................
  402eb4:	ffffffff ffffffff ffffffff ffffffff     ................
  402ec4:	ffffffff ffffffff ffffffff ffffffff     ................
  402ed4:	ffffffff ffffffff ffffffff ffffffff     ................
  402ee4:	ffffffff ffffffff ffffffff ffffffff     ................
  402ef4:	ffffffff ffffffff ffffffff ffffffff     ................
  402f04:	ffffffff ffffffff ffffffff ffffffff     ................
  402f14:	ffffffff ffffffff ffffffff ffffffff     ................
  402f24:	ffffffff ffffffff ffffffff ffffffff     ................
  402f34:	ffffffff ffffffff ffffffff ffffffff     ................
  402f44:	ffffffff ffffffff ffffffff ffffffff     ................
  402f54:	ffffffff ffffffff ffffffff ffffffff     ................
  402f64:	ffffffff ffffffff ffffffff ffffffff     ................
  402f74:	ffffffff ffffffff ffffffff ffffffff     ................
  402f84:	ffffffff ffffffff ffffffff ffffffff     ................
  402f94:	ffffffff ffffffff ffffffff ffffffff     ................
  402fa4:	ffffffff ffffffff ffffffff ffffffff     ................
  402fb4:	ffffffff ffffffff ffffffff ffffffff     ................
  402fc4:	ffffffff ffffffff ffffffff ffffffff     ................
  402fd4:	ffffffff ffffffff ffffffff ffffffff     ................
  402fe4:	ffffffff ffffffff ffffffff ffffffff     ................
  402ff4:	ffffffff ffffffff ffffffff ffffffff     ................
  403004:	ffffffff ffffffff ffffffff ffffffff     ................
  403014:	ffffffff ffffffff ffffffff ffffffff     ................
  403024:	ffffffff ffffffff ffffffff ffffffff     ................
  403034:	ffffffff ffffffff ffffffff ffffffff     ................
  403044:	ffffffff ffffffff ffffffff ffffffff     ................
  403054:	ffffffff ffffffff ffffffff ffffffff     ................
  403064:	ffffffff ffffffff ffffffff ffffffff     ................
  403074:	ffffffff ffffffff ffffffff ffffffff     ................
  403084:	ffffffff ffffffff ffffffff ffffffff     ................
  403094:	ffffffff ffffffff ffffffff ffffffff     ................
  4030a4:	ffffffff ffffffff ffffffff ffffffff     ................
  4030b4:	ffffffff ffffffff ffffffff ffffffff     ................
  4030c4:	ffffffff ffffffff ffffffff ffffffff     ................
  4030d4:	ffffffff ffffffff ffffffff ffffffff     ................
  4030e4:	ffffffff ffffffff ffffffff ffffffff     ................
  4030f4:	ffffffff ffffffff ffffffff ffffffff     ................
  403104:	ffffffff ffffffff ffffffff ffffffff     ................
  403114:	ffffffff ffffffff ffffffff ffffffff     ................
  403124:	ffffffff ffffffff ffffffff ffffffff     ................
  403134:	ffffffff ffffffff ffffffff ffffffff     ................
  403144:	ffffffff ffffffff ffffffff ffffffff     ................
  403154:	ffffffff ffffffff ffffffff ffffffff     ................
  403164:	ffffffff ffffffff ffffffff ffffffff     ................
  403174:	ffffffff ffffffff ffffffff ffffffff     ................
  403184:	ffffffff ffffffff ffffffff ffffffff     ................
  403194:	ffffffff ffffffff ffffffff ffffffff     ................
  4031a4:	ffffffff ffffffff ffffffff ffffffff     ................
  4031b4:	ffffffff ffffffff ffffffff ffffffff     ................
  4031c4:	ffffffff ffffffff ffffffff ffffffff     ................
  4031d4:	ffffffff ffffffff ffffffff ffffffff     ................
  4031e4:	ffffffff ffffffff ffffffff ffffffff     ................
  4031f4:	ffffffff ffffffff ffffffff ffffffff     ................
  403204:	ffffffff ffffffff ffffffff ffffffff     ................
  403214:	ffffffff ffffffff ffffffff ffffffff     ................
  403224:	ffffffff ffffffff ffffffff ffffffff     ................
  403234:	ffffffff ffffffff ffffffff ffffffff     ................
  403244:	ffffffff ffffffff ffffffff ffffffff     ................
  403254:	ffffffff ffffffff ffffffff ffffffff     ................
  403264:	ffffffff ffffffff ffffffff ffffffff     ................
  403274:	ffffffff ffffffff ffffffff ffffffff     ................
  403284:	ffffffff ffffffff ffffffff ffffffff     ................
  403294:	ffffffff ffffffff ffffffff ffffffff     ................
  4032a4:	ffffffff ffffffff ffffffff ffffffff     ................
  4032b4:	ffffffff ffffffff ffffffff ffffffff     ................
  4032c4:	ffffffff ffffffff ffffffff ffffffff     ................
  4032d4:	ffffffff ffffffff ffffffff ffffffff     ................
  4032e4:	ffffffff ffffffff ffffffff ffffffff     ................
  4032f4:	ffffffff ffffffff ffffffff ffffffff     ................
  403304:	ffffffff ffffffff ffffffff ffffffff     ................
  403314:	ffffffff ffffffff ffffffff ffffffff     ................
  403324:	ffffffff ffffffff ffffffff ffffffff     ................
  403334:	ffffffff ffffffff ffffffff ffffffff     ................
  403344:	ffffffff ffffffff ffffffff ffffffff     ................
  403354:	ffffffff ffffffff ffffffff ffffffff     ................
  403364:	ffffffff ffffffff ffffffff ffffffff     ................
  403374:	ffffffff ffffffff ffffffff ffffffff     ................
  403384:	ffffffff ffffffff ffffffff ffffffff     ................
  403394:	ffffffff ffffffff ffffffff ffffffff     ................
  4033a4:	ffffffff ffffffff ffffffff 00ff0000     ................
  4033b4:	0000ff00 ff0000ff ffff0000 ffffffff     ................
  4033c4:	ffffffff ffffffff ffffffff ffffffff     ................
  4033d4:	ffffffff ffffffff ffffffff ffffffff     ................
  4033e4:	ffffffff ffffffff ffffffff ffffffff     ................
  4033f4:	ffffffff ffffffff ffffffff ffffffff     ................
  403404:	ffffffff ffffffff ffffffff ffffffff     ................
  403414:	ffffffff ffffffff 00ff0000 0000ff00     ................
  403424:	ff0000ff 00ff0000 0000ff00 ff0000ff     ................
  403434:	00ff0000 0000ff00 ff0000ff ffff0000     ................
  403444:	ffffffff ffffffff ffffffff ffffffff     ................
  403454:	ffffffff ffffffff ffffffff ffffffff     ................
  403464:	ffffffff ffffffff ffffffff ffffffff     ................
  403474:	ffffffff ffffffff ffffffff ffffffff     ................
  403484:	ffffffff ffffffff ffffffff ff0000ff     ................
  403494:	00ff0000 0000ff00 ff0000ff 00ff0000     ................
  4034a4:	0000ff00 ff0000ff 00ff0000 0000ff00     ................
  4034b4:	ff0000ff 00ff0000 0000ff00 ffffffff     ................
  4034c4:	ffffffff ffffffff ffffffff ffffffff     ................
  4034d4:	ffffffff ffffffff ffffffff ffffffff     ................
  4034e4:	ffffffff ffffffff ffffffff ffffffff     ................
  4034f4:	ffffffff ffffffff ffffffff 00ffffff     ................
  403504:	0000ff00 ff0000ff 00ff0000 0000ff00     ................
  403514:	ff0000ff 00ff0000 0000ff00 ff0000ff     ................
  403524:	00ff0000 0000ff00 ff0000ff 00ff0000     ................
  403534:	0000ff00 ff0000ff ffffffff ffffffff     ................
  403544:	ffffffff ffffffff ffffffff ffffffff     ................
  403554:	ffffffff ffffffff ffffffff ffffffff     ................
  403564:	ffffffff ffffffff ffffffff ffffffff     ................
  403574:	ffffffff 00ff0000 0000ff00 ff0000ff     ................
  403584:	00ff0000 0000ff00 ff0000ff 00ff0000     ................
  403594:	0000ff00 ff0000ff 00ff0000 0000ff00     ................
  4035a4:	ff0000ff 00ff0000 0000ff00 ff0000ff     ................
  4035b4:	ffff0000 ffffffff ffffffff ffffffff     ................
  4035c4:	ffffffff ffffffff ffffffff ffffffff     ................
  4035d4:	ffffffff ffffffff ffffffff ffffffff     ................
  4035e4:	ffffffff ffffffff ff0000ff 00ff0000     ................
  4035f4:	0000ff00 ff0000ff 00ff0000 0000ff00     ................
  403604:	ff0000ff 00ff0000 0000ff00 ff0000ff     ................
  403614:	00ff0000 0000ff00 ff0000ff 00ff0000     ................
  403624:	0000ff00 ff0000ff 00ff0000 ffffff00     ................
  403634:	ffffffff ffffffff ffffffff ffffffff     ................
  403644:	ffffffff ffffffff ffffffff ffffffff     ................
  403654:	ffffffff ffffffff ffffffff 0000ffff     ................
  403664:	ff0000ff 00ff0000 0000ff00 ff0000ff     ................
  403674:	00ff0000 0000ff00 ff0000ff 00ff0000     ................
  403684:	0000ff00 ff0000ff 00ff0000 0000ff00     ................
  403694:	ff0000ff 00ff0000 0000ff00 ff0000ff     ................
  4036a4:	00ff0000 0000ff00 ffffffff ffffffff     ................
  4036b4:	ffffffff ffffffff ffffffff ffffffff     ................
  4036c4:	ffffffff ffffffff ffffffff ffffffff     ................
  4036d4:	ffffffff 0000ffff ff0000ff 00ff0000     ................
  4036e4:	0000ff00 ff0000ff 00ff0000 0000ff00     ................
  4036f4:	ff0000ff 00ff0000 0000ff00 ff0000ff     ................
  403704:	00ff0000 0000ff00 ff0000ff 00ff0000     ................
  403714:	0000ff00 ff0000ff 00ff0000 0000ff00     ................
  403724:	ff0000ff ffffffff ffffffff ffffffff     ................
  403734:	ffffffff ffffffff ffffffff ffffffff     ................
  403744:	ffffffff ffffffff 00ffffff 0000ff00     ................
  403754:	ff0000ff 00ff0000 0000ff00 ff0000ff     ................
  403764:	00ff0000 0000ff00 ff0000ff 00ff0000     ................
  403774:	ffffff00 ff0000ff 00ff0000 0000ff00     ................
  403784:	ff0000ff 00ff0000 0000ff00 ff0000ff     ................
  403794:	00ff0000 0000ff00 ff0000ff ffffffff     ................
  4037a4:	ffffffff ffffffff ffffffff ffffffff     ................
  4037b4:	ffffffff ffffffff ffffffff ffffffff     ................
  4037c4:	00ffffff 0000ff00 ff0000ff 00ff0000     ................
  4037d4:	0000ff00 ff0000ff 00ff0000 0000ff00     ................
  4037e4:	ff0000ff ffffffff ffffffff ffffffff     ................
  4037f4:	ffffffff 0000ffff ff0000ff 00ff0000     ................
  403804:	0000ff00 ff0000ff 00ff0000 0000ff00     ................
  403814:	ff0000ff ffff0000 ffffffff ffffffff     ................
  403824:	ffffffff ffffffff ffffffff ffffffff     ................
  403834:	ffffffff ffffffff 00ff0000 0000ff00     ................
  403844:	ff0000ff 00ff0000 0000ff00 ff0000ff     ................
  403854:	00ff0000 0000ff00 ffffffff ffffffff     ................
  403864:	ffffffff ffffffff ffffffff ffffffff     ................
  403874:	ff0000ff 00ff0000 0000ff00 ff0000ff     ................
  403884:	00ff0000 0000ff00 ff0000ff ffff0000     ................
  403894:	ffffffff ffffffff ffffffff ffffffff     ................
  4038a4:	ffffffff ffffffff ffffffff ffffffff     ................
  4038b4:	00ff0000 0000ff00 ff0000ff 00ff0000     ................
  4038c4:	0000ff00 ff0000ff 00ff0000 ffffff00     ................
  4038d4:	ffffffff ffffffff ffffffff ffffffff     ................
  4038e4:	ffffffff ffffffff ff0000ff 00ff0000     ................
  4038f4:	0000ff00 ff0000ff 00ff0000 0000ff00     ................
  403904:	ff0000ff ffff0000 ffffffff ffffffff     ................
  403914:	ffffffff ffffffff ffffffff ffffffff     ................
  403924:	ffffffff ffffffff 00ff0000 0000ff00     ................
  403934:	ff0000ff 00ff0000 0000ff00 ff0000ff     ................
  403944:	00ff0000 ffffff00 ffffffff ffffffff     ................
  403954:	ffffffff ffffffff ffffffff ffffffff     ................
  403964:	ffffffff 00ff0000 0000ff00 ff0000ff     ................
  403974:	00ff0000 0000ff00 ff0000ff 00ff0000     ................
  403984:	ffffff00 ffffffff ffffffff ffffffff     ................
  403994:	ffffffff ffffffff ffffffff ff0000ff     ................
  4039a4:	00ff0000 0000ff00 ff0000ff 00ff0000     ................
  4039b4:	0000ff00 ff0000ff ffff0000 ffffffff     ................
  4039c4:	ffffffff ffffffff ffffffff ffffffff     ................
  4039d4:	ffffffff ffffffff ffffffff 00ff0000     ................
  4039e4:	0000ff00 ff0000ff 00ff0000 0000ff00     ................
  4039f4:	ff0000ff 00ff0000 ffffff00 ffffffff     ................
  403a04:	ffffffff ffffffff ffffffff ffffffff     ................
  403a14:	ffffffff ff0000ff 00ff0000 0000ff00     ................
  403a24:	ff0000ff 00ff0000 0000ff00 ff0000ff     ................
  403a34:	ffff0000 ffffffff ffffffff ffffffff     ................
  403a44:	ffffffff ffffffff ffffffff ffffffff     ................
  403a54:	ffffffff 00ff0000 0000ff00 ff0000ff     ................
  403a64:	00ff0000 0000ff00 ff0000ff 00ff0000     ................
  403a74:	ffffff00 ffffffff ffffffff ffffffff     ................
  403a84:	ffffffff ffffffff ffffffff ff0000ff     ................
  403a94:	00ff0000 0000ff00 ff0000ff 00ff0000     ................
  403aa4:	0000ff00 ff0000ff ffff0000 ffffffff     ................
  403ab4:	ffffffff ffffffff ffffffff ffffffff     ................
  403ac4:	ffffffff ffffffff ffffffff 00ffffff     ................
  403ad4:	0000ff00 ff0000ff 00ff0000 0000ff00     ................
  403ae4:	ff0000ff 00ff0000 ffffff00 ffffffff     ................
  403af4:	ffffffff ffffffff ffffffff ffffffff     ................
  403b04:	ffffffff ff0000ff 00ff0000 0000ff00     ................
  403b14:	ff0000ff 00ff0000 0000ff00 ff0000ff     ................
  403b24:	ffff0000 ffffffff ffffffff ffffffff     ................
  403b34:	ffffffff ffffffff ffffffff ffffffff     ................
  403b44:	ffffffff 00ffffff 0000ff00 ff0000ff     ................
  403b54:	00ff0000 0000ff00 ff0000ff 00ff0000     ................
  403b64:	0000ff00 ffffffff ffffffff ffffffff     ................
  403b74:	ffffffff ffffffff ffffffff ff0000ff     ................
  403b84:	00ff0000 0000ff00 ff0000ff 00ff0000     ................
  403b94:	0000ff00 ff0000ff ffff0000 ffffffff     ................
  403ba4:	ffffffff ffffffff ffffffff ffffffff     ................
  403bb4:	ffffffff ffffffff ffffffff 00ffffff     ................
  403bc4:	0000ff00 ff0000ff 00ff0000 0000ff00     ................
  403bd4:	ff0000ff 00ff0000 0000ff00 ffffffff     ................
  403be4:	ffffffff ffffffff ffffffff ffffffff     ................
  403bf4:	ffffffff ff0000ff 00ff0000 0000ff00     ................
  403c04:	ff0000ff 00ff0000 0000ff00 ff0000ff     ................
  403c14:	ffff0000 ffffffff ffffffff ffffffff     ................
  403c24:	ffffffff ffffffff ffffffff ffffffff     ................
  403c34:	ffffffff 00ffffff 0000ff00 ff0000ff     ................
  403c44:	00ff0000 0000ff00 ff0000ff 00ff0000     ................
  403c54:	0000ff00 ffffffff ffffffff ffffffff     ................
  403c64:	ffffffff ffffffff 0000ffff ff0000ff     ................
  403c74:	00ff0000 0000ff00 ff0000ff 00ff0000     ................
  403c84:	0000ff00 ff0000ff ffff0000 ffffffff     ................
  403c94:	ffffffff ffffffff ffffffff ffffffff     ................
  403ca4:	ffffffff ffffffff ffffffff 00ffffff     ................
  403cb4:	0000ff00 ff0000ff 00ff0000 0000ff00     ................
  403cc4:	ff0000ff 00ff0000 0000ff00 ffffffff     ................
  403cd4:	ffffffff ffffffff ffffffff ffffffff     ................
  403ce4:	0000ffff ff0000ff 00ff0000 0000ff00     ................
  403cf4:	ff0000ff 00ff0000 0000ff00 ff0000ff     ................
  403d04:	ffff0000 ffffffff ffffffff ffffffff     ................
  403d14:	ffffffff ffffffff ffffffff ffffffff     ................
  403d24:	ffffffff 00ffffff 0000ff00 ff0000ff     ................
  403d34:	00ff0000 0000ff00 ff0000ff 00ff0000     ................
  403d44:	0000ff00 ffffffff ffffffff ffffffff     ................
  403d54:	ffffffff ffffffff 0000ffff ff0000ff     ................
  403d64:	00ff0000 0000ff00 ff0000ff 00ff0000     ................
  403d74:	0000ff00 ff0000ff ffff0000 ffffffff     ................
  403d84:	ffffffff ffffffff ffffffff ffffffff     ................
  403d94:	ffffffff ffffffff ffffffff 00ffffff     ................
  403da4:	0000ff00 ff0000ff 00ff0000 0000ff00     ................
  403db4:	ff0000ff 00ff0000 0000ff00 ffffffff     ................
  403dc4:	ffffffff ffffffff ffffffff ffffffff     ................
  403dd4:	0000ffff ff0000ff 00ff0000 0000ff00     ................
  403de4:	ff0000ff 00ff0000 0000ff00 ff0000ff     ................
  403df4:	ffffffff ffffffff ffffffff ffffffff     ................
  403e04:	ffffffff ffffffff ffffffff ffffffff     ................
  403e14:	ffffffff 00ffffff 0000ff00 ff0000ff     ................
  403e24:	00ff0000 0000ff00 ff0000ff 00ff0000     ................
  403e34:	0000ff00 ffffffff ffffffff ffffffff     ................
  403e44:	ffffffff ffffffff 0000ffff ff0000ff     ................
  403e54:	00ff0000 0000ff00 ff0000ff 00ff0000     ................
  403e64:	0000ff00 ff0000ff ffffffff ffffffff     ................
  403e74:	ffffffff ffffffff ffffffff ffffffff     ................
  403e84:	ffffffff ffffffff ffffffff 00ffffff     ................
  403e94:	0000ff00 ff0000ff 00ff0000 0000ff00     ................
  403ea4:	ff0000ff 00ff0000 0000ff00 ffffffff     ................
  403eb4:	ffffffff ffffffff ffffffff ffffffff     ................
  403ec4:	0000ffff ff0000ff 00ff0000 0000ff00     ................
  403ed4:	ff0000ff 00ff0000 0000ff00 ff0000ff     ................
  403ee4:	ffffffff ffffffff ffffffff ffffffff     ................
  403ef4:	ffffffff ffffffff ffffffff ffffffff     ................
  403f04:	ffffffff 00ffffff 0000ff00 ff0000ff     ................
  403f14:	00ff0000 0000ff00 ff0000ff 00ff0000     ................
  403f24:	0000ff00 ffffffff ffffffff ffffffff     ................
  403f34:	ffffffff ffffffff 0000ffff ff0000ff     ................
  403f44:	00ff0000 0000ff00 ff0000ff 00ff0000     ................
  403f54:	0000ff00 ff0000ff ffffffff ffffffff     ................
  403f64:	ffffffff ffffffff ffffffff ffffffff     ................
  403f74:	ffffffff ffffffff ffffffff 00ffffff     ................
  403f84:	0000ff00 ff0000ff 00ff0000 0000ff00     ................
  403f94:	ff0000ff 00ff0000 0000ff00 ffffffff     ................
  403fa4:	ffffffff ffffffff ffffffff ffffffff     ................
  403fb4:	0000ffff ff0000ff 00ff0000 0000ff00     ................
  403fc4:	ff0000ff 00ff0000 0000ff00 ff0000ff     ................
  403fd4:	ffffffff ffffffff ffffffff ffffffff     ................
  403fe4:	ffffffff ffffffff ffffffff ffffffff     ................
  403ff4:	ffffffff 00ffffff 0000ff00 ff0000ff     ................
  404004:	00ff0000 0000ff00 ff0000ff 00ff0000     ................
  404014:	0000ff00 ffffffff ffffffff ffffffff     ................
  404024:	ffffffff ffffffff 0000ffff ff0000ff     ................
  404034:	00ff0000 0000ff00 ff0000ff 00ff0000     ................
  404044:	0000ff00 ff0000ff ffffffff ffffffff     ................
  404054:	ffffffff ffffffff ffffffff ffffffff     ................
  404064:	ffffffff ffffffff ffffffff 00ffffff     ................
  404074:	0000ff00 ff0000ff 00ff0000 0000ff00     ................
  404084:	ff0000ff 00ff0000 0000ff00 ffffffff     ................
  404094:	ffffffff ffffffff ffffffff ffffffff     ................
  4040a4:	0000ffff ff0000ff 00ff0000 0000ff00     ................
  4040b4:	ff0000ff 00ff0000 0000ff00 ff0000ff     ................
  4040c4:	ffffffff ffffffff ffffffff ffffffff     ................
  4040d4:	ffffffff ffffffff ffffffff ffffffff     ................
  4040e4:	ffffffff 00ffffff 0000ff00 ff0000ff     ................
  4040f4:	00ff0000 0000ff00 ff0000ff 00ff0000     ................
  404104:	0000ff00 ffffffff ffffffff ffffffff     ................
  404114:	ffffffff ffffffff 0000ffff ff0000ff     ................
  404124:	00ff0000 0000ff00 ff0000ff 00ff0000     ................
  404134:	0000ff00 ff0000ff ffffffff ffffffff     ................
  404144:	ffffffff ffffffff ffffffff ffffffff     ................
  404154:	ffffffff ffffffff ffffffff 00ffffff     ................
  404164:	0000ff00 ff0000ff 00ff0000 0000ff00     ................
  404174:	ff0000ff 00ff0000 0000ff00 ffffffff     ................
  404184:	ffffffff ffffffff ffffffff ffffffff     ................
  404194:	0000ffff ff0000ff 00ff0000 0000ff00     ................
  4041a4:	ff0000ff 00ff0000 0000ff00 ff0000ff     ................
  4041b4:	ffffffff ffffffff ffffffff ffffffff     ................
  4041c4:	ffffffff ffffffff ffffffff ffffffff     ................
  4041d4:	ffffffff 00ffffff 0000ff00 ff0000ff     ................
  4041e4:	00ff0000 0000ff00 ff0000ff 00ff0000     ................
  4041f4:	0000ff00 ffffffff ffffffff ffffffff     ................
  404204:	ffffffff ffffffff 0000ffff ff0000ff     ................
  404214:	00ff0000 0000ff00 ff0000ff 00ff0000     ................
  404224:	0000ff00 ff0000ff ffff0000 ffffffff     ................
  404234:	ffffffff ffffffff ffffffff ffffffff     ................
  404244:	ffffffff ffffffff ffffffff 00ffffff     ................
  404254:	0000ff00 ff0000ff 00ff0000 0000ff00     ................
  404264:	ff0000ff 00ff0000 0000ff00 ffffffff     ................
  404274:	ffffffff ffffffff ffffffff ffffffff     ................
  404284:	0000ffff ff0000ff 00ff0000 0000ff00     ................
  404294:	ff0000ff 00ff0000 0000ff00 ff0000ff     ................
  4042a4:	ffff0000 ffffffff ffffffff ffffffff     ................
  4042b4:	ffffffff ffffffff ffffffff ffffffff     ................
  4042c4:	ffffffff 00ffffff 0000ff00 ff0000ff     ................
  4042d4:	00ff0000 0000ff00 ff0000ff 00ff0000     ................
  4042e4:	0000ff00 ffffffff ffffffff ffffffff     ................
  4042f4:	ffffffff ffffffff 0000ffff ff0000ff     ................
  404304:	00ff0000 0000ff00 ff0000ff 00ff0000     ................
  404314:	0000ff00 ff0000ff ffff0000 ffffffff     ................
  404324:	ffffffff ffffffff ffffffff ffffffff     ................
  404334:	ffffffff ffffffff ffffffff 00ffffff     ................
  404344:	0000ff00 ff0000ff 00ff0000 0000ff00     ................
  404354:	ff0000ff 00ff0000 0000ff00 ffffffff     ................
  404364:	ffffffff ffffffff ffffffff ffffffff     ................
  404374:	0000ffff ff0000ff 00ff0000 0000ff00     ................
  404384:	ff0000ff 00ff0000 0000ff00 ff0000ff     ................
  404394:	ffff0000 ffffffff ffffffff ffffffff     ................
  4043a4:	ffffffff ffffffff ffffffff ffffffff     ................
  4043b4:	ffffffff 00ffffff 0000ff00 ff0000ff     ................
  4043c4:	00ff0000 0000ff00 ff0000ff 00ff0000     ................
  4043d4:	0000ff00 ffffffff ffffffff ffffffff     ................
  4043e4:	ffffffff ffffffff ffffffff ff0000ff     ................
  4043f4:	00ff0000 0000ff00 ff0000ff 00ff0000     ................
  404404:	0000ff00 ff0000ff ffff0000 ffffffff     ................
  404414:	ffffffff ffffffff ffffffff ffffffff     ................
  404424:	ffffffff ffffffff ffffffff 00ffffff     ................
  404434:	0000ff00 ff0000ff 00ff0000 0000ff00     ................
  404444:	ff0000ff 00ff0000 0000ff00 ffffffff     ................
  404454:	ffffffff ffffffff ffffffff ffffffff     ................
  404464:	ffffffff ff0000ff 00ff0000 0000ff00     ................
  404474:	ff0000ff 00ff0000 0000ff00 ff0000ff     ................
  404484:	ffff0000 ffffffff ffffffff ffffffff     ................
  404494:	ffffffff ffffffff ffffffff ffffffff     ................
  4044a4:	ffffffff 00ffffff 0000ff00 ff0000ff     ................
  4044b4:	00ff0000 0000ff00 ff0000ff 00ff0000     ................
  4044c4:	0000ff00 ffffffff ffffffff ffffffff     ................
  4044d4:	ffffffff ffffffff ffffffff ff0000ff     ................
  4044e4:	00ff0000 0000ff00 ff0000ff 00ff0000     ................
  4044f4:	0000ff00 ff0000ff ffff0000 ffffffff     ................
  404504:	ffffffff ffffffff ffffffff ffffffff     ................
  404514:	ffffffff ffffffff ffffffff 00ffffff     ................
  404524:	0000ff00 ff0000ff 00ff0000 0000ff00     ................
  404534:	ff0000ff 00ff0000 0000ff00 ffffffff     ................
  404544:	ffffffff ffffffff ffffffff ffffffff     ................
  404554:	ffffffff ff0000ff 00ff0000 0000ff00     ................
  404564:	ff0000ff 00ff0000 0000ff00 ff0000ff     ................
  404574:	ffff0000 ffffffff ffffffff ffffffff     ................
  404584:	ffffffff ffffffff ffffffff ffffffff     ................
  404594:	ffffffff 00ff0000 0000ff00 ff0000ff     ................
  4045a4:	00ff0000 0000ff00 ff0000ff 00ff0000     ................
  4045b4:	ffffff00 ffffffff ffffffff ffffffff     ................
  4045c4:	ffffffff ffffffff ffffffff ff0000ff     ................
  4045d4:	00ff0000 0000ff00 ff0000ff 00ff0000     ................
  4045e4:	0000ff00 ff0000ff ffff0000 ffffffff     ................
  4045f4:	ffffffff ffffffff ffffffff ffffffff     ................
  404604:	ffffffff ffffffff ffffffff 00ff0000     ................
  404614:	0000ff00 ff0000ff 00ff0000 0000ff00     ................
  404624:	ff0000ff 00ff0000 ffffff00 ffffffff     ................
  404634:	ffffffff ffffffff ffffffff ffffffff     ................
  404644:	ffffffff ffffffff 00ff0000 0000ff00     ................
  404654:	ff0000ff 00ff0000 0000ff00 ff0000ff     ................
  404664:	00ff0000 ffffff00 ffffffff ffffffff     ................
  404674:	ffffffff ffffffff ffffffff ffffffff     ................
  404684:	ffffffff 00ff0000 0000ff00 ff0000ff     ................
  404694:	00ff0000 0000ff00 ff0000ff 00ff0000     ................
  4046a4:	ffffff00 ffffffff ffffffff ffffffff     ................
  4046b4:	ffffffff ffffffff ffffffff ffffffff     ................
  4046c4:	00ff0000 0000ff00 ff0000ff 00ff0000     ................
  4046d4:	0000ff00 ff0000ff 00ff0000 ffffff00     ................
  4046e4:	ffffffff ffffffff ffffffff ffffffff     ................
  4046f4:	ffffffff ffffffff ff0000ff 00ff0000     ................
  404704:	0000ff00 ff0000ff 00ff0000 0000ff00     ................
  404714:	ff0000ff ffff0000 ffffffff ffffffff     ................
  404724:	ffffffff ffffffff ffffffff ffffffff     ................
  404734:	ffffffff ffffffff 00ff0000 0000ff00     ................
  404744:	ff0000ff 00ff0000 0000ff00 ff0000ff     ................
  404754:	00ff0000 0000ff00 ffffffff ffffffff     ................
  404764:	ffffffff ffffffff ffffffff ffffffff     ................
  404774:	ff0000ff 00ff0000 0000ff00 ff0000ff     ................
  404784:	00ff0000 0000ff00 ff0000ff ffff0000     ................
  404794:	ffffffff ffffffff ffffffff ffffffff     ................
  4047a4:	ffffffff ffffffff ffffffff ffffffff     ................
  4047b4:	00ffffff 0000ff00 ff0000ff 00ff0000     ................
  4047c4:	0000ff00 ff0000ff 00ff0000 0000ff00     ................
  4047d4:	ff0000ff ffffffff ffffffff ffffffff     ................
  4047e4:	ffffffff 0000ffff ff0000ff 00ff0000     ................
  4047f4:	0000ff00 ff0000ff 00ff0000 0000ff00     ................
  404804:	ff0000ff ffff0000 ffffffff ffffffff     ................
  404814:	ffffffff ffffffff ffffffff ffffffff     ................
  404824:	ffffffff ffffffff 00ffffff 0000ff00     ................
  404834:	ff0000ff 00ff0000 0000ff00 ff0000ff     ................
  404844:	00ff0000 0000ff00 ff0000ff 00ff0000     ................
  404854:	ffffff00 ffffffff 00ff0000 0000ff00     ................
  404864:	ff0000ff 00ff0000 0000ff00 ff0000ff     ................
  404874:	00ff0000 0000ff00 ff0000ff ffffffff     ................
  404884:	ffffffff ffffffff ffffffff ffffffff     ................
  404894:	ffffffff ffffffff ffffffff ffffffff     ................
  4048a4:	ffffffff 0000ffff ff0000ff 00ff0000     ................
  4048b4:	0000ff00 ff0000ff 00ff0000 0000ff00     ................
  4048c4:	ff0000ff 00ff0000 0000ff00 ff0000ff     ................
  4048d4:	00ff0000 0000ff00 ff0000ff 00ff0000     ................
  4048e4:	0000ff00 ff0000ff 00ff0000 0000ff00     ................
  4048f4:	ff0000ff ffffffff ffffffff ffffffff     ................
  404904:	ffffffff ffffffff ffffffff ffffffff     ................
  404914:	ffffffff ffffffff ffffffff 0000ffff     ................
  404924:	ff0000ff 00ff0000 0000ff00 ff0000ff     ................
  404934:	00ff0000 0000ff00 ff0000ff 00ff0000     ................
  404944:	0000ff00 ff0000ff 00ff0000 0000ff00     ................
  404954:	ff0000ff 00ff0000 0000ff00 ff0000ff     ................
  404964:	00ff0000 0000ff00 ffffffff ffffffff     ................
  404974:	ffffffff ffffffff ffffffff ffffffff     ................
  404984:	ffffffff ffffffff ffffffff ffffffff     ................
  404994:	ffffffff ffffffff ff0000ff 00ff0000     ................
  4049a4:	0000ff00 ff0000ff 00ff0000 0000ff00     ................
  4049b4:	ff0000ff 00ff0000 0000ff00 ff0000ff     ................
  4049c4:	00ff0000 0000ff00 ff0000ff 00ff0000     ................
  4049d4:	0000ff00 ff0000ff 00ff0000 0000ff00     ................
  4049e4:	ffffffff ffffffff ffffffff ffffffff     ................
  4049f4:	ffffffff ffffffff ffffffff ffffffff     ................
  404a04:	ffffffff ffffffff ffffffff ffffffff     ................
  404a14:	ffffffff 00ff0000 0000ff00 ff0000ff     ................
  404a24:	00ff0000 0000ff00 ff0000ff 00ff0000     ................
  404a34:	0000ff00 ff0000ff 00ff0000 0000ff00     ................
  404a44:	ff0000ff 00ff0000 0000ff00 ff0000ff     ................
  404a54:	00ff0000 ffffff00 ffffffff ffffffff     ................
  404a64:	ffffffff ffffffff ffffffff ffffffff     ................
  404a74:	ffffffff ffffffff ffffffff ffffffff     ................
  404a84:	ffffffff ffffffff ffffffff 00ffffff     ................
  404a94:	0000ff00 ff0000ff 00ff0000 0000ff00     ................
  404aa4:	ff0000ff 00ff0000 0000ff00 ff0000ff     ................
  404ab4:	00ff0000 0000ff00 ff0000ff 00ff0000     ................
  404ac4:	0000ff00 ff0000ff ffff0000 ffffffff     ................
  404ad4:	ffffffff ffffffff ffffffff ffffffff     ................
  404ae4:	ffffffff ffffffff ffffffff ffffffff     ................
  404af4:	ffffffff ffffffff ffffffff ffffffff     ................
  404b04:	ffffffff ffffffff 0000ffff ff0000ff     ................
  404b14:	00ff0000 0000ff00 ff0000ff 00ff0000     ................
  404b24:	0000ff00 ff0000ff 00ff0000 0000ff00     ................
  404b34:	ff0000ff 00ff0000 0000ff00 ffffffff     ................
  404b44:	ffffffff ffffffff ffffffff ffffffff     ................
  404b54:	ffffffff ffffffff ffffffff ffffffff     ................
  404b64:	ffffffff ffffffff ffffffff ffffffff     ................
  404b74:	ffffffff ffffffff ffffffff ffffffff     ................
  404b84:	ffffffff ffffffff 00ff0000 0000ff00     ................
  404b94:	ff0000ff 00ff0000 0000ff00 ff0000ff     ................
  404ba4:	00ff0000 0000ff00 ff0000ff 00ff0000     ................
  404bb4:	ffffff00 ffffffff ffffffff ffffffff     ................
  404bc4:	ffffffff ffffffff ffffffff ffffffff     ................
  404bd4:	ffffffff ffffffff ffffffff ffffffff     ................
  404be4:	ffffffff ffffffff ffffffff ffffffff     ................
  404bf4:	ffffffff ffffffff ffffffff ffffffff     ................
  404c04:	ffffffff ffffffff ff0000ff 00ff0000     ................
  404c14:	0000ff00 ff0000ff 00ff0000 ffffff00     ................
  404c24:	ffffffff ffffffff ffffffff ffffffff     ................
  404c34:	ffffffff ffffffff ffffffff ffffffff     ................
  404c44:	ffffffff ffffffff ffffffff ffffffff     ................
  404c54:	ffffffff ffffffff ffffffff ffffffff     ................
  404c64:	ffffffff ffffffff ffffffff ffffffff     ................
  404c74:	ffffffff ffffffff ffffffff ffffffff     ................
  404c84:	ffffffff ffffffff ffffffff ffffffff     ................
  404c94:	ffffffff ffffffff ffffffff ffffffff     ................
  404ca4:	ffffffff ffffffff ffffffff ffffffff     ................
  404cb4:	ffffffff ffffffff ffffffff ffffffff     ................
  404cc4:	ffffffff ffffffff ffffffff ffffffff     ................
  404cd4:	ffffffff ffffffff ffffffff ffffffff     ................
  404ce4:	ffffffff ffffffff ffffffff ffffffff     ................
  404cf4:	ffffffff ffffffff ffffffff ffffffff     ................
  404d04:	ffffffff ffffffff ffffffff ffffffff     ................
  404d14:	ffffffff ffffffff ffffffff ffffffff     ................
  404d24:	ffffffff ffffffff ffffffff ffffffff     ................
  404d34:	ffffffff ffffffff ffffffff ffffffff     ................
  404d44:	ffffffff ffffffff ffffffff ffffffff     ................
  404d54:	ffffffff ffffffff ffffffff ffffffff     ................
  404d64:	ffffffff ffffffff ffffffff ffffffff     ................
  404d74:	ffffffff ffffffff ffffffff ffffffff     ................
  404d84:	ffffffff ffffffff ffffffff ffffffff     ................
  404d94:	ffffffff ffffffff ffffffff ffffffff     ................
  404da4:	ffffffff ffffffff ffffffff ffffffff     ................
  404db4:	ffffffff ffffffff ffffffff ffffffff     ................
  404dc4:	ffffffff ffffffff ffffffff ffffffff     ................
  404dd4:	ffffffff ffffffff ffffffff ffffffff     ................
  404de4:	ffffffff ffffffff ffffffff ffffffff     ................
  404df4:	ffffffff ffffffff ffffffff ffffffff     ................
  404e04:	ffffffff ffffffff ffffffff ffffffff     ................
  404e14:	ffffffff ffffffff ffffffff ffffffff     ................
  404e24:	ffffffff ffffffff ffffffff ffffffff     ................
  404e34:	ffffffff ffffffff ffffffff ffffffff     ................
  404e44:	ffffffff ffffffff ffffffff ffffffff     ................
  404e54:	ffffffff ffffffff ffffffff ffffffff     ................
  404e64:	ffffffff ffffffff ffffffff ffffffff     ................
  404e74:	ffffffff ffffffff ffffffff ffffffff     ................
  404e84:	ffffffff ffffffff ffffffff ffffffff     ................
  404e94:	ffffffff ffffffff ffffffff ffffffff     ................
  404ea4:	ffffffff ffffffff ffffffff ffffffff     ................
  404eb4:	ffffffff ffffffff ffffffff ffffffff     ................
  404ec4:	ffffffff ffffffff ffffffff ffffffff     ................
  404ed4:	ffffffff ffffffff ffffffff ffffffff     ................
  404ee4:	ffffffff ffffffff ffffffff ffffffff     ................
  404ef4:	ffffffff ffffffff ffffffff ffffffff     ................
  404f04:	ffffffff ffffffff ffffffff ffffffff     ................
  404f14:	ffffffff ffffffff ffffffff ffffffff     ................
  404f24:	ffffffff ffffffff ffffffff ffffffff     ................
  404f34:	ffffffff ffffffff ffffffff ffffffff     ................
  404f44:	ffffffff ffffffff ffffffff ffffffff     ................
  404f54:	ffffffff ffffffff ffffffff ffffffff     ................
  404f64:	ffffffff ffffffff ffffffff ffffffff     ................
  404f74:	ffffffff ffffffff ffffffff ffffffff     ................
  404f84:	ffffffff ffffffff ffffffff ffffffff     ................
  404f94:	ffffffff ffffffff ffffffff ffffffff     ................
  404fa4:	ffffffff ffffffff ffffffff ffffffff     ................
  404fb4:	ffffffff ffffffff ffffffff ffffffff     ................
  404fc4:	ffffffff ffffffff ffffffff ffffffff     ................
  404fd4:	ffffffff ffffffff ffffffff ffffffff     ................
  404fe4:	ffffffff ffffffff ffffffff ffffffff     ................
  404ff4:	ffffffff ffffffff ffffffff ffffffff     ................
  405004:	ffffffff ffffffff ffffffff ffffffff     ................
  405014:	ffffffff ffffffff ffffffff ffffffff     ................
  405024:	ffffffff ffffffff ffffffff ffffffff     ................
  405034:	ffffffff ffffffff ffffffff ffffffff     ................
  405044:	ffffffff ffffffff ffffffff ffffffff     ................
  405054:	ffffffff ffffffff ffffffff ffffffff     ................
  405064:	ffffffff ffffffff ffffffff ffffffff     ................
  405074:	ffffffff ffffffff ffffffff ffffffff     ................
  405084:	ffffffff ffffffff ffffffff ffffffff     ................
  405094:	ffffffff ffffffff ffffffff ffffffff     ................
  4050a4:	ffffffff ffffffff ffffffff ffffffff     ................
  4050b4:	ffffffff ffffffff ffffffff ffffffff     ................
  4050c4:	ffffffff ffffffff ffffffff ffffffff     ................
  4050d4:	ffffffff ffffffff ffffffff ffffffff     ................
  4050e4:	ffffffff ffffffff ffffffff ffffffff     ................
  4050f4:	ffffffff ffffffff ffffffff ffffffff     ................
  405104:	ffffffff ffffffff ffffffff ffffffff     ................
  405114:	ffffffff ffffffff ffffffff ffffffff     ................
  405124:	ffffffff ffffffff ffffffff ffffffff     ................
  405134:	ffffffff ffffffff ffffffff ffffffff     ................
  405144:	ffffffff ffffffff ffffffff ffffffff     ................
  405154:	ffffffff ffffffff ffffffff ffffffff     ................
  405164:	ffffffff ffffffff ffffffff ffffffff     ................
  405174:	ffffffff ffffffff ffffffff ffffffff     ................
  405184:	ffffffff ffffffff ffffffff ffffffff     ................
  405194:	ffffffff ffffffff ffffffff ffffffff     ................
  4051a4:	ffffffff ffffffff ffffffff ffffffff     ................
  4051b4:	ffffffff ffffffff ffffffff ffffffff     ................
  4051c4:	ffffffff ffffffff ffffffff ffffffff     ................
  4051d4:	ffffffff ffffffff ffffffff ffffffff     ................
  4051e4:	ffffffff ffffffff ffffffff ffffffff     ................
  4051f4:	ffffffff ffffffff ffffffff ffffffff     ................
  405204:	ffffffff ffffffff ffffffff ffffffff     ................
  405214:	ffffffff ffffffff ffffffff ffffffff     ................
  405224:	ffffffff ffffffff ffffffff ffffffff     ................
  405234:	ffffffff ffffffff ffffffff ffffffff     ................
  405244:	ffffffff ffffffff ffffffff ffffffff     ................
  405254:	ffffffff ffffffff ffffffff ffffffff     ................
  405264:	ffffffff ffffffff ffffffff ffffffff     ................
  405274:	ffffffff ffffffff ffffffff ffffffff     ................
  405284:	ffffffff ffffffff ffffffff ffffffff     ................
  405294:	ffffffff ffffffff ffffffff ffffffff     ................
  4052a4:	ffffffff ffffffff ffffffff ffffffff     ................
  4052b4:	ffffffff ffffffff ffffffff ffffffff     ................
  4052c4:	ffffffff ffffffff ffffffff ffffffff     ................
  4052d4:	ffffffff ffffffff ffffffff ffffffff     ................
  4052e4:	ffffffff ffffffff ffffffff ffffffff     ................
  4052f4:	ffffffff ffffffff ffffffff ffffffff     ................
  405304:	ffffffff ffffffff ffffffff ffffffff     ................
  405314:	ffffffff ffffffff ffffffff ffffffff     ................
  405324:	ffffffff ffffffff ffffffff ffffffff     ................
  405334:	ffffffff ffffffff ffffffff ffffffff     ................
  405344:	ffffffff ffffffff ffffffff ffffffff     ................
  405354:	ffffffff ffffffff ffffffff ffffffff     ................
  405364:	ffffffff ffffffff ffffffff ffffffff     ................
  405374:	ffffffff ffffffff ffffffff ffffffff     ................
  405384:	ffffffff ffffffff ffffffff ffffffff     ................
  405394:	ffffffff ffffffff ffffffff ffffffff     ................
  4053a4:	ffffffff ffffffff ffffffff ffffffff     ................
  4053b4:	ffffffff ffffffff ffffffff ffffffff     ................
  4053c4:	ffffffff ffffffff ffffffff ffffffff     ................

004053d4 <arial_72_0x30>:
  4053d4:	00402c74 00000028 00000054 00000008     t,@.(...T.......

004053e4 <image_data_arial_72_0x31>:
  4053e4:	ffffffff ffffffff ffffffff ffffffff     ................
  4053f4:	ffffffff ffffffff ffffffff ffffffff     ................
  405404:	ffffffff ffffffff ffffffff ffffffff     ................
  405414:	ffffffff ffffffff ffffffff ffffffff     ................
  405424:	ffffffff ffffffff ffffffff ffffffff     ................
  405434:	ffffffff ffffffff ffffffff ffffffff     ................
  405444:	ffffffff ffffffff ffffffff ffffffff     ................
  405454:	ffffffff ffffffff ffffffff ffffffff     ................
  405464:	ffffffff ffffffff ffffffff ffffffff     ................
  405474:	ffffffff ffffffff ffffffff ffffffff     ................
  405484:	ffffffff ffffffff ffffffff ffffffff     ................
  405494:	ffffffff ffffffff ffffffff ffffffff     ................
  4054a4:	ffffffff ffffffff ffffffff ffffffff     ................
  4054b4:	ffffffff ffffffff ffffffff ffffffff     ................
  4054c4:	ffffffff ffffffff ffffffff ffffffff     ................
  4054d4:	ffffffff ffffffff ffffffff ffffffff     ................
  4054e4:	ffffffff ffffffff ffffffff ffffffff     ................
  4054f4:	ffffffff ffffffff ffffffff ffffffff     ................
  405504:	ffffffff ffffffff ffffffff ffffffff     ................
  405514:	ffffffff ffffffff ffffffff ffffffff     ................
  405524:	ffffffff ffffffff ffffffff ffffffff     ................
  405534:	ffffffff ffffffff ffffffff ffffffff     ................
  405544:	ffffffff ffffffff ffffffff ffffffff     ................
  405554:	ffffffff ffffffff ffffffff ffffffff     ................
  405564:	ffffffff ffffffff ffffffff ffffffff     ................
  405574:	ffffffff ffffffff ffffffff ffffffff     ................
  405584:	ffffffff ffffffff ffffffff ffffffff     ................
  405594:	ffffffff ffffffff ffffffff ffffffff     ................
  4055a4:	ffffffff ffffffff ffffffff ffffffff     ................
  4055b4:	ffffffff ffffffff ffffffff ffffffff     ................
  4055c4:	ffffffff ffffffff ffffffff ffffffff     ................
  4055d4:	ffffffff ffffffff ffffffff ffffffff     ................
  4055e4:	ffffffff ffffffff ffffffff ffffffff     ................
  4055f4:	ffffffff ffffffff ffffffff ffffffff     ................
  405604:	ffffffff ffffffff ffffffff ffffffff     ................
  405614:	ffffffff ffffffff ffffffff ffffffff     ................
  405624:	ffffffff ffffffff ffffffff ffffffff     ................
  405634:	ffffffff ffffffff ffffffff ffffffff     ................
  405644:	ffffffff ffffffff ffffffff ffffffff     ................
  405654:	ffffffff ffffffff ffffffff ffffffff     ................
  405664:	ffffffff ffffffff ffffffff ffffffff     ................
  405674:	ffffffff ffffffff ffffffff ffffffff     ................
  405684:	ffffffff ffffffff ffffffff ffffffff     ................
  405694:	ffffffff ffffffff ffffffff ffffffff     ................
  4056a4:	ffffffff ffffffff ffffffff ffffffff     ................
  4056b4:	ffffffff ffffffff ffffffff ffffffff     ................
  4056c4:	ffffffff ffffffff ffffffff ffffffff     ................
  4056d4:	ffffffff ffffffff ffffffff ffffffff     ................
  4056e4:	ffffffff ffffffff ffffffff ffffffff     ................
  4056f4:	ffffffff ffffffff ffffffff ffffffff     ................
  405704:	ffffffff ffffffff ffffffff ffffffff     ................
  405714:	ffffffff ffffffff ffffffff ffffffff     ................
  405724:	ffffffff ffffffff ffffffff ffffffff     ................
  405734:	ffffffff ffffffff ffffffff ffffffff     ................
  405744:	ffffffff ffffffff ffffffff ffffffff     ................
  405754:	ffffffff ffffffff ffffffff ffffffff     ................
  405764:	ffffffff ffffffff ffffffff ffffffff     ................
  405774:	ffffffff ffffffff ffffffff ffffffff     ................
  405784:	ffffffff ffffffff ffffffff ffffffff     ................
  405794:	ffffffff ffffffff ffffffff ffffffff     ................
  4057a4:	ffffffff ffffffff ffffffff ffffffff     ................
  4057b4:	ffffffff ffffffff ffffffff ffffffff     ................
  4057c4:	ffffffff ffffffff ffffffff ffffffff     ................
  4057d4:	ffffffff ffffffff ffffffff ffffffff     ................
  4057e4:	ffffffff ffffffff ffffffff ffffffff     ................
  4057f4:	ffffffff ffffffff ffffffff ffffffff     ................
  405804:	ffffffff ffffffff ffffffff ffffffff     ................
  405814:	ffffffff ffffffff ffffffff ffffffff     ................
  405824:	ffffffff ffffffff ffffffff ffffffff     ................
  405834:	ffffffff ffffffff ffffffff ffffffff     ................
  405844:	ffffffff ffffffff ffffffff ffffffff     ................
  405854:	ffffffff ffffffff ffffffff ffffffff     ................
  405864:	ffffffff ffffffff ffffffff ffffffff     ................
  405874:	ffffffff ffffffff ffffffff ffffffff     ................
  405884:	ffffffff ffffffff ffffffff ffffffff     ................
  405894:	ffffffff ffffffff ffffffff ffffffff     ................
  4058a4:	ffffffff ffffffff ffffffff ffffffff     ................
  4058b4:	ffffffff ffffffff ffffffff ffffffff     ................
  4058c4:	ffffffff ffffffff ffffffff ffffffff     ................
  4058d4:	ffffffff ffffffff ffffffff ffffffff     ................
  4058e4:	ffffffff ffffffff ffffffff ffffffff     ................
  4058f4:	ffffffff ffffffff ffffffff ffffffff     ................
  405904:	ffffffff ffffffff ffffffff ffffffff     ................
  405914:	ffffffff ffffffff ffffffff ffffffff     ................
  405924:	ffffffff ffffffff ffffffff ffffffff     ................
  405934:	ffffffff ffffffff ffffffff ffffffff     ................
  405944:	ffffffff ffffffff ffffffff ffffffff     ................
  405954:	ffffffff ffffffff ffffffff ffffffff     ................
  405964:	ffffffff ffffffff ffffffff ffffffff     ................
  405974:	ffffffff ffffffff ffffffff ffffffff     ................
  405984:	ffffffff ffffffff ffffffff ffffffff     ................
  405994:	ffffffff ffffffff ffffffff ffffffff     ................
  4059a4:	ffffffff ffffffff ffffffff ffffffff     ................
  4059b4:	ffffffff ffffffff ffffffff ffffffff     ................
  4059c4:	ffffffff ffffffff ffffffff ffffffff     ................
  4059d4:	ffffffff ffffffff ffffffff ffffffff     ................
  4059e4:	ffffffff ffffffff ffffffff ffffffff     ................
  4059f4:	ffffffff ffffffff ffffffff ffffffff     ................
  405a04:	ffffffff ffffffff ffffffff ffffffff     ................
  405a14:	ffffffff ffffffff ffffffff ffffffff     ................
  405a24:	ffffffff ffffffff ffffffff ffffffff     ................
  405a34:	ffffffff ffffffff ffffffff ffffffff     ................
  405a44:	ffffffff ffffffff ffffffff ffffffff     ................
  405a54:	ffffffff ffffffff ffffffff ffffffff     ................
  405a64:	ffffffff ffffffff ffffffff ffffffff     ................
  405a74:	ffffffff ffffffff ffffffff ffffffff     ................
  405a84:	ffffffff ffffffff ffffffff ffffffff     ................
  405a94:	ffffffff ffffffff ffffffff ffffffff     ................
  405aa4:	ffffffff ffffffff ffffffff ffffffff     ................
  405ab4:	ffffffff ffffffff ffffffff ffffffff     ................
  405ac4:	ffffffff ffffffff ffffffff ffffffff     ................
  405ad4:	ffffffff ffffffff ffffffff ffffffff     ................
  405ae4:	ffffffff ffffffff ffffffff ffffffff     ................
  405af4:	ffffffff ffffffff ffffffff ffffffff     ................
  405b04:	ffffffff ffffffff ffffffff ffffffff     ................
  405b14:	ffffffff ffffffff ffffffff ffffffff     ................
  405b24:	ffffffff ff0000ff 00ff0000 0000ff00     ................
  405b34:	ff0000ff 00ff0000 0000ff00 ffffffff     ................
  405b44:	ffffffff ffffffff ffffffff ffffffff     ................
  405b54:	ffffffff ffffffff ffffffff ffffffff     ................
  405b64:	ffffffff ffffffff ffffffff ffffffff     ................
  405b74:	ffffffff ffffffff ffffffff ffffffff     ................
  405b84:	ffffffff ffffffff ffffffff ffffffff     ................
  405b94:	ffffffff ffffffff ffffffff ff0000ff     ................
  405ba4:	00ff0000 0000ff00 ff0000ff 00ff0000     ................
  405bb4:	0000ff00 ffffffff ffffffff ffffffff     ................
  405bc4:	ffffffff ffffffff ffffffff ffffffff     ................
  405bd4:	ffffffff ffffffff ffffffff ffffffff     ................
  405be4:	ffffffff ffffffff ffffffff ffffffff     ................
  405bf4:	ffffffff ffffffff ffffffff ffffffff     ................
  405c04:	ffffffff ffffffff ffffffff ffffffff     ................
  405c14:	0000ffff ff0000ff 00ff0000 0000ff00     ................
  405c24:	ff0000ff 00ff0000 0000ff00 ffffffff     ................
  405c34:	ffffffff ffffffff ffffffff ffffffff     ................
  405c44:	ffffffff ffffffff ffffffff ffffffff     ................
  405c54:	ffffffff ffffffff ffffffff ffffffff     ................
  405c64:	ffffffff ffffffff ffffffff ffffffff     ................
  405c74:	ffffffff ffffffff ffffffff ffffffff     ................
  405c84:	ffffffff ffffffff 0000ffff ff0000ff     ................
  405c94:	00ff0000 0000ff00 ff0000ff 00ff0000     ................
  405ca4:	0000ff00 ffffffff ffffffff ffffffff     ................
  405cb4:	ffffffff ffffffff ffffffff ffffffff     ................
  405cc4:	ffffffff ffffffff ffffffff ffffffff     ................
  405cd4:	ffffffff ffffffff ffffffff ffffffff     ................
  405ce4:	ffffffff ffffffff ffffffff ffffffff     ................
  405cf4:	ffffffff ffffffff ffffffff 00ffffff     ................
  405d04:	0000ff00 ff0000ff 00ff0000 0000ff00     ................
  405d14:	ff0000ff 00ff0000 0000ff00 ffffffff     ................
  405d24:	ffffffff ffffffff ffffffff ffffffff     ................
  405d34:	ffffffff ffffffff ffffffff ffffffff     ................
  405d44:	ffffffff ffffffff ffffffff ffffffff     ................
  405d54:	ffffffff ffffffff ffffffff ffffffff     ................
  405d64:	ffffffff ffffffff ffffffff ffffffff     ................
  405d74:	ffffffff 00ff0000 0000ff00 ff0000ff     ................
  405d84:	00ff0000 0000ff00 ff0000ff 00ff0000     ................
  405d94:	0000ff00 ffffffff ffffffff ffffffff     ................
  405da4:	ffffffff ffffffff ffffffff ffffffff     ................
  405db4:	ffffffff ffffffff ffffffff ffffffff     ................
  405dc4:	ffffffff ffffffff ffffffff ffffffff     ................
  405dd4:	ffffffff ffffffff ffffffff ffffffff     ................
  405de4:	ffffffff ffffffff ff0000ff 00ff0000     ................
  405df4:	0000ff00 ff0000ff 00ff0000 0000ff00     ................
  405e04:	ff0000ff 00ff0000 0000ff00 ffffffff     ................
  405e14:	ffffffff ffffffff ffffffff ffffffff     ................
  405e24:	ffffffff ffffffff ffffffff ffffffff     ................
  405e34:	ffffffff ffffffff ffffffff ffffffff     ................
  405e44:	ffffffff ffffffff ffffffff ffffffff     ................
  405e54:	ffffffff ffffffff ffffffff 0000ffff     ................
  405e64:	ff0000ff 00ff0000 0000ff00 ff0000ff     ................
  405e74:	00ff0000 0000ff00 ff0000ff 00ff0000     ................
  405e84:	0000ff00 ffffffff ffffffff ffffffff     ................
  405e94:	ffffffff ffffffff ffffffff ffffffff     ................
  405ea4:	ffffffff ffffffff ffffffff ffffffff     ................
  405eb4:	ffffffff ffffffff ffffffff ffffffff     ................
  405ec4:	ffffffff ffffffff ffffffff ffffffff     ................
  405ed4:	00ffffff 0000ff00 ff0000ff 00ff0000     ................
  405ee4:	0000ff00 ff0000ff 00ff0000 0000ff00     ................
  405ef4:	ff0000ff 00ff0000 0000ff00 ffffffff     ................
  405f04:	ffffffff ffffffff ffffffff ffffffff     ................
  405f14:	ffffffff ffffffff ffffffff ffffffff     ................
  405f24:	ffffffff ffffffff ffffffff ffffffff     ................
  405f34:	ffffffff ffffffff ffffffff ffffffff     ................
  405f44:	ffffffff ffffffff 00ff0000 0000ff00     ................
  405f54:	ff0000ff 00ff0000 0000ff00 ff0000ff     ................
  405f64:	00ff0000 0000ff00 ff0000ff 00ff0000     ................
  405f74:	0000ff00 ffffffff ffffffff ffffffff     ................
  405f84:	ffffffff ffffffff ffffffff ffffffff     ................
  405f94:	ffffffff ffffffff ffffffff ffffffff     ................
  405fa4:	ffffffff ffffffff ffffffff ffffffff     ................
  405fb4:	ffffffff ffffffff 0000ffff ff0000ff     ................
  405fc4:	00ff0000 0000ff00 ff0000ff 00ff0000     ................
  405fd4:	0000ff00 ff0000ff 00ff0000 0000ff00     ................
  405fe4:	ff0000ff 00ff0000 0000ff00 ffffffff     ................
  405ff4:	ffffffff ffffffff ffffffff ffffffff     ................
  406004:	ffffffff ffffffff ffffffff ffffffff     ................
  406014:	ffffffff ffffffff ffffffff ffffffff     ................
  406024:	ffffffff ffffffff ffffffff 00ffffff     ................
  406034:	0000ff00 ff0000ff 00ff0000 0000ff00     ................
  406044:	ff0000ff 00ff0000 0000ff00 ff0000ff     ................
  406054:	00ff0000 0000ff00 ff0000ff 00ff0000     ................
  406064:	0000ff00 ffffffff ffffffff ffffffff     ................
  406074:	ffffffff ffffffff ffffffff ffffffff     ................
  406084:	ffffffff ffffffff ffffffff ffffffff     ................
  406094:	ffffffff ffffffff ffffffff 0000ffff     ................
  4060a4:	ff0000ff 00ff0000 0000ff00 ff0000ff     ................
  4060b4:	00ff0000 0000ff00 ff0000ff 00ff0000     ................
  4060c4:	0000ff00 ff0000ff 00ff0000 0000ff00     ................
  4060d4:	ff0000ff 00ff0000 0000ff00 ffffffff     ................
  4060e4:	ffffffff ffffffff ffffffff ffffffff     ................
  4060f4:	ffffffff ffffffff ffffffff ffffffff     ................
  406104:	ffffffff ffffffff ffffffff ffffffff     ................
  406114:	00ffffff 0000ff00 ff0000ff 00ff0000     ................
  406124:	0000ff00 ff0000ff 00ff0000 0000ff00     ................
  406134:	ff0000ff 00ff0000 0000ff00 ff0000ff     ................
  406144:	00ff0000 0000ff00 ff0000ff 00ff0000     ................
  406154:	0000ff00 ffffffff ffffffff ffffffff     ................
  406164:	ffffffff ffffffff ffffffff ffffffff     ................
  406174:	ffffffff ffffffff ffffffff ffffffff     ................
  406184:	ffffffff ffffffff 00ffffff 0000ff00     ................
  406194:	ff0000ff 00ff0000 0000ff00 ff0000ff     ................
  4061a4:	00ff0000 0000ff00 ff0000ff 00ff0000     ................
  4061b4:	0000ff00 ff0000ff 00ff0000 0000ff00     ................
  4061c4:	ff0000ff 00ff0000 0000ff00 ffffffff     ................
  4061d4:	ffffffff ffffffff ffffffff ffffffff     ................
  4061e4:	ffffffff ffffffff ffffffff ffffffff     ................
  4061f4:	ffffffff ffffffff ffffffff ffffffff     ................
  406204:	00ffffff 0000ff00 ff0000ff 00ff0000     ................
  406214:	0000ff00 ff0000ff 00ff0000 0000ff00     ................
  406224:	ff0000ff 00ff0000 0000ff00 ff0000ff     ................
  406234:	00ff0000 0000ff00 ff0000ff 00ff0000     ................
  406244:	0000ff00 ffffffff ffffffff ffffffff     ................
  406254:	ffffffff ffffffff ffffffff ffffffff     ................
  406264:	ffffffff ffffffff ffffffff ffffffff     ................
  406274:	ffffffff ffffffff 00ffffff 0000ff00     ................
  406284:	ff0000ff 00ff0000 0000ff00 ff0000ff     ................
  406294:	00ff0000 0000ff00 ffffffff 00ffffff     ................
  4062a4:	0000ff00 ff0000ff 00ff0000 0000ff00     ................
  4062b4:	ff0000ff 00ff0000 0000ff00 ffffffff     ................
  4062c4:	ffffffff ffffffff ffffffff ffffffff     ................
  4062d4:	ffffffff ffffffff ffffffff ffffffff     ................
  4062e4:	ffffffff ffffffff ffffffff ffffffff     ................
  4062f4:	00ffffff 0000ff00 ff0000ff 00ff0000     ................
  406304:	0000ff00 ff0000ff 00ff0000 ffffff00     ................
  406314:	ffffffff 00ffffff 0000ff00 ff0000ff     ................
  406324:	00ff0000 0000ff00 ff0000ff 00ff0000     ................
  406334:	0000ff00 ffffffff ffffffff ffffffff     ................
  406344:	ffffffff ffffffff ffffffff ffffffff     ................
  406354:	ffffffff ffffffff ffffffff ffffffff     ................
  406364:	ffffffff ffffffff 00ffffff 0000ff00     ................
  406374:	ff0000ff 00ff0000 0000ff00 ff0000ff     ................
  406384:	ffff0000 ffffffff ffffffff 00ffffff     ................
  406394:	0000ff00 ff0000ff 00ff0000 0000ff00     ................
  4063a4:	ff0000ff 00ff0000 0000ff00 ffffffff     ................
  4063b4:	ffffffff ffffffff ffffffff ffffffff     ................
  4063c4:	ffffffff ffffffff ffffffff ffffffff     ................
  4063d4:	ffffffff ffffffff ffffffff ffffffff     ................
  4063e4:	00ffffff 0000ff00 ff0000ff 00ff0000     ................
  4063f4:	0000ff00 ffffffff ffffffff ffffffff     ................
  406404:	ffffffff 00ffffff 0000ff00 ff0000ff     ................
  406414:	00ff0000 0000ff00 ff0000ff 00ff0000     ................
  406424:	0000ff00 ffffffff ffffffff ffffffff     ................
  406434:	ffffffff ffffffff ffffffff ffffffff     ................
  406444:	ffffffff ffffffff ffffffff ffffffff     ................
  406454:	ffffffff ffffffff 00ffffff 0000ff00     ................
  406464:	ff0000ff ffff0000 ffffffff ffffffff     ................
  406474:	ffffffff ffffffff ffffffff 00ffffff     ................
  406484:	0000ff00 ff0000ff 00ff0000 0000ff00     ................
  406494:	ff0000ff 00ff0000 0000ff00 ffffffff     ................
  4064a4:	ffffffff ffffffff ffffffff ffffffff     ................
  4064b4:	ffffffff ffffffff ffffffff ffffffff     ................
  4064c4:	ffffffff ffffffff ffffffff ffffffff     ................
  4064d4:	00ffffff 0000ff00 ffffffff ffffffff     ................
  4064e4:	ffffffff ffffffff ffffffff ffffffff     ................
  4064f4:	ffffffff 00ffffff 0000ff00 ff0000ff     ................
  406504:	00ff0000 0000ff00 ff0000ff 00ff0000     ................
  406514:	0000ff00 ffffffff ffffffff ffffffff     ................
  406524:	ffffffff ffffffff ffffffff ffffffff     ................
  406534:	ffffffff ffffffff ffffffff ffffffff     ................
  406544:	ffffffff ffffffff ffffffff ffffffff     ................
  406554:	ffffffff ffffffff ffffffff ffffffff     ................
  406564:	ffffffff ffffffff ffffffff 00ffffff     ................
  406574:	0000ff00 ff0000ff 00ff0000 0000ff00     ................
  406584:	ff0000ff 00ff0000 0000ff00 ffffffff     ................
  406594:	ffffffff ffffffff ffffffff ffffffff     ................
  4065a4:	ffffffff ffffffff ffffffff ffffffff     ................
  4065b4:	ffffffff ffffffff ffffffff ffffffff     ................
  4065c4:	ffffffff ffffffff ffffffff ffffffff     ................
  4065d4:	ffffffff ffffffff ffffffff ffffffff     ................
  4065e4:	ffffffff 00ffffff 0000ff00 ff0000ff     ................
  4065f4:	00ff0000 0000ff00 ff0000ff 00ff0000     ................
  406604:	0000ff00 ffffffff ffffffff ffffffff     ................
  406614:	ffffffff ffffffff ffffffff ffffffff     ................
  406624:	ffffffff ffffffff ffffffff ffffffff     ................
  406634:	ffffffff ffffffff ffffffff ffffffff     ................
  406644:	ffffffff ffffffff ffffffff ffffffff     ................
  406654:	ffffffff ffffffff ffffffff 00ffffff     ................
  406664:	0000ff00 ff0000ff 00ff0000 0000ff00     ................
  406674:	ff0000ff 00ff0000 0000ff00 ffffffff     ................
  406684:	ffffffff ffffffff ffffffff ffffffff     ................
  406694:	ffffffff ffffffff ffffffff ffffffff     ................
  4066a4:	ffffffff ffffffff ffffffff ffffffff     ................
  4066b4:	ffffffff ffffffff ffffffff ffffffff     ................
  4066c4:	ffffffff ffffffff ffffffff ffffffff     ................
  4066d4:	ffffffff 00ffffff 0000ff00 ff0000ff     ................
  4066e4:	00ff0000 0000ff00 ff0000ff 00ff0000     ................
  4066f4:	0000ff00 ffffffff ffffffff ffffffff     ................
  406704:	ffffffff ffffffff ffffffff ffffffff     ................
  406714:	ffffffff ffffffff ffffffff ffffffff     ................
  406724:	ffffffff ffffffff ffffffff ffffffff     ................
  406734:	ffffffff ffffffff ffffffff ffffffff     ................
  406744:	ffffffff ffffffff ffffffff 00ffffff     ................
  406754:	0000ff00 ff0000ff 00ff0000 0000ff00     ................
  406764:	ff0000ff 00ff0000 0000ff00 ffffffff     ................
  406774:	ffffffff ffffffff ffffffff ffffffff     ................
  406784:	ffffffff ffffffff ffffffff ffffffff     ................
  406794:	ffffffff ffffffff ffffffff ffffffff     ................
  4067a4:	ffffffff ffffffff ffffffff ffffffff     ................
  4067b4:	ffffffff ffffffff ffffffff ffffffff     ................
  4067c4:	ffffffff 00ffffff 0000ff00 ff0000ff     ................
  4067d4:	00ff0000 0000ff00 ff0000ff 00ff0000     ................
  4067e4:	0000ff00 ffffffff ffffffff ffffffff     ................
  4067f4:	ffffffff ffffffff ffffffff ffffffff     ................
  406804:	ffffffff ffffffff ffffffff ffffffff     ................
  406814:	ffffffff ffffffff ffffffff ffffffff     ................
  406824:	ffffffff ffffffff ffffffff ffffffff     ................
  406834:	ffffffff ffffffff ffffffff 00ffffff     ................
  406844:	0000ff00 ff0000ff 00ff0000 0000ff00     ................
  406854:	ff0000ff 00ff0000 0000ff00 ffffffff     ................
  406864:	ffffffff ffffffff ffffffff ffffffff     ................
  406874:	ffffffff ffffffff ffffffff ffffffff     ................
  406884:	ffffffff ffffffff ffffffff ffffffff     ................
  406894:	ffffffff ffffffff ffffffff ffffffff     ................
  4068a4:	ffffffff ffffffff ffffffff ffffffff     ................
  4068b4:	ffffffff 00ffffff 0000ff00 ff0000ff     ................
  4068c4:	00ff0000 0000ff00 ff0000ff 00ff0000     ................
  4068d4:	0000ff00 ffffffff ffffffff ffffffff     ................
  4068e4:	ffffffff ffffffff ffffffff ffffffff     ................
  4068f4:	ffffffff ffffffff ffffffff ffffffff     ................
  406904:	ffffffff ffffffff ffffffff ffffffff     ................
  406914:	ffffffff ffffffff ffffffff ffffffff     ................
  406924:	ffffffff ffffffff ffffffff 00ffffff     ................
  406934:	0000ff00 ff0000ff 00ff0000 0000ff00     ................
  406944:	ff0000ff 00ff0000 0000ff00 ffffffff     ................
  406954:	ffffffff ffffffff ffffffff ffffffff     ................
  406964:	ffffffff ffffffff ffffffff ffffffff     ................
  406974:	ffffffff ffffffff ffffffff ffffffff     ................
  406984:	ffffffff ffffffff ffffffff ffffffff     ................
  406994:	ffffffff ffffffff ffffffff ffffffff     ................
  4069a4:	ffffffff 00ffffff 0000ff00 ff0000ff     ................
  4069b4:	00ff0000 0000ff00 ff0000ff 00ff0000     ................
  4069c4:	0000ff00 ffffffff ffffffff ffffffff     ................
  4069d4:	ffffffff ffffffff ffffffff ffffffff     ................
  4069e4:	ffffffff ffffffff ffffffff ffffffff     ................
  4069f4:	ffffffff ffffffff ffffffff ffffffff     ................
  406a04:	ffffffff ffffffff ffffffff ffffffff     ................
  406a14:	ffffffff ffffffff ffffffff 00ffffff     ................
  406a24:	0000ff00 ff0000ff 00ff0000 0000ff00     ................
  406a34:	ff0000ff 00ff0000 0000ff00 ffffffff     ................
  406a44:	ffffffff ffffffff ffffffff ffffffff     ................
  406a54:	ffffffff ffffffff ffffffff ffffffff     ................
  406a64:	ffffffff ffffffff ffffffff ffffffff     ................
  406a74:	ffffffff ffffffff ffffffff ffffffff     ................
  406a84:	ffffffff ffffffff ffffffff ffffffff     ................
  406a94:	ffffffff 00ffffff 0000ff00 ff0000ff     ................
  406aa4:	00ff0000 0000ff00 ff0000ff 00ff0000     ................
  406ab4:	0000ff00 ffffffff ffffffff ffffffff     ................
  406ac4:	ffffffff ffffffff ffffffff ffffffff     ................
  406ad4:	ffffffff ffffffff ffffffff ffffffff     ................
  406ae4:	ffffffff ffffffff ffffffff ffffffff     ................
  406af4:	ffffffff ffffffff ffffffff ffffffff     ................
  406b04:	ffffffff ffffffff ffffffff 00ffffff     ................
  406b14:	0000ff00 ff0000ff 00ff0000 0000ff00     ................
  406b24:	ff0000ff 00ff0000 0000ff00 ffffffff     ................
  406b34:	ffffffff ffffffff ffffffff ffffffff     ................
  406b44:	ffffffff ffffffff ffffffff ffffffff     ................
  406b54:	ffffffff ffffffff ffffffff ffffffff     ................
  406b64:	ffffffff ffffffff ffffffff ffffffff     ................
  406b74:	ffffffff ffffffff ffffffff ffffffff     ................
  406b84:	ffffffff 00ffffff 0000ff00 ff0000ff     ................
  406b94:	00ff0000 0000ff00 ff0000ff 00ff0000     ................
  406ba4:	0000ff00 ffffffff ffffffff ffffffff     ................
  406bb4:	ffffffff ffffffff ffffffff ffffffff     ................
  406bc4:	ffffffff ffffffff ffffffff ffffffff     ................
  406bd4:	ffffffff ffffffff ffffffff ffffffff     ................
  406be4:	ffffffff ffffffff ffffffff ffffffff     ................
  406bf4:	ffffffff ffffffff ffffffff 00ffffff     ................
  406c04:	0000ff00 ff0000ff 00ff0000 0000ff00     ................
  406c14:	ff0000ff 00ff0000 0000ff00 ffffffff     ................
  406c24:	ffffffff ffffffff ffffffff ffffffff     ................
  406c34:	ffffffff ffffffff ffffffff ffffffff     ................
  406c44:	ffffffff ffffffff ffffffff ffffffff     ................
  406c54:	ffffffff ffffffff ffffffff ffffffff     ................
  406c64:	ffffffff ffffffff ffffffff ffffffff     ................
  406c74:	ffffffff 00ffffff 0000ff00 ff0000ff     ................
  406c84:	00ff0000 0000ff00 ff0000ff 00ff0000     ................
  406c94:	0000ff00 ffffffff ffffffff ffffffff     ................
  406ca4:	ffffffff ffffffff ffffffff ffffffff     ................
  406cb4:	ffffffff ffffffff ffffffff ffffffff     ................
  406cc4:	ffffffff ffffffff ffffffff ffffffff     ................
  406cd4:	ffffffff ffffffff ffffffff ffffffff     ................
  406ce4:	ffffffff ffffffff ffffffff 00ffffff     ................
  406cf4:	0000ff00 ff0000ff 00ff0000 0000ff00     ................
  406d04:	ff0000ff 00ff0000 0000ff00 ffffffff     ................
  406d14:	ffffffff ffffffff ffffffff ffffffff     ................
  406d24:	ffffffff ffffffff ffffffff ffffffff     ................
  406d34:	ffffffff ffffffff ffffffff ffffffff     ................
  406d44:	ffffffff ffffffff ffffffff ffffffff     ................
  406d54:	ffffffff ffffffff ffffffff ffffffff     ................
  406d64:	ffffffff 00ffffff 0000ff00 ff0000ff     ................
  406d74:	00ff0000 0000ff00 ff0000ff 00ff0000     ................
  406d84:	0000ff00 ffffffff ffffffff ffffffff     ................
  406d94:	ffffffff ffffffff ffffffff ffffffff     ................
  406da4:	ffffffff ffffffff ffffffff ffffffff     ................
  406db4:	ffffffff ffffffff ffffffff ffffffff     ................
  406dc4:	ffffffff ffffffff ffffffff ffffffff     ................
  406dd4:	ffffffff ffffffff ffffffff 00ffffff     ................
  406de4:	0000ff00 ff0000ff 00ff0000 0000ff00     ................
  406df4:	ff0000ff 00ff0000 0000ff00 ffffffff     ................
  406e04:	ffffffff ffffffff ffffffff ffffffff     ................
  406e14:	ffffffff ffffffff ffffffff ffffffff     ................
  406e24:	ffffffff ffffffff ffffffff ffffffff     ................
  406e34:	ffffffff ffffffff ffffffff ffffffff     ................
  406e44:	ffffffff ffffffff ffffffff ffffffff     ................
  406e54:	ffffffff 00ffffff 0000ff00 ff0000ff     ................
  406e64:	00ff0000 0000ff00 ff0000ff 00ff0000     ................
  406e74:	0000ff00 ffffffff ffffffff ffffffff     ................
  406e84:	ffffffff ffffffff ffffffff ffffffff     ................
  406e94:	ffffffff ffffffff ffffffff ffffffff     ................
  406ea4:	ffffffff ffffffff ffffffff ffffffff     ................
  406eb4:	ffffffff ffffffff ffffffff ffffffff     ................
  406ec4:	ffffffff ffffffff ffffffff 00ffffff     ................
  406ed4:	0000ff00 ff0000ff 00ff0000 0000ff00     ................
  406ee4:	ff0000ff 00ff0000 0000ff00 ffffffff     ................
  406ef4:	ffffffff ffffffff ffffffff ffffffff     ................
  406f04:	ffffffff ffffffff ffffffff ffffffff     ................
  406f14:	ffffffff ffffffff ffffffff ffffffff     ................
  406f24:	ffffffff ffffffff ffffffff ffffffff     ................
  406f34:	ffffffff ffffffff ffffffff ffffffff     ................
  406f44:	ffffffff 00ffffff 0000ff00 ff0000ff     ................
  406f54:	00ff0000 0000ff00 ff0000ff 00ff0000     ................
  406f64:	0000ff00 ffffffff ffffffff ffffffff     ................
  406f74:	ffffffff ffffffff ffffffff ffffffff     ................
  406f84:	ffffffff ffffffff ffffffff ffffffff     ................
  406f94:	ffffffff ffffffff ffffffff ffffffff     ................
  406fa4:	ffffffff ffffffff ffffffff ffffffff     ................
  406fb4:	ffffffff ffffffff ffffffff 00ffffff     ................
  406fc4:	0000ff00 ff0000ff 00ff0000 0000ff00     ................
  406fd4:	ff0000ff 00ff0000 0000ff00 ffffffff     ................
  406fe4:	ffffffff ffffffff ffffffff ffffffff     ................
  406ff4:	ffffffff ffffffff ffffffff ffffffff     ................
  407004:	ffffffff ffffffff ffffffff ffffffff     ................
  407014:	ffffffff ffffffff ffffffff ffffffff     ................
  407024:	ffffffff ffffffff ffffffff ffffffff     ................
  407034:	ffffffff 00ffffff 0000ff00 ff0000ff     ................
  407044:	00ff0000 0000ff00 ff0000ff 00ff0000     ................
  407054:	0000ff00 ffffffff ffffffff ffffffff     ................
  407064:	ffffffff ffffffff ffffffff ffffffff     ................
  407074:	ffffffff ffffffff ffffffff ffffffff     ................
  407084:	ffffffff ffffffff ffffffff ffffffff     ................
  407094:	ffffffff ffffffff ffffffff ffffffff     ................
  4070a4:	ffffffff ffffffff ffffffff 00ffffff     ................
  4070b4:	0000ff00 ff0000ff 00ff0000 0000ff00     ................
  4070c4:	ff0000ff 00ff0000 0000ff00 ffffffff     ................
  4070d4:	ffffffff ffffffff ffffffff ffffffff     ................
  4070e4:	ffffffff ffffffff ffffffff ffffffff     ................
  4070f4:	ffffffff ffffffff ffffffff ffffffff     ................
  407104:	ffffffff ffffffff ffffffff ffffffff     ................
  407114:	ffffffff ffffffff ffffffff ffffffff     ................
  407124:	ffffffff 00ffffff 0000ff00 ff0000ff     ................
  407134:	00ff0000 0000ff00 ff0000ff 00ff0000     ................
  407144:	0000ff00 ffffffff ffffffff ffffffff     ................
  407154:	ffffffff ffffffff ffffffff ffffffff     ................
  407164:	ffffffff ffffffff ffffffff ffffffff     ................
  407174:	ffffffff ffffffff ffffffff ffffffff     ................
  407184:	ffffffff ffffffff ffffffff ffffffff     ................
  407194:	ffffffff ffffffff ffffffff 00ffffff     ................
  4071a4:	0000ff00 ff0000ff 00ff0000 0000ff00     ................
  4071b4:	ff0000ff 00ff0000 0000ff00 ffffffff     ................
  4071c4:	ffffffff ffffffff ffffffff ffffffff     ................
  4071d4:	ffffffff ffffffff ffffffff ffffffff     ................
  4071e4:	ffffffff ffffffff ffffffff ffffffff     ................
  4071f4:	ffffffff ffffffff ffffffff ffffffff     ................
  407204:	ffffffff ffffffff ffffffff ffffffff     ................
  407214:	ffffffff 00ffffff 0000ff00 ff0000ff     ................
  407224:	00ff0000 0000ff00 ff0000ff 00ff0000     ................
  407234:	0000ff00 ffffffff ffffffff ffffffff     ................
  407244:	ffffffff ffffffff ffffffff ffffffff     ................
  407254:	ffffffff ffffffff ffffffff ffffffff     ................
  407264:	ffffffff ffffffff ffffffff ffffffff     ................
  407274:	ffffffff ffffffff ffffffff ffffffff     ................
  407284:	ffffffff ffffffff ffffffff 00ffffff     ................
  407294:	0000ff00 ff0000ff 00ff0000 0000ff00     ................
  4072a4:	ff0000ff 00ff0000 0000ff00 ffffffff     ................
  4072b4:	ffffffff ffffffff ffffffff ffffffff     ................
  4072c4:	ffffffff ffffffff ffffffff ffffffff     ................
  4072d4:	ffffffff ffffffff ffffffff ffffffff     ................
  4072e4:	ffffffff ffffffff ffffffff ffffffff     ................
  4072f4:	ffffffff ffffffff ffffffff ffffffff     ................
  407304:	ffffffff 00ffffff 0000ff00 ff0000ff     ................
  407314:	00ff0000 0000ff00 ff0000ff 00ff0000     ................
  407324:	0000ff00 ffffffff ffffffff ffffffff     ................
  407334:	ffffffff ffffffff ffffffff ffffffff     ................
  407344:	ffffffff ffffffff ffffffff ffffffff     ................
  407354:	ffffffff ffffffff ffffffff ffffffff     ................
  407364:	ffffffff ffffffff ffffffff ffffffff     ................
  407374:	ffffffff ffffffff ffffffff ffffffff     ................
  407384:	ffffffff ffffffff ffffffff ffffffff     ................
  407394:	ffffffff ffffffff ffffffff ffffffff     ................
  4073a4:	ffffffff ffffffff ffffffff ffffffff     ................
  4073b4:	ffffffff ffffffff ffffffff ffffffff     ................
  4073c4:	ffffffff ffffffff ffffffff ffffffff     ................
  4073d4:	ffffffff ffffffff ffffffff ffffffff     ................
  4073e4:	ffffffff ffffffff ffffffff ffffffff     ................
  4073f4:	ffffffff ffffffff ffffffff ffffffff     ................
  407404:	ffffffff ffffffff ffffffff ffffffff     ................
  407414:	ffffffff ffffffff ffffffff ffffffff     ................
  407424:	ffffffff ffffffff ffffffff ffffffff     ................
  407434:	ffffffff ffffffff ffffffff ffffffff     ................
  407444:	ffffffff ffffffff ffffffff ffffffff     ................
  407454:	ffffffff ffffffff ffffffff ffffffff     ................
  407464:	ffffffff ffffffff ffffffff ffffffff     ................
  407474:	ffffffff ffffffff ffffffff ffffffff     ................
  407484:	ffffffff ffffffff ffffffff ffffffff     ................
  407494:	ffffffff ffffffff ffffffff ffffffff     ................
  4074a4:	ffffffff ffffffff ffffffff ffffffff     ................
  4074b4:	ffffffff ffffffff ffffffff ffffffff     ................
  4074c4:	ffffffff ffffffff ffffffff ffffffff     ................
  4074d4:	ffffffff ffffffff ffffffff ffffffff     ................
  4074e4:	ffffffff ffffffff ffffffff ffffffff     ................
  4074f4:	ffffffff ffffffff ffffffff ffffffff     ................
  407504:	ffffffff ffffffff ffffffff ffffffff     ................
  407514:	ffffffff ffffffff ffffffff ffffffff     ................
  407524:	ffffffff ffffffff ffffffff ffffffff     ................
  407534:	ffffffff ffffffff ffffffff ffffffff     ................
  407544:	ffffffff ffffffff ffffffff ffffffff     ................
  407554:	ffffffff ffffffff ffffffff ffffffff     ................
  407564:	ffffffff ffffffff ffffffff ffffffff     ................
  407574:	ffffffff ffffffff ffffffff ffffffff     ................
  407584:	ffffffff ffffffff ffffffff ffffffff     ................
  407594:	ffffffff ffffffff ffffffff ffffffff     ................
  4075a4:	ffffffff ffffffff ffffffff ffffffff     ................
  4075b4:	ffffffff ffffffff ffffffff ffffffff     ................
  4075c4:	ffffffff ffffffff ffffffff ffffffff     ................
  4075d4:	ffffffff ffffffff ffffffff ffffffff     ................
  4075e4:	ffffffff ffffffff ffffffff ffffffff     ................
  4075f4:	ffffffff ffffffff ffffffff ffffffff     ................
  407604:	ffffffff ffffffff ffffffff ffffffff     ................
  407614:	ffffffff ffffffff ffffffff ffffffff     ................
  407624:	ffffffff ffffffff ffffffff ffffffff     ................
  407634:	ffffffff ffffffff ffffffff ffffffff     ................
  407644:	ffffffff ffffffff ffffffff ffffffff     ................
  407654:	ffffffff ffffffff ffffffff ffffffff     ................
  407664:	ffffffff ffffffff ffffffff ffffffff     ................
  407674:	ffffffff ffffffff ffffffff ffffffff     ................
  407684:	ffffffff ffffffff ffffffff ffffffff     ................
  407694:	ffffffff ffffffff ffffffff ffffffff     ................
  4076a4:	ffffffff ffffffff ffffffff ffffffff     ................
  4076b4:	ffffffff ffffffff ffffffff ffffffff     ................
  4076c4:	ffffffff ffffffff ffffffff ffffffff     ................
  4076d4:	ffffffff ffffffff ffffffff ffffffff     ................
  4076e4:	ffffffff ffffffff ffffffff ffffffff     ................
  4076f4:	ffffffff ffffffff ffffffff ffffffff     ................
  407704:	ffffffff ffffffff ffffffff ffffffff     ................
  407714:	ffffffff ffffffff ffffffff ffffffff     ................
  407724:	ffffffff ffffffff ffffffff ffffffff     ................
  407734:	ffffffff ffffffff ffffffff ffffffff     ................
  407744:	ffffffff ffffffff ffffffff ffffffff     ................
  407754:	ffffffff ffffffff ffffffff ffffffff     ................
  407764:	ffffffff ffffffff ffffffff ffffffff     ................
  407774:	ffffffff ffffffff ffffffff ffffffff     ................
  407784:	ffffffff ffffffff ffffffff ffffffff     ................
  407794:	ffffffff ffffffff ffffffff ffffffff     ................
  4077a4:	ffffffff ffffffff ffffffff ffffffff     ................
  4077b4:	ffffffff ffffffff ffffffff ffffffff     ................
  4077c4:	ffffffff ffffffff ffffffff ffffffff     ................
  4077d4:	ffffffff ffffffff ffffffff ffffffff     ................
  4077e4:	ffffffff ffffffff ffffffff ffffffff     ................
  4077f4:	ffffffff ffffffff ffffffff ffffffff     ................
  407804:	ffffffff ffffffff ffffffff ffffffff     ................
  407814:	ffffffff ffffffff ffffffff ffffffff     ................
  407824:	ffffffff ffffffff ffffffff ffffffff     ................
  407834:	ffffffff ffffffff ffffffff ffffffff     ................
  407844:	ffffffff ffffffff ffffffff ffffffff     ................
  407854:	ffffffff ffffffff ffffffff ffffffff     ................
  407864:	ffffffff ffffffff ffffffff ffffffff     ................
  407874:	ffffffff ffffffff ffffffff ffffffff     ................
  407884:	ffffffff ffffffff ffffffff ffffffff     ................
  407894:	ffffffff ffffffff ffffffff ffffffff     ................
  4078a4:	ffffffff ffffffff ffffffff ffffffff     ................
  4078b4:	ffffffff ffffffff ffffffff ffffffff     ................
  4078c4:	ffffffff ffffffff ffffffff ffffffff     ................
  4078d4:	ffffffff ffffffff ffffffff ffffffff     ................
  4078e4:	ffffffff ffffffff ffffffff ffffffff     ................
  4078f4:	ffffffff ffffffff ffffffff ffffffff     ................
  407904:	ffffffff ffffffff ffffffff ffffffff     ................
  407914:	ffffffff ffffffff ffffffff ffffffff     ................
  407924:	ffffffff ffffffff ffffffff ffffffff     ................
  407934:	ffffffff ffffffff ffffffff ffffffff     ................
  407944:	ffffffff ffffffff ffffffff ffffffff     ................
  407954:	ffffffff ffffffff ffffffff ffffffff     ................
  407964:	ffffffff ffffffff ffffffff ffffffff     ................
  407974:	ffffffff ffffffff ffffffff ffffffff     ................
  407984:	ffffffff ffffffff ffffffff ffffffff     ................
  407994:	ffffffff ffffffff ffffffff ffffffff     ................
  4079a4:	ffffffff ffffffff ffffffff ffffffff     ................
  4079b4:	ffffffff ffffffff ffffffff ffffffff     ................
  4079c4:	ffffffff ffffffff ffffffff ffffffff     ................
  4079d4:	ffffffff ffffffff ffffffff ffffffff     ................
  4079e4:	ffffffff ffffffff ffffffff ffffffff     ................
  4079f4:	ffffffff ffffffff ffffffff ffffffff     ................
  407a04:	ffffffff ffffffff ffffffff ffffffff     ................
  407a14:	ffffffff ffffffff ffffffff ffffffff     ................
  407a24:	ffffffff ffffffff ffffffff ffffffff     ................
  407a34:	ffffffff ffffffff ffffffff ffffffff     ................
  407a44:	ffffffff ffffffff ffffffff ffffffff     ................
  407a54:	ffffffff ffffffff ffffffff ffffffff     ................
  407a64:	ffffffff ffffffff ffffffff ffffffff     ................
  407a74:	ffffffff ffffffff ffffffff ffffffff     ................
  407a84:	ffffffff ffffffff ffffffff ffffffff     ................
  407a94:	ffffffff ffffffff ffffffff ffffffff     ................
  407aa4:	ffffffff ffffffff ffffffff ffffffff     ................
  407ab4:	ffffffff ffffffff ffffffff ffffffff     ................
  407ac4:	ffffffff ffffffff ffffffff ffffffff     ................
  407ad4:	ffffffff ffffffff ffffffff ffffffff     ................
  407ae4:	ffffffff ffffffff ffffffff ffffffff     ................
  407af4:	ffffffff ffffffff ffffffff ffffffff     ................
  407b04:	ffffffff ffffffff ffffffff ffffffff     ................
  407b14:	ffffffff ffffffff ffffffff ffffffff     ................
  407b24:	ffffffff ffffffff ffffffff ffffffff     ................
  407b34:	ffffffff ffffffff ffffffff ffffffff     ................

00407b44 <arial_72_0x31>:
  407b44:	004053e4 00000028 00000054 00000008     .S@.(...T.......

00407b54 <image_data_arial_72_0x32>:
  407b54:	ffffffff ffffffff ffffffff ffffffff     ................
  407b64:	ffffffff ffffffff ffffffff ffffffff     ................
  407b74:	ffffffff ffffffff ffffffff ffffffff     ................
  407b84:	ffffffff ffffffff ffffffff ffffffff     ................
  407b94:	ffffffff ffffffff ffffffff ffffffff     ................
  407ba4:	ffffffff ffffffff ffffffff ffffffff     ................
  407bb4:	ffffffff ffffffff ffffffff ffffffff     ................
  407bc4:	ffffffff ffffffff ffffffff ffffffff     ................
  407bd4:	ffffffff ffffffff ffffffff ffffffff     ................
  407be4:	ffffffff ffffffff ffffffff ffffffff     ................
  407bf4:	ffffffff ffffffff ffffffff ffffffff     ................
  407c04:	ffffffff ffffffff ffffffff ffffffff     ................
  407c14:	ffffffff ffffffff ffffffff ffffffff     ................
  407c24:	ffffffff ffffffff ffffffff ffffffff     ................
  407c34:	ffffffff ffffffff ffffffff ffffffff     ................
  407c44:	ffffffff ffffffff ffffffff ffffffff     ................
  407c54:	ffffffff ffffffff ffffffff ffffffff     ................
  407c64:	ffffffff ffffffff ffffffff ffffffff     ................
  407c74:	ffffffff ffffffff ffffffff ffffffff     ................
  407c84:	ffffffff ffffffff ffffffff ffffffff     ................
  407c94:	ffffffff ffffffff ffffffff ffffffff     ................
  407ca4:	ffffffff ffffffff ffffffff ffffffff     ................
  407cb4:	ffffffff ffffffff ffffffff ffffffff     ................
  407cc4:	ffffffff ffffffff ffffffff ffffffff     ................
  407cd4:	ffffffff ffffffff ffffffff ffffffff     ................
  407ce4:	ffffffff ffffffff ffffffff ffffffff     ................
  407cf4:	ffffffff ffffffff ffffffff ffffffff     ................
  407d04:	ffffffff ffffffff ffffffff ffffffff     ................
  407d14:	ffffffff ffffffff ffffffff ffffffff     ................
  407d24:	ffffffff ffffffff ffffffff ffffffff     ................
  407d34:	ffffffff ffffffff ffffffff ffffffff     ................
  407d44:	ffffffff ffffffff ffffffff ffffffff     ................
  407d54:	ffffffff ffffffff ffffffff ffffffff     ................
  407d64:	ffffffff ffffffff ffffffff ffffffff     ................
  407d74:	ffffffff ffffffff ffffffff ffffffff     ................
  407d84:	ffffffff ffffffff ffffffff ffffffff     ................
  407d94:	ffffffff ffffffff ffffffff ffffffff     ................
  407da4:	ffffffff ffffffff ffffffff ffffffff     ................
  407db4:	ffffffff ffffffff ffffffff ffffffff     ................
  407dc4:	ffffffff ffffffff ffffffff ffffffff     ................
  407dd4:	ffffffff ffffffff ffffffff ffffffff     ................
  407de4:	ffffffff ffffffff ffffffff ffffffff     ................
  407df4:	ffffffff ffffffff ffffffff ffffffff     ................
  407e04:	ffffffff ffffffff ffffffff ffffffff     ................
  407e14:	ffffffff ffffffff ffffffff ffffffff     ................
  407e24:	ffffffff ffffffff ffffffff ffffffff     ................
  407e34:	ffffffff ffffffff ffffffff ffffffff     ................
  407e44:	ffffffff ffffffff ffffffff ffffffff     ................
  407e54:	ffffffff ffffffff ffffffff ffffffff     ................
  407e64:	ffffffff ffffffff ffffffff ffffffff     ................
  407e74:	ffffffff ffffffff ffffffff ffffffff     ................
  407e84:	ffffffff ffffffff ffffffff ffffffff     ................
  407e94:	ffffffff ffffffff ffffffff ffffffff     ................
  407ea4:	ffffffff ffffffff ffffffff ffffffff     ................
  407eb4:	ffffffff ffffffff ffffffff ffffffff     ................
  407ec4:	ffffffff ffffffff ffffffff ffffffff     ................
  407ed4:	ffffffff ffffffff ffffffff ffffffff     ................
  407ee4:	ffffffff ffffffff ffffffff ffffffff     ................
  407ef4:	ffffffff ffffffff ffffffff ffffffff     ................
  407f04:	ffffffff ffffffff ffffffff ffffffff     ................
  407f14:	ffffffff ffffffff ffffffff ffffffff     ................
  407f24:	ffffffff ffffffff ffffffff ffffffff     ................
  407f34:	ffffffff ffffffff ffffffff ffffffff     ................
  407f44:	ffffffff ffffffff ffffffff ffffffff     ................
  407f54:	ffffffff ffffffff ffffffff ffffffff     ................
  407f64:	ffffffff ffffffff ffffffff ffffffff     ................
  407f74:	ffffffff ffffffff ffffffff ffffffff     ................
  407f84:	ffffffff ffffffff ffffffff ffffffff     ................
  407f94:	ffffffff ffffffff ffffffff ffffffff     ................
  407fa4:	ffffffff ffffffff ffffffff ffffffff     ................
  407fb4:	ffffffff ffffffff ffffffff ffffffff     ................
  407fc4:	ffffffff ffffffff ffffffff ffffffff     ................
  407fd4:	ffffffff ffffffff ffffffff ffffffff     ................
  407fe4:	ffffffff ffffffff ffffffff ffffffff     ................
  407ff4:	ffffffff ffffffff ffffffff ffffffff     ................
  408004:	ffffffff ffffffff ffffffff ffffffff     ................
  408014:	ffffffff ffffffff ffffffff ffffffff     ................
  408024:	ffffffff ffffffff ffffffff ffffffff     ................
  408034:	ffffffff ffffffff ffffffff ffffffff     ................
  408044:	ffffffff ffffffff ffffffff ffffffff     ................
  408054:	ffffffff ffffffff ffffffff ffffffff     ................
  408064:	ffffffff ffffffff ffffffff ffffffff     ................
  408074:	ffffffff ffffffff ffffffff ffffffff     ................
  408084:	ffffffff ffffffff ffffffff ffffffff     ................
  408094:	ffffffff ffffffff ffffffff ffffffff     ................
  4080a4:	ffffffff ffffffff ffffffff ffffffff     ................
  4080b4:	ffffffff ffffffff ffffffff ffffffff     ................
  4080c4:	ffffffff ffffffff ffffffff ffffffff     ................
  4080d4:	ffffffff ffffffff ffffffff ffffffff     ................
  4080e4:	ffffffff ffffffff ffffffff ffffffff     ................
  4080f4:	ffffffff ffffffff ffffffff ffffffff     ................
  408104:	ffffffff ffffffff ffffffff ffffffff     ................
  408114:	ffffffff ffffffff ffffffff ffffffff     ................
  408124:	ffffffff ffffffff ffffffff ffffffff     ................
  408134:	ffffffff ffffffff ffffffff ffffffff     ................
  408144:	ffffffff ffffffff ffffffff ffffffff     ................
  408154:	ffffffff ffffffff ffffffff ffffffff     ................
  408164:	ffffffff ffffffff ffffffff ffffffff     ................
  408174:	ffffffff ffffffff ffffffff ffffffff     ................
  408184:	ffffffff ffffffff ffffffff ffffffff     ................
  408194:	ffffffff ffffffff ffffffff ffffffff     ................
  4081a4:	ffffffff ffffffff ffffffff ffffffff     ................
  4081b4:	ffffffff ffffffff ffffffff ffffffff     ................
  4081c4:	ffffffff ffffffff ffffffff ffffffff     ................
  4081d4:	ffffffff ffffffff ffffffff ffffffff     ................
  4081e4:	ffffffff ffffffff ffffffff ffffffff     ................
  4081f4:	ffffffff ffffffff ffffffff ffffffff     ................
  408204:	ffffffff ffffffff ffffffff ffffffff     ................
  408214:	ffffffff ffffffff ffffffff ffffffff     ................
  408224:	ffffffff ffffffff ffffffff ffffffff     ................
  408234:	ffffffff ffffffff ffffffff ffffffff     ................
  408244:	ffffffff ffffffff ffffffff ffffffff     ................
  408254:	ffffffff ffffffff ffffffff ffffffff     ................
  408264:	ffffffff ffffffff ffffffff ffffffff     ................
  408274:	ffffffff ffffffff ffffffff ffffffff     ................
  408284:	ffffffff ffffffff ffffffff 00ff0000     ................
  408294:	0000ff00 ff0000ff 00ff0000 0000ff00     ................
  4082a4:	ffffffff ffffffff ffffffff ffffffff     ................
  4082b4:	ffffffff ffffffff ffffffff ffffffff     ................
  4082c4:	ffffffff ffffffff ffffffff ffffffff     ................
  4082d4:	ffffffff ffffffff ffffffff ffffffff     ................
  4082e4:	ffffffff ffffffff ffffffff ffffffff     ................
  4082f4:	ffffffff ffffffff 00ff0000 0000ff00     ................
  408304:	ff0000ff 00ff0000 0000ff00 ff0000ff     ................
  408314:	00ff0000 0000ff00 ff0000ff 00ff0000     ................
  408324:	ffffff00 ffffffff ffffffff ffffffff     ................
  408334:	ffffffff ffffffff ffffffff ffffffff     ................
  408344:	ffffffff ffffffff ffffffff ffffffff     ................
  408354:	ffffffff ffffffff ffffffff ffffffff     ................
  408364:	ffffffff ffffffff 0000ffff ff0000ff     ................
  408374:	00ff0000 0000ff00 ff0000ff 00ff0000     ................
  408384:	0000ff00 ff0000ff 00ff0000 0000ff00     ................
  408394:	ff0000ff 00ff0000 0000ff00 ff0000ff     ................
  4083a4:	ffff0000 ffffffff ffffffff ffffffff     ................
  4083b4:	ffffffff ffffffff ffffffff ffffffff     ................
  4083c4:	ffffffff ffffffff ffffffff ffffffff     ................
  4083d4:	ffffffff ffffffff ffffffff 00ff0000     ................
  4083e4:	0000ff00 ff0000ff 00ff0000 0000ff00     ................
  4083f4:	ff0000ff 00ff0000 0000ff00 ff0000ff     ................
  408404:	00ff0000 0000ff00 ff0000ff 00ff0000     ................
  408414:	0000ff00 ff0000ff 00ff0000 ffffff00     ................
  408424:	ffffffff ffffffff ffffffff ffffffff     ................
  408434:	ffffffff ffffffff ffffffff ffffffff     ................
  408444:	ffffffff ffffffff ffffffff ffffffff     ................
  408454:	ff0000ff 00ff0000 0000ff00 ff0000ff     ................
  408464:	00ff0000 0000ff00 ff0000ff 00ff0000     ................
  408474:	0000ff00 ff0000ff 00ff0000 0000ff00     ................
  408484:	ff0000ff 00ff0000 0000ff00 ff0000ff     ................
  408494:	00ff0000 0000ff00 ffffffff ffffffff     ................
  4084a4:	ffffffff ffffffff ffffffff ffffffff     ................
  4084b4:	ffffffff ffffffff ffffffff ffffffff     ................
  4084c4:	ffffffff 0000ffff ff0000ff 00ff0000     ................
  4084d4:	0000ff00 ff0000ff 00ff0000 0000ff00     ................
  4084e4:	ff0000ff 00ff0000 0000ff00 ff0000ff     ................
  4084f4:	00ff0000 0000ff00 ff0000ff 00ff0000     ................
  408504:	0000ff00 ff0000ff 00ff0000 0000ff00     ................
  408514:	ff0000ff ffffffff ffffffff ffffffff     ................
  408524:	ffffffff ffffffff ffffffff ffffffff     ................
  408534:	ffffffff ffffffff 00ffffff 0000ff00     ................
  408544:	ff0000ff 00ff0000 0000ff00 ff0000ff     ................
  408554:	00ff0000 0000ff00 ff0000ff 00ff0000     ................
  408564:	0000ff00 ff0000ff 00ff0000 0000ff00     ................
  408574:	ff0000ff 00ff0000 0000ff00 ff0000ff     ................
  408584:	00ff0000 0000ff00 ff0000ff ffff0000     ................
  408594:	ffffffff ffffffff ffffffff ffffffff     ................
  4085a4:	ffffffff ffffffff ffffffff ffffffff     ................
  4085b4:	00ff0000 0000ff00 ff0000ff 00ff0000     ................
  4085c4:	0000ff00 ff0000ff 00ff0000 0000ff00     ................
  4085d4:	ff0000ff 00ff0000 0000ff00 ff0000ff     ................
  4085e4:	00ff0000 0000ff00 ff0000ff 00ff0000     ................
  4085f4:	0000ff00 ff0000ff 00ff0000 0000ff00     ................
  408604:	ff0000ff 00ff0000 ffffff00 ffffffff     ................
  408614:	ffffffff ffffffff ffffffff ffffffff     ................
  408624:	ffffffff ffffffff 00ff0000 0000ff00     ................
  408634:	ff0000ff 00ff0000 0000ff00 ff0000ff     ................
  408644:	00ff0000 0000ff00 ff0000ff 00ff0000     ................
  408654:	ffffff00 ffffffff 00ff0000 0000ff00     ................
  408664:	ff0000ff 00ff0000 0000ff00 ff0000ff     ................
  408674:	00ff0000 0000ff00 ff0000ff 00ff0000     ................
  408684:	ffffff00 ffffffff ffffffff ffffffff     ................
  408694:	ffffffff ffffffff ffffffff ff0000ff     ................
  4086a4:	00ff0000 0000ff00 ff0000ff 00ff0000     ................
  4086b4:	0000ff00 ff0000ff 00ff0000 0000ff00     ................
  4086c4:	ffffffff ffffffff ffffffff ffffffff     ................
  4086d4:	ffffffff ffffffff ff0000ff 00ff0000     ................
  4086e4:	0000ff00 ff0000ff 00ff0000 0000ff00     ................
  4086f4:	ff0000ff 00ff0000 ffffff00 ffffffff     ................
  408704:	ffffffff ffffffff ffffffff ffffffff     ................
  408714:	ffffffff ff0000ff 00ff0000 0000ff00     ................
  408724:	ff0000ff 00ff0000 0000ff00 ff0000ff     ................
  408734:	00ff0000 ffffff00 ffffffff ffffffff     ................
  408744:	ffffffff ffffffff ffffffff ffffffff     ................
  408754:	ffffffff 00ff0000 0000ff00 ff0000ff     ................
  408764:	00ff0000 0000ff00 ff0000ff 00ff0000     ................
  408774:	0000ff00 ffffffff ffffffff ffffffff     ................
  408784:	ffffffff ffffffff ffffffff ff0000ff     ................
  408794:	00ff0000 0000ff00 ff0000ff 00ff0000     ................
  4087a4:	0000ff00 ff0000ff ffff0000 ffffffff     ................
  4087b4:	ffffffff ffffffff ffffffff ffffffff     ................
  4087c4:	ffffffff ffffffff ffffffff 00ffffff     ................
  4087d4:	0000ff00 ff0000ff 00ff0000 0000ff00     ................
  4087e4:	ff0000ff 00ff0000 0000ff00 ffffffff     ................
  4087f4:	ffffffff ffffffff ffffffff ffffffff     ................
  408804:	0000ffff ff0000ff 00ff0000 0000ff00     ................
  408814:	ff0000ff 00ff0000 0000ff00 ff0000ff     ................
  408824:	ffff0000 ffffffff ffffffff ffffffff     ................
  408834:	ffffffff ffffffff ffffffff ffffffff     ................
  408844:	ffffffff 00ffffff 0000ff00 ff0000ff     ................
  408854:	00ff0000 0000ff00 ff0000ff 00ff0000     ................
  408864:	0000ff00 ffffffff ffffffff ffffffff     ................
  408874:	ffffffff ffffffff 0000ffff ff0000ff     ................
  408884:	00ff0000 0000ff00 ff0000ff 00ff0000     ................
  408894:	0000ff00 ff0000ff ffffffff ffffffff     ................
  4088a4:	ffffffff ffffffff ffffffff ffffffff     ................
  4088b4:	ffffffff ffffffff ffffffff 00ffffff     ................
  4088c4:	0000ff00 ff0000ff 00ff0000 0000ff00     ................
  4088d4:	ff0000ff 00ff0000 0000ff00 ffffffff     ................
  4088e4:	ffffffff ffffffff ffffffff ffffffff     ................
  4088f4:	0000ffff ff0000ff 00ff0000 0000ff00     ................
  408904:	ff0000ff 00ff0000 0000ff00 ff0000ff     ................
  408914:	ffffffff ffffffff ffffffff ffffffff     ................
  408924:	ffffffff ffffffff ffffffff ffffffff     ................
  408934:	ffffffff 00ffffff 0000ff00 ff0000ff     ................
  408944:	00ff0000 0000ff00 ff0000ff 00ff0000     ................
  408954:	0000ff00 ffffffff ffffffff ffffffff     ................
  408964:	ffffffff ffffffff 0000ffff ff0000ff     ................
  408974:	00ff0000 0000ff00 ff0000ff 00ff0000     ................
  408984:	0000ff00 ff0000ff ffffffff ffffffff     ................
  408994:	ffffffff ffffffff ffffffff ffffffff     ................
  4089a4:	ffffffff ffffffff ffffffff 00ffffff     ................
  4089b4:	0000ff00 ff0000ff 00ff0000 0000ff00     ................
  4089c4:	ff0000ff 00ff0000 0000ff00 ffffffff     ................
  4089d4:	ffffffff ffffffff ffffffff ffffffff     ................
  4089e4:	ffffffff ffffffff ffffffff ffffffff     ................
  4089f4:	ffffffff ffffffff ffffffff ffffffff     ................
  408a04:	ffffffff ffffffff ffffffff ffffffff     ................
  408a14:	ffffffff ffffffff ffffffff ffffffff     ................
  408a24:	ffffffff 00ffffff 0000ff00 ff0000ff     ................
  408a34:	00ff0000 0000ff00 ff0000ff 00ff0000     ................
  408a44:	0000ff00 ffffffff ffffffff ffffffff     ................
  408a54:	ffffffff ffffffff ffffffff ffffffff     ................
  408a64:	ffffffff ffffffff ffffffff ffffffff     ................
  408a74:	ffffffff ffffffff ffffffff ffffffff     ................
  408a84:	ffffffff ffffffff ffffffff ffffffff     ................
  408a94:	ffffffff ffffffff ffffffff 00ffffff     ................
  408aa4:	0000ff00 ff0000ff 00ff0000 0000ff00     ................
  408ab4:	ff0000ff 00ff0000 0000ff00 ffffffff     ................
  408ac4:	ffffffff ffffffff ffffffff ffffffff     ................
  408ad4:	ffffffff ffffffff ffffffff ffffffff     ................
  408ae4:	ffffffff ffffffff ffffffff ffffffff     ................
  408af4:	ffffffff ffffffff ffffffff ffffffff     ................
  408b04:	ffffffff ffffffff ffffffff ffffffff     ................
  408b14:	ffffffff 00ffffff 0000ff00 ff0000ff     ................
  408b24:	00ff0000 0000ff00 ff0000ff 00ff0000     ................
  408b34:	0000ff00 ffffffff ffffffff ffffffff     ................
  408b44:	ffffffff ffffffff ffffffff ffffffff     ................
  408b54:	ffffffff ffffffff ffffffff ffffffff     ................
  408b64:	ffffffff ffffffff ffffffff ffffffff     ................
  408b74:	ffffffff ffffffff ffffffff ffffffff     ................
  408b84:	ffffffff ffffffff ffffffff 00ff0000     ................
  408b94:	0000ff00 ff0000ff 00ff0000 0000ff00     ................
  408ba4:	ff0000ff 00ff0000 0000ff00 ffffffff     ................
  408bb4:	ffffffff ffffffff ffffffff ffffffff     ................
  408bc4:	ffffffff ffffffff ffffffff ffffffff     ................
  408bd4:	ffffffff ffffffff ffffffff ffffffff     ................
  408be4:	ffffffff ffffffff ffffffff ffffffff     ................
  408bf4:	ffffffff ffffffff ffffffff ffffffff     ................
  408c04:	ffffffff 00ff0000 0000ff00 ff0000ff     ................
  408c14:	00ff0000 0000ff00 ff0000ff 00ff0000     ................
  408c24:	ffffff00 ffffffff ffffffff ffffffff     ................
  408c34:	ffffffff ffffffff ffffffff ffffffff     ................
  408c44:	ffffffff ffffffff ffffffff ffffffff     ................
  408c54:	ffffffff ffffffff ffffffff ffffffff     ................
  408c64:	ffffffff ffffffff ffffffff ffffffff     ................
  408c74:	ffffffff ffffffff ff0000ff 00ff0000     ................
  408c84:	0000ff00 ff0000ff 00ff0000 0000ff00     ................
  408c94:	ff0000ff 00ff0000 ffffff00 ffffffff     ................
  408ca4:	ffffffff ffffffff ffffffff ffffffff     ................
  408cb4:	ffffffff ffffffff ffffffff ffffffff     ................
  408cc4:	ffffffff ffffffff ffffffff ffffffff     ................
  408cd4:	ffffffff ffffffff ffffffff ffffffff     ................
  408ce4:	ffffffff ffffffff ffffffff 0000ffff     ................
  408cf4:	ff0000ff 00ff0000 0000ff00 ff0000ff     ................
  408d04:	00ff0000 0000ff00 ff0000ff 00ff0000     ................
  408d14:	ffffff00 ffffffff ffffffff ffffffff     ................
  408d24:	ffffffff ffffffff ffffffff ffffffff     ................
  408d34:	ffffffff ffffffff ffffffff ffffffff     ................
  408d44:	ffffffff ffffffff ffffffff ffffffff     ................
  408d54:	ffffffff ffffffff ffffffff ffffffff     ................
  408d64:	ffffffff 0000ffff ff0000ff 00ff0000     ................
  408d74:	0000ff00 ff0000ff 00ff0000 0000ff00     ................
  408d84:	ff0000ff ffff0000 ffffffff ffffffff     ................
  408d94:	ffffffff ffffffff ffffffff ffffffff     ................
  408da4:	ffffffff ffffffff ffffffff ffffffff     ................
  408db4:	ffffffff ffffffff ffffffff ffffffff     ................
  408dc4:	ffffffff ffffffff ffffffff ffffffff     ................
  408dd4:	ffffffff ffffffff 00ffffff 0000ff00     ................
  408de4:	ff0000ff 00ff0000 0000ff00 ff0000ff     ................
  408df4:	00ff0000 0000ff00 ff0000ff ffff0000     ................
  408e04:	ffffffff ffffffff ffffffff ffffffff     ................
  408e14:	ffffffff ffffffff ffffffff ffffffff     ................
  408e24:	ffffffff ffffffff ffffffff ffffffff     ................
  408e34:	ffffffff ffffffff ffffffff ffffffff     ................
  408e44:	ffffffff ffffffff ffffffff ffffffff     ................
  408e54:	00ff0000 0000ff00 ff0000ff 00ff0000     ................
  408e64:	0000ff00 ff0000ff 00ff0000 0000ff00     ................
  408e74:	ff0000ff ffffffff ffffffff ffffffff     ................
  408e84:	ffffffff ffffffff ffffffff ffffffff     ................
  408e94:	ffffffff ffffffff ffffffff ffffffff     ................
  408ea4:	ffffffff ffffffff ffffffff ffffffff     ................
  408eb4:	ffffffff ffffffff ffffffff ffffffff     ................
  408ec4:	ffffffff ff0000ff 00ff0000 0000ff00     ................
  408ed4:	ff0000ff 00ff0000 0000ff00 ff0000ff     ................
  408ee4:	00ff0000 0000ff00 ffffffff ffffffff     ................
  408ef4:	ffffffff ffffffff ffffffff ffffffff     ................
  408f04:	ffffffff ffffffff ffffffff ffffffff     ................
  408f14:	ffffffff ffffffff ffffffff ffffffff     ................
  408f24:	ffffffff ffffffff ffffffff ffffffff     ................
  408f34:	ffffffff ffffffff 0000ffff ff0000ff     ................
  408f44:	00ff0000 0000ff00 ff0000ff 00ff0000     ................
  408f54:	0000ff00 ff0000ff 00ff0000 ffffff00     ................
  408f64:	ffffffff ffffffff ffffffff ffffffff     ................
  408f74:	ffffffff ffffffff ffffffff ffffffff     ................
  408f84:	ffffffff ffffffff ffffffff ffffffff     ................
  408f94:	ffffffff ffffffff ffffffff ffffffff     ................
  408fa4:	ffffffff ffffffff ffffffff 00ffffff     ................
  408fb4:	0000ff00 ff0000ff 00ff0000 0000ff00     ................
  408fc4:	ff0000ff 00ff0000 0000ff00 ff0000ff     ................
  408fd4:	00ff0000 ffffff00 ffffffff ffffffff     ................
  408fe4:	ffffffff ffffffff ffffffff ffffffff     ................
  408ff4:	ffffffff ffffffff ffffffff ffffffff     ................
  409004:	ffffffff ffffffff ffffffff ffffffff     ................
  409014:	ffffffff ffffffff ffffffff ffffffff     ................
  409024:	ffffffff 00ff0000 0000ff00 ff0000ff     ................
  409034:	00ff0000 0000ff00 ff0000ff 00ff0000     ................
  409044:	0000ff00 ff0000ff ffff0000 ffffffff     ................
  409054:	ffffffff ffffffff ffffffff ffffffff     ................
  409064:	ffffffff ffffffff ffffffff ffffffff     ................
  409074:	ffffffff ffffffff ffffffff ffffffff     ................
  409084:	ffffffff ffffffff ffffffff ffffffff     ................
  409094:	ffffffff ffffffff ff0000ff 00ff0000     ................
  4090a4:	0000ff00 ff0000ff 00ff0000 0000ff00     ................
  4090b4:	ff0000ff 00ff0000 0000ff00 ff0000ff     ................
  4090c4:	ffffffff ffffffff ffffffff ffffffff     ................
  4090d4:	ffffffff ffffffff ffffffff ffffffff     ................
  4090e4:	ffffffff ffffffff ffffffff ffffffff     ................
  4090f4:	ffffffff ffffffff ffffffff ffffffff     ................
  409104:	ffffffff ffffffff ffffffff 0000ffff     ................
  409114:	ff0000ff 00ff0000 0000ff00 ff0000ff     ................
  409124:	00ff0000 0000ff00 ff0000ff 00ff0000     ................
  409134:	0000ff00 ffffffff ffffffff ffffffff     ................
  409144:	ffffffff ffffffff ffffffff ffffffff     ................
  409154:	ffffffff ffffffff ffffffff ffffffff     ................
  409164:	ffffffff ffffffff ffffffff ffffffff     ................
  409174:	ffffffff ffffffff ffffffff ffffffff     ................
  409184:	00ffffff 0000ff00 ff0000ff 00ff0000     ................
  409194:	0000ff00 ff0000ff 00ff0000 0000ff00     ................
  4091a4:	ff0000ff 00ff0000 ffffff00 ffffffff     ................
  4091b4:	ffffffff ffffffff ffffffff ffffffff     ................
  4091c4:	ffffffff ffffffff ffffffff ffffffff     ................
  4091d4:	ffffffff ffffffff ffffffff ffffffff     ................
  4091e4:	ffffffff ffffffff ffffffff ffffffff     ................
  4091f4:	ffffffff ffffffff 00ff0000 0000ff00     ................
  409204:	ff0000ff 00ff0000 0000ff00 ff0000ff     ................
  409214:	00ff0000 0000ff00 ff0000ff ffff0000     ................
  409224:	ffffffff ffffffff ffffffff ffffffff     ................
  409234:	ffffffff ffffffff ffffffff ffffffff     ................
  409244:	ffffffff ffffffff ffffffff ffffffff     ................
  409254:	ffffffff ffffffff ffffffff ffffffff     ................
  409264:	ffffffff ffffffff ffffffff ff0000ff     ................
  409274:	00ff0000 0000ff00 ff0000ff 00ff0000     ................
  409284:	0000ff00 ff0000ff 00ff0000 0000ff00     ................
  409294:	ff0000ff ffffffff ffffffff ffffffff     ................
  4092a4:	ffffffff ffffffff ffffffff ffffffff     ................
  4092b4:	ffffffff ffffffff ffffffff ffffffff     ................
  4092c4:	ffffffff ffffffff ffffffff ffffffff     ................
  4092d4:	ffffffff ffffffff ffffffff ffffffff     ................
  4092e4:	0000ffff ff0000ff 00ff0000 0000ff00     ................
  4092f4:	ff0000ff 00ff0000 0000ff00 ff0000ff     ................
  409304:	00ff0000 0000ff00 ffffffff ffffffff     ................
  409314:	ffffffff ffffffff ffffffff ffffffff     ................
  409324:	ffffffff ffffffff ffffffff ffffffff     ................
  409334:	ffffffff ffffffff ffffffff ffffffff     ................
  409344:	ffffffff ffffffff ffffffff ffffffff     ................
  409354:	ffffffff 00ffffff 0000ff00 ff0000ff     ................
  409364:	00ff0000 0000ff00 ff0000ff 00ff0000     ................
  409374:	0000ff00 ff0000ff 00ff0000 ffffff00     ................
  409384:	ffffffff ffffffff ffffffff ffffffff     ................
  409394:	ffffffff ffffffff ffffffff ffffffff     ................
  4093a4:	ffffffff ffffffff ffffffff ffffffff     ................
  4093b4:	ffffffff ffffffff ffffffff ffffffff     ................
  4093c4:	ffffffff ffffffff ffffffff 00ff0000     ................
  4093d4:	0000ff00 ff0000ff 00ff0000 0000ff00     ................
  4093e4:	ff0000ff 00ff0000 0000ff00 ff0000ff     ................
  4093f4:	ffff0000 ffffffff ffffffff ffffffff     ................
  409404:	ffffffff ffffffff ffffffff ffffffff     ................
  409414:	ffffffff ffffffff ffffffff ffffffff     ................
  409424:	ffffffff ffffffff ffffffff ffffffff     ................
  409434:	ffffffff ffffffff ffffffff ffffffff     ................
  409444:	ff0000ff 00ff0000 0000ff00 ff0000ff     ................
  409454:	00ff0000 0000ff00 ff0000ff 00ff0000     ................
  409464:	0000ff00 ffffffff ffffffff ffffffff     ................
  409474:	ffffffff ffffffff ffffffff ffffffff     ................
  409484:	ffffffff ffffffff ffffffff ffffffff     ................
  409494:	ffffffff ffffffff ffffffff ffffffff     ................
  4094a4:	ffffffff ffffffff ffffffff ffffffff     ................
  4094b4:	ffffffff 0000ffff ff0000ff 00ff0000     ................
  4094c4:	0000ff00 ff0000ff 00ff0000 0000ff00     ................
  4094d4:	ff0000ff 00ff0000 ffffff00 ffffffff     ................
  4094e4:	ffffffff ffffffff ffffffff ffffffff     ................
  4094f4:	ffffffff ffffffff ffffffff ffffffff     ................
  409504:	ffffffff ffffffff ffffffff ffffffff     ................
  409514:	ffffffff ffffffff ffffffff ffffffff     ................
  409524:	ffffffff ffffffff 00ffffff 0000ff00     ................
  409534:	ff0000ff 00ff0000 0000ff00 ff0000ff     ................
  409544:	00ff0000 0000ff00 ff0000ff 00ff0000     ................
  409554:	ffffff00 ffffffff ffffffff ffffffff     ................
  409564:	ffffffff ffffffff ffffffff ffffffff     ................
  409574:	ffffffff ffffffff ffffffff ffffffff     ................
  409584:	ffffffff ffffffff ffffffff ffffffff     ................
  409594:	ffffffff ffffffff ffffffff ffffffff     ................
  4095a4:	00ffffff 0000ff00 ff0000ff 00ff0000     ................
  4095b4:	0000ff00 ff0000ff 00ff0000 0000ff00     ................
  4095c4:	ff0000ff ffff0000 ffffffff ffffffff     ................
  4095d4:	ffffffff ffffffff ffffffff ffffffff     ................
  4095e4:	ffffffff ffffffff ffffffff ffffffff     ................
  4095f4:	ffffffff ffffffff ffffffff ffffffff     ................
  409604:	ffffffff ffffffff ffffffff ffffffff     ................
  409614:	ffffffff ffffffff 00ff0000 0000ff00     ................
  409624:	ff0000ff 00ff0000 0000ff00 ff0000ff     ................
  409634:	00ff0000 0000ff00 ff0000ff ffffffff     ................
  409644:	ffffffff ffffffff ffffffff ffffffff     ................
  409654:	ffffffff ffffffff ffffffff ffffffff     ................
  409664:	ffffffff ffffffff ffffffff ffffffff     ................
  409674:	ffffffff ffffffff ffffffff ffffffff     ................
  409684:	ffffffff ffffffff ffffffff ff0000ff     ................
  409694:	00ff0000 0000ff00 ff0000ff 00ff0000     ................
  4096a4:	0000ff00 ff0000ff 00ff0000 0000ff00     ................
  4096b4:	ff0000ff 00ff0000 0000ff00 ff0000ff     ................
  4096c4:	00ff0000 0000ff00 ff0000ff 00ff0000     ................
  4096d4:	0000ff00 ff0000ff 00ff0000 0000ff00     ................
  4096e4:	ff0000ff 00ff0000 0000ff00 ffffffff     ................
  4096f4:	ffffffff ffffffff ffffffff ffffffff     ................
  409704:	ffffffff ff0000ff 00ff0000 0000ff00     ................
  409714:	ff0000ff 00ff0000 0000ff00 ff0000ff     ................
  409724:	00ff0000 0000ff00 ff0000ff 00ff0000     ................
  409734:	0000ff00 ff0000ff 00ff0000 0000ff00     ................
  409744:	ff0000ff 00ff0000 0000ff00 ff0000ff     ................
  409754:	00ff0000 0000ff00 ff0000ff 00ff0000     ................
  409764:	0000ff00 ffffffff ffffffff ffffffff     ................
  409774:	ffffffff ffffffff ffffffff ff0000ff     ................
  409784:	00ff0000 0000ff00 ff0000ff 00ff0000     ................
  409794:	0000ff00 ff0000ff 00ff0000 0000ff00     ................
  4097a4:	ff0000ff 00ff0000 0000ff00 ff0000ff     ................
  4097b4:	00ff0000 0000ff00 ff0000ff 00ff0000     ................
  4097c4:	0000ff00 ff0000ff 00ff0000 0000ff00     ................
  4097d4:	ff0000ff 00ff0000 0000ff00 ffffffff     ................
  4097e4:	ffffffff ffffffff ffffffff ffffffff     ................
  4097f4:	0000ffff ff0000ff 00ff0000 0000ff00     ................
  409804:	ff0000ff 00ff0000 0000ff00 ff0000ff     ................
  409814:	00ff0000 0000ff00 ff0000ff 00ff0000     ................
  409824:	0000ff00 ff0000ff 00ff0000 0000ff00     ................
  409834:	ff0000ff 00ff0000 0000ff00 ff0000ff     ................
  409844:	00ff0000 0000ff00 ff0000ff 00ff0000     ................
  409854:	0000ff00 ffffffff ffffffff ffffffff     ................
  409864:	ffffffff ffffffff 0000ffff ff0000ff     ................
  409874:	00ff0000 0000ff00 ff0000ff 00ff0000     ................
  409884:	0000ff00 ff0000ff 00ff0000 0000ff00     ................
  409894:	ff0000ff 00ff0000 0000ff00 ff0000ff     ................
  4098a4:	00ff0000 0000ff00 ff0000ff 00ff0000     ................
  4098b4:	0000ff00 ff0000ff 00ff0000 0000ff00     ................
  4098c4:	ff0000ff 00ff0000 0000ff00 ffffffff     ................
  4098d4:	ffffffff ffffffff ffffffff 00ffffff     ................
  4098e4:	0000ff00 ff0000ff 00ff0000 0000ff00     ................
  4098f4:	ff0000ff 00ff0000 0000ff00 ff0000ff     ................
  409904:	00ff0000 0000ff00 ff0000ff 00ff0000     ................
  409914:	0000ff00 ff0000ff 00ff0000 0000ff00     ................
  409924:	ff0000ff 00ff0000 0000ff00 ff0000ff     ................
  409934:	00ff0000 0000ff00 ff0000ff 00ff0000     ................
  409944:	0000ff00 ffffffff ffffffff ffffffff     ................
  409954:	ffffffff 00ffffff 0000ff00 ff0000ff     ................
  409964:	00ff0000 0000ff00 ff0000ff 00ff0000     ................
  409974:	0000ff00 ff0000ff 00ff0000 0000ff00     ................
  409984:	ff0000ff 00ff0000 0000ff00 ff0000ff     ................
  409994:	00ff0000 0000ff00 ff0000ff 00ff0000     ................
  4099a4:	0000ff00 ff0000ff 00ff0000 0000ff00     ................
  4099b4:	ff0000ff 00ff0000 0000ff00 ffffffff     ................
  4099c4:	ffffffff ffffffff ffffffff 00ffffff     ................
  4099d4:	0000ff00 ff0000ff 00ff0000 0000ff00     ................
  4099e4:	ff0000ff 00ff0000 0000ff00 ff0000ff     ................
  4099f4:	00ff0000 0000ff00 ff0000ff 00ff0000     ................
  409a04:	0000ff00 ff0000ff 00ff0000 0000ff00     ................
  409a14:	ff0000ff 00ff0000 0000ff00 ff0000ff     ................
  409a24:	00ff0000 0000ff00 ff0000ff 00ff0000     ................
  409a34:	0000ff00 ffffffff ffffffff ffffffff     ................
  409a44:	ffffffff 00ffffff 0000ff00 ff0000ff     ................
  409a54:	00ff0000 0000ff00 ff0000ff 00ff0000     ................
  409a64:	0000ff00 ff0000ff 00ff0000 0000ff00     ................
  409a74:	ff0000ff 00ff0000 0000ff00 ff0000ff     ................
  409a84:	00ff0000 0000ff00 ff0000ff 00ff0000     ................
  409a94:	0000ff00 ff0000ff 00ff0000 0000ff00     ................
  409aa4:	ff0000ff 00ff0000 0000ff00 ffffffff     ................
  409ab4:	ffffffff ffffffff ffffffff ffffffff     ................
  409ac4:	ffffffff ffffffff ffffffff ffffffff     ................
  409ad4:	ffffffff ffffffff ffffffff ffffffff     ................
  409ae4:	ffffffff ffffffff ffffffff ffffffff     ................
  409af4:	ffffffff ffffffff ffffffff ffffffff     ................
  409b04:	ffffffff ffffffff ffffffff ffffffff     ................
  409b14:	ffffffff ffffffff ffffffff ffffffff     ................
  409b24:	ffffffff ffffffff ffffffff ffffffff     ................
  409b34:	ffffffff ffffffff ffffffff ffffffff     ................
  409b44:	ffffffff ffffffff ffffffff ffffffff     ................
  409b54:	ffffffff ffffffff ffffffff ffffffff     ................
  409b64:	ffffffff ffffffff ffffffff ffffffff     ................
  409b74:	ffffffff ffffffff ffffffff ffffffff     ................
  409b84:	ffffffff ffffffff ffffffff ffffffff     ................
  409b94:	ffffffff ffffffff ffffffff ffffffff     ................
  409ba4:	ffffffff ffffffff ffffffff ffffffff     ................
  409bb4:	ffffffff ffffffff ffffffff ffffffff     ................
  409bc4:	ffffffff ffffffff ffffffff ffffffff     ................
  409bd4:	ffffffff ffffffff ffffffff ffffffff     ................
  409be4:	ffffffff ffffffff ffffffff ffffffff     ................
  409bf4:	ffffffff ffffffff ffffffff ffffffff     ................
  409c04:	ffffffff ffffffff ffffffff ffffffff     ................
  409c14:	ffffffff ffffffff ffffffff ffffffff     ................
  409c24:	ffffffff ffffffff ffffffff ffffffff     ................
  409c34:	ffffffff ffffffff ffffffff ffffffff     ................
  409c44:	ffffffff ffffffff ffffffff ffffffff     ................
  409c54:	ffffffff ffffffff ffffffff ffffffff     ................
  409c64:	ffffffff ffffffff ffffffff ffffffff     ................
  409c74:	ffffffff ffffffff ffffffff ffffffff     ................
  409c84:	ffffffff ffffffff ffffffff ffffffff     ................
  409c94:	ffffffff ffffffff ffffffff ffffffff     ................
  409ca4:	ffffffff ffffffff ffffffff ffffffff     ................
  409cb4:	ffffffff ffffffff ffffffff ffffffff     ................
  409cc4:	ffffffff ffffffff ffffffff ffffffff     ................
  409cd4:	ffffffff ffffffff ffffffff ffffffff     ................
  409ce4:	ffffffff ffffffff ffffffff ffffffff     ................
  409cf4:	ffffffff ffffffff ffffffff ffffffff     ................
  409d04:	ffffffff ffffffff ffffffff ffffffff     ................
  409d14:	ffffffff ffffffff ffffffff ffffffff     ................
  409d24:	ffffffff ffffffff ffffffff ffffffff     ................
  409d34:	ffffffff ffffffff ffffffff ffffffff     ................
  409d44:	ffffffff ffffffff ffffffff ffffffff     ................
  409d54:	ffffffff ffffffff ffffffff ffffffff     ................
  409d64:	ffffffff ffffffff ffffffff ffffffff     ................
  409d74:	ffffffff ffffffff ffffffff ffffffff     ................
  409d84:	ffffffff ffffffff ffffffff ffffffff     ................
  409d94:	ffffffff ffffffff ffffffff ffffffff     ................
  409da4:	ffffffff ffffffff ffffffff ffffffff     ................
  409db4:	ffffffff ffffffff ffffffff ffffffff     ................
  409dc4:	ffffffff ffffffff ffffffff ffffffff     ................
  409dd4:	ffffffff ffffffff ffffffff ffffffff     ................
  409de4:	ffffffff ffffffff ffffffff ffffffff     ................
  409df4:	ffffffff ffffffff ffffffff ffffffff     ................
  409e04:	ffffffff ffffffff ffffffff ffffffff     ................
  409e14:	ffffffff ffffffff ffffffff ffffffff     ................
  409e24:	ffffffff ffffffff ffffffff ffffffff     ................
  409e34:	ffffffff ffffffff ffffffff ffffffff     ................
  409e44:	ffffffff ffffffff ffffffff ffffffff     ................
  409e54:	ffffffff ffffffff ffffffff ffffffff     ................
  409e64:	ffffffff ffffffff ffffffff ffffffff     ................
  409e74:	ffffffff ffffffff ffffffff ffffffff     ................
  409e84:	ffffffff ffffffff ffffffff ffffffff     ................
  409e94:	ffffffff ffffffff ffffffff ffffffff     ................
  409ea4:	ffffffff ffffffff ffffffff ffffffff     ................
  409eb4:	ffffffff ffffffff ffffffff ffffffff     ................
  409ec4:	ffffffff ffffffff ffffffff ffffffff     ................
  409ed4:	ffffffff ffffffff ffffffff ffffffff     ................
  409ee4:	ffffffff ffffffff ffffffff ffffffff     ................
  409ef4:	ffffffff ffffffff ffffffff ffffffff     ................
  409f04:	ffffffff ffffffff ffffffff ffffffff     ................
  409f14:	ffffffff ffffffff ffffffff ffffffff     ................
  409f24:	ffffffff ffffffff ffffffff ffffffff     ................
  409f34:	ffffffff ffffffff ffffffff ffffffff     ................
  409f44:	ffffffff ffffffff ffffffff ffffffff     ................
  409f54:	ffffffff ffffffff ffffffff ffffffff     ................
  409f64:	ffffffff ffffffff ffffffff ffffffff     ................
  409f74:	ffffffff ffffffff ffffffff ffffffff     ................
  409f84:	ffffffff ffffffff ffffffff ffffffff     ................
  409f94:	ffffffff ffffffff ffffffff ffffffff     ................
  409fa4:	ffffffff ffffffff ffffffff ffffffff     ................
  409fb4:	ffffffff ffffffff ffffffff ffffffff     ................
  409fc4:	ffffffff ffffffff ffffffff ffffffff     ................
  409fd4:	ffffffff ffffffff ffffffff ffffffff     ................
  409fe4:	ffffffff ffffffff ffffffff ffffffff     ................
  409ff4:	ffffffff ffffffff ffffffff ffffffff     ................
  40a004:	ffffffff ffffffff ffffffff ffffffff     ................
  40a014:	ffffffff ffffffff ffffffff ffffffff     ................
  40a024:	ffffffff ffffffff ffffffff ffffffff     ................
  40a034:	ffffffff ffffffff ffffffff ffffffff     ................
  40a044:	ffffffff ffffffff ffffffff ffffffff     ................
  40a054:	ffffffff ffffffff ffffffff ffffffff     ................
  40a064:	ffffffff ffffffff ffffffff ffffffff     ................
  40a074:	ffffffff ffffffff ffffffff ffffffff     ................
  40a084:	ffffffff ffffffff ffffffff ffffffff     ................
  40a094:	ffffffff ffffffff ffffffff ffffffff     ................
  40a0a4:	ffffffff ffffffff ffffffff ffffffff     ................
  40a0b4:	ffffffff ffffffff ffffffff ffffffff     ................
  40a0c4:	ffffffff ffffffff ffffffff ffffffff     ................
  40a0d4:	ffffffff ffffffff ffffffff ffffffff     ................
  40a0e4:	ffffffff ffffffff ffffffff ffffffff     ................
  40a0f4:	ffffffff ffffffff ffffffff ffffffff     ................
  40a104:	ffffffff ffffffff ffffffff ffffffff     ................
  40a114:	ffffffff ffffffff ffffffff ffffffff     ................
  40a124:	ffffffff ffffffff ffffffff ffffffff     ................
  40a134:	ffffffff ffffffff ffffffff ffffffff     ................
  40a144:	ffffffff ffffffff ffffffff ffffffff     ................
  40a154:	ffffffff ffffffff ffffffff ffffffff     ................
  40a164:	ffffffff ffffffff ffffffff ffffffff     ................
  40a174:	ffffffff ffffffff ffffffff ffffffff     ................
  40a184:	ffffffff ffffffff ffffffff ffffffff     ................
  40a194:	ffffffff ffffffff ffffffff ffffffff     ................
  40a1a4:	ffffffff ffffffff ffffffff ffffffff     ................
  40a1b4:	ffffffff ffffffff ffffffff ffffffff     ................
  40a1c4:	ffffffff ffffffff ffffffff ffffffff     ................
  40a1d4:	ffffffff ffffffff ffffffff ffffffff     ................
  40a1e4:	ffffffff ffffffff ffffffff ffffffff     ................
  40a1f4:	ffffffff ffffffff ffffffff ffffffff     ................
  40a204:	ffffffff ffffffff ffffffff ffffffff     ................
  40a214:	ffffffff ffffffff ffffffff ffffffff     ................
  40a224:	ffffffff ffffffff ffffffff ffffffff     ................
  40a234:	ffffffff ffffffff ffffffff ffffffff     ................
  40a244:	ffffffff ffffffff ffffffff ffffffff     ................
  40a254:	ffffffff ffffffff ffffffff ffffffff     ................
  40a264:	ffffffff ffffffff ffffffff ffffffff     ................
  40a274:	ffffffff ffffffff ffffffff ffffffff     ................
  40a284:	ffffffff ffffffff ffffffff ffffffff     ................
  40a294:	ffffffff ffffffff ffffffff ffffffff     ................
  40a2a4:	ffffffff ffffffff ffffffff ffffffff     ................

0040a2b4 <arial_72_0x32>:
  40a2b4:	00407b54 00000028 00000054 00000008     T{@.(...T.......

0040a2c4 <image_data_arial_72_0x33>:
  40a2c4:	ffffffff ffffffff ffffffff ffffffff     ................
  40a2d4:	ffffffff ffffffff ffffffff ffffffff     ................
  40a2e4:	ffffffff ffffffff ffffffff ffffffff     ................
  40a2f4:	ffffffff ffffffff ffffffff ffffffff     ................
  40a304:	ffffffff ffffffff ffffffff ffffffff     ................
  40a314:	ffffffff ffffffff ffffffff ffffffff     ................
  40a324:	ffffffff ffffffff ffffffff ffffffff     ................
  40a334:	ffffffff ffffffff ffffffff ffffffff     ................
  40a344:	ffffffff ffffffff ffffffff ffffffff     ................
  40a354:	ffffffff ffffffff ffffffff ffffffff     ................
  40a364:	ffffffff ffffffff ffffffff ffffffff     ................
  40a374:	ffffffff ffffffff ffffffff ffffffff     ................
  40a384:	ffffffff ffffffff ffffffff ffffffff     ................
  40a394:	ffffffff ffffffff ffffffff ffffffff     ................
  40a3a4:	ffffffff ffffffff ffffffff ffffffff     ................
  40a3b4:	ffffffff ffffffff ffffffff ffffffff     ................
  40a3c4:	ffffffff ffffffff ffffffff ffffffff     ................
  40a3d4:	ffffffff ffffffff ffffffff ffffffff     ................
  40a3e4:	ffffffff ffffffff ffffffff ffffffff     ................
  40a3f4:	ffffffff ffffffff ffffffff ffffffff     ................
  40a404:	ffffffff ffffffff ffffffff ffffffff     ................
  40a414:	ffffffff ffffffff ffffffff ffffffff     ................
  40a424:	ffffffff ffffffff ffffffff ffffffff     ................
  40a434:	ffffffff ffffffff ffffffff ffffffff     ................
  40a444:	ffffffff ffffffff ffffffff ffffffff     ................
  40a454:	ffffffff ffffffff ffffffff ffffffff     ................
  40a464:	ffffffff ffffffff ffffffff ffffffff     ................
  40a474:	ffffffff ffffffff ffffffff ffffffff     ................
  40a484:	ffffffff ffffffff ffffffff ffffffff     ................
  40a494:	ffffffff ffffffff ffffffff ffffffff     ................
  40a4a4:	ffffffff ffffffff ffffffff ffffffff     ................
  40a4b4:	ffffffff ffffffff ffffffff ffffffff     ................
  40a4c4:	ffffffff ffffffff ffffffff ffffffff     ................
  40a4d4:	ffffffff ffffffff ffffffff ffffffff     ................
  40a4e4:	ffffffff ffffffff ffffffff ffffffff     ................
  40a4f4:	ffffffff ffffffff ffffffff ffffffff     ................
  40a504:	ffffffff ffffffff ffffffff ffffffff     ................
  40a514:	ffffffff ffffffff ffffffff ffffffff     ................
  40a524:	ffffffff ffffffff ffffffff ffffffff     ................
  40a534:	ffffffff ffffffff ffffffff ffffffff     ................
  40a544:	ffffffff ffffffff ffffffff ffffffff     ................
  40a554:	ffffffff ffffffff ffffffff ffffffff     ................
  40a564:	ffffffff ffffffff ffffffff ffffffff     ................
  40a574:	ffffffff ffffffff ffffffff ffffffff     ................
  40a584:	ffffffff ffffffff ffffffff ffffffff     ................
  40a594:	ffffffff ffffffff ffffffff ffffffff     ................
  40a5a4:	ffffffff ffffffff ffffffff ffffffff     ................
  40a5b4:	ffffffff ffffffff ffffffff ffffffff     ................
  40a5c4:	ffffffff ffffffff ffffffff ffffffff     ................
  40a5d4:	ffffffff ffffffff ffffffff ffffffff     ................
  40a5e4:	ffffffff ffffffff ffffffff ffffffff     ................
  40a5f4:	ffffffff ffffffff ffffffff ffffffff     ................
  40a604:	ffffffff ffffffff ffffffff ffffffff     ................
  40a614:	ffffffff ffffffff ffffffff ffffffff     ................
  40a624:	ffffffff ffffffff ffffffff ffffffff     ................
  40a634:	ffffffff ffffffff ffffffff ffffffff     ................
  40a644:	ffffffff ffffffff ffffffff ffffffff     ................
  40a654:	ffffffff ffffffff ffffffff ffffffff     ................
  40a664:	ffffffff ffffffff ffffffff ffffffff     ................
  40a674:	ffffffff ffffffff ffffffff ffffffff     ................
  40a684:	ffffffff ffffffff ffffffff ffffffff     ................
  40a694:	ffffffff ffffffff ffffffff ffffffff     ................
  40a6a4:	ffffffff ffffffff ffffffff ffffffff     ................
  40a6b4:	ffffffff ffffffff ffffffff ffffffff     ................
  40a6c4:	ffffffff ffffffff ffffffff ffffffff     ................
  40a6d4:	ffffffff ffffffff ffffffff ffffffff     ................
  40a6e4:	ffffffff ffffffff ffffffff ffffffff     ................
  40a6f4:	ffffffff ffffffff ffffffff ffffffff     ................
  40a704:	ffffffff ffffffff ffffffff ffffffff     ................
  40a714:	ffffffff ffffffff ffffffff ffffffff     ................
  40a724:	ffffffff ffffffff ffffffff ffffffff     ................
  40a734:	ffffffff ffffffff ffffffff ffffffff     ................
  40a744:	ffffffff ffffffff ffffffff ffffffff     ................
  40a754:	ffffffff ffffffff ffffffff ffffffff     ................
  40a764:	ffffffff ffffffff ffffffff ffffffff     ................
  40a774:	ffffffff ffffffff ffffffff ffffffff     ................
  40a784:	ffffffff ffffffff ffffffff ffffffff     ................
  40a794:	ffffffff ffffffff ffffffff ffffffff     ................
  40a7a4:	ffffffff ffffffff ffffffff ffffffff     ................
  40a7b4:	ffffffff ffffffff ffffffff ffffffff     ................
  40a7c4:	ffffffff ffffffff ffffffff ffffffff     ................
  40a7d4:	ffffffff ffffffff ffffffff ffffffff     ................
  40a7e4:	ffffffff ffffffff ffffffff ffffffff     ................
  40a7f4:	ffffffff ffffffff ffffffff ffffffff     ................
  40a804:	ffffffff ffffffff ffffffff ffffffff     ................
  40a814:	ffffffff ffffffff ffffffff ffffffff     ................
  40a824:	ffffffff ffffffff ffffffff ffffffff     ................
  40a834:	ffffffff ffffffff ffffffff ffffffff     ................
  40a844:	ffffffff ffffffff ffffffff ffffffff     ................
  40a854:	ffffffff ffffffff ffffffff ffffffff     ................
  40a864:	ffffffff ffffffff ffffffff ffffffff     ................
  40a874:	ffffffff ffffffff ffffffff ffffffff     ................
  40a884:	ffffffff ffffffff ffffffff ffffffff     ................
  40a894:	ffffffff ffffffff ffffffff ffffffff     ................
  40a8a4:	ffffffff ffffffff ffffffff ffffffff     ................
  40a8b4:	ffffffff ffffffff ffffffff ffffffff     ................
  40a8c4:	ffffffff ffffffff ffffffff ffffffff     ................
  40a8d4:	ffffffff ffffffff ffffffff ffffffff     ................
  40a8e4:	ffffffff ffffffff ffffffff ffffffff     ................
  40a8f4:	ffffffff ffffffff ffffffff ffffffff     ................
  40a904:	ffffffff ffffffff ffffffff ffffffff     ................
  40a914:	ffffffff ffffffff ffffffff ffffffff     ................
  40a924:	ffffffff ffffffff ffffffff ffffffff     ................
  40a934:	ffffffff ffffffff ffffffff ffffffff     ................
  40a944:	ffffffff ffffffff ffffffff ffffffff     ................
  40a954:	ffffffff ffffffff ffffffff ffffffff     ................
  40a964:	ffffffff ffffffff ffffffff ffffffff     ................
  40a974:	ffffffff ffffffff ffffffff ffffffff     ................
  40a984:	ffffffff ffffffff ffffffff ffffffff     ................
  40a994:	ffffffff ffffffff ffffffff ffffffff     ................
  40a9a4:	ffffffff ffffffff ffffffff ffffffff     ................
  40a9b4:	ffffffff ffffffff ffffffff ffffffff     ................
  40a9c4:	ffffffff ffffffff ffffffff ffffffff     ................
  40a9d4:	ffffffff ffffffff ffffffff ffffffff     ................
  40a9e4:	ffffffff ffffffff ffffffff ffffffff     ................
  40a9f4:	ffffffff ffffffff ff0000ff 00ff0000     ................
  40aa04:	0000ff00 ff0000ff ffff0000 ffffffff     ................
  40aa14:	ffffffff ffffffff ffffffff ffffffff     ................
  40aa24:	ffffffff ffffffff ffffffff ffffffff     ................
  40aa34:	ffffffff ffffffff ffffffff ffffffff     ................
  40aa44:	ffffffff ffffffff ffffffff ffffffff     ................
  40aa54:	ffffffff ffffffff ffffffff ffffffff     ................
  40aa64:	ffffffff ffffffff 00ff0000 0000ff00     ................
  40aa74:	ff0000ff 00ff0000 0000ff00 ff0000ff     ................
  40aa84:	00ff0000 0000ff00 ff0000ff ffff0000     ................
  40aa94:	ffffffff ffffffff ffffffff ffffffff     ................
  40aaa4:	ffffffff ffffffff ffffffff ffffffff     ................
  40aab4:	ffffffff ffffffff ffffffff ffffffff     ................
  40aac4:	ffffffff ffffffff ffffffff ffffffff     ................
  40aad4:	ffffffff ffffffff 0000ffff ff0000ff     ................
  40aae4:	00ff0000 0000ff00 ff0000ff 00ff0000     ................
  40aaf4:	0000ff00 ff0000ff 00ff0000 0000ff00     ................
  40ab04:	ff0000ff 00ff0000 0000ff00 ffffffff     ................
  40ab14:	ffffffff ffffffff ffffffff ffffffff     ................
  40ab24:	ffffffff ffffffff ffffffff ffffffff     ................
  40ab34:	ffffffff ffffffff ffffffff ffffffff     ................
  40ab44:	ffffffff ffffffff ffffffff 00ff0000     ................
  40ab54:	0000ff00 ff0000ff 00ff0000 0000ff00     ................
  40ab64:	ff0000ff 00ff0000 0000ff00 ff0000ff     ................
  40ab74:	00ff0000 0000ff00 ff0000ff 00ff0000     ................
  40ab84:	0000ff00 ff0000ff ffffffff ffffffff     ................
  40ab94:	ffffffff ffffffff ffffffff ffffffff     ................
  40aba4:	ffffffff ffffffff ffffffff ffffffff     ................
  40abb4:	ffffffff ffffffff ffffffff ffffffff     ................
  40abc4:	ff0000ff 00ff0000 0000ff00 ff0000ff     ................
  40abd4:	00ff0000 0000ff00 ff0000ff 00ff0000     ................
  40abe4:	0000ff00 ff0000ff 00ff0000 0000ff00     ................
  40abf4:	ff0000ff 00ff0000 0000ff00 ff0000ff     ................
  40ac04:	00ff0000 ffffff00 ffffffff ffffffff     ................
  40ac14:	ffffffff ffffffff ffffffff ffffffff     ................
  40ac24:	ffffffff ffffffff ffffffff ffffffff     ................
  40ac34:	ffffffff 0000ffff ff0000ff 00ff0000     ................
  40ac44:	0000ff00 ff0000ff 00ff0000 0000ff00     ................
  40ac54:	ff0000ff 00ff0000 0000ff00 ff0000ff     ................
  40ac64:	00ff0000 0000ff00 ff0000ff 00ff0000     ................
  40ac74:	0000ff00 ff0000ff 00ff0000 0000ff00     ................
  40ac84:	ffffffff ffffffff ffffffff ffffffff     ................
  40ac94:	ffffffff ffffffff ffffffff ffffffff     ................
  40aca4:	ffffffff ffffffff 00ffffff 0000ff00     ................
  40acb4:	ff0000ff 00ff0000 0000ff00 ff0000ff     ................
  40acc4:	00ff0000 0000ff00 ff0000ff 00ff0000     ................
  40acd4:	0000ff00 ff0000ff 00ff0000 0000ff00     ................
  40ace4:	ff0000ff 00ff0000 0000ff00 ff0000ff     ................
  40acf4:	00ff0000 0000ff00 ffffffff ffffffff     ................
  40ad04:	ffffffff ffffffff ffffffff ffffffff     ................
  40ad14:	ffffffff ffffffff ffffffff ffffffff     ................
  40ad24:	00ffffff 0000ff00 ff0000ff 00ff0000     ................
  40ad34:	0000ff00 ff0000ff 00ff0000 0000ff00     ................
  40ad44:	ff0000ff 00ff0000 0000ff00 ff0000ff     ................
  40ad54:	00ff0000 0000ff00 ff0000ff 00ff0000     ................
  40ad64:	0000ff00 ff0000ff 00ff0000 0000ff00     ................
  40ad74:	ff0000ff ffffffff ffffffff ffffffff     ................
  40ad84:	ffffffff ffffffff ffffffff ffffffff     ................
  40ad94:	ffffffff ffffffff 00ff0000 0000ff00     ................
  40ada4:	ff0000ff 00ff0000 0000ff00 ff0000ff     ................
  40adb4:	00ff0000 0000ff00 ff0000ff ffff0000     ................
  40adc4:	ffffffff ff0000ff 00ff0000 0000ff00     ................
  40add4:	ff0000ff 00ff0000 0000ff00 ff0000ff     ................
  40ade4:	00ff0000 0000ff00 ff0000ff ffffffff     ................
  40adf4:	ffffffff ffffffff ffffffff ffffffff     ................
  40ae04:	ffffffff ffffffff ffffffff ffffffff     ................
  40ae14:	00ff0000 0000ff00 ff0000ff 00ff0000     ................
  40ae24:	0000ff00 ff0000ff 00ff0000 0000ff00     ................
  40ae34:	ffffffff ffffffff ffffffff ffffffff     ................
  40ae44:	ffffffff 0000ffff ff0000ff 00ff0000     ................
  40ae54:	0000ff00 ff0000ff 00ff0000 0000ff00     ................
  40ae64:	ff0000ff ffff0000 ffffffff ffffffff     ................
  40ae74:	ffffffff ffffffff ffffffff ffffffff     ................
  40ae84:	ffffffff ff0000ff 00ff0000 0000ff00     ................
  40ae94:	ff0000ff 00ff0000 0000ff00 ff0000ff     ................
  40aea4:	ffff0000 ffffffff ffffffff ffffffff     ................
  40aeb4:	ffffffff ffffffff ffffffff ffffffff     ................
  40aec4:	ff0000ff 00ff0000 0000ff00 ff0000ff     ................
  40aed4:	00ff0000 0000ff00 ff0000ff ffff0000     ................
  40aee4:	ffffffff ffffffff ffffffff ffffffff     ................
  40aef4:	ffffffff ffffffff ffffffff ff0000ff     ................
  40af04:	00ff0000 0000ff00 ff0000ff 00ff0000     ................
  40af14:	0000ff00 ff0000ff ffff0000 ffffffff     ................
  40af24:	ffffffff ffffffff ffffffff ffffffff     ................
  40af34:	ffffffff ffffffff ff0000ff 00ff0000     ................
  40af44:	0000ff00 ff0000ff 00ff0000 0000ff00     ................
  40af54:	ff0000ff ffff0000 ffffffff ffffffff     ................
  40af64:	ffffffff ffffffff ffffffff ffffffff     ................
  40af74:	ffffffff ff0000ff 00ff0000 0000ff00     ................
  40af84:	ff0000ff 00ff0000 0000ff00 ff0000ff     ................
  40af94:	ffffffff ffffffff ffffffff ffffffff     ................
  40afa4:	ffffffff ffffffff ffffffff ffffffff     ................
  40afb4:	ff0000ff 00ff0000 0000ff00 ff0000ff     ................
  40afc4:	00ff0000 0000ff00 ff0000ff 00ff0000     ................
  40afd4:	ffffff00 ffffffff ffffffff ffffffff     ................
  40afe4:	ffffffff ffffffff ffffffff ff0000ff     ................
  40aff4:	00ff0000 0000ff00 ff0000ff 00ff0000     ................
  40b004:	0000ff00 ff0000ff ffffffff ffffffff     ................
  40b014:	ffffffff ffffffff ffffffff ffffffff     ................
  40b024:	ffffffff ffffffff ffffffff 00ff0000     ................
  40b034:	0000ff00 ff0000ff 00ff0000 0000ff00     ................
  40b044:	ff0000ff 00ff0000 ffffff00 ffffffff     ................
  40b054:	ffffffff ffffffff ffffffff ffffffff     ................
  40b064:	ffffffff ffffffff ffffffff ffffffff     ................
  40b074:	ff0000ff 00ff0000 0000ff00 ff0000ff     ................
  40b084:	ffffffff ffffffff ffffffff ffffffff     ................
  40b094:	ffffffff ffffffff ffffffff ffffffff     ................
  40b0a4:	ffffffff 00ff0000 0000ff00 ff0000ff     ................
  40b0b4:	00ff0000 0000ff00 ff0000ff 00ff0000     ................
  40b0c4:	ffffff00 ffffffff ffffffff ffffffff     ................
  40b0d4:	ffffffff ffffffff ffffffff ffffffff     ................
  40b0e4:	ffffffff ffffffff ffffffff ffffffff     ................
  40b0f4:	ffffffff ffffffff ffffffff ffffffff     ................
  40b104:	ffffffff ffffffff ffffffff ffffffff     ................
  40b114:	ffffffff ffffffff ffffffff 00ff0000     ................
  40b124:	0000ff00 ff0000ff 00ff0000 0000ff00     ................
  40b134:	ff0000ff ffff0000 ffffffff ffffffff     ................
  40b144:	ffffffff ffffffff ffffffff ffffffff     ................
  40b154:	ffffffff ffffffff ffffffff ffffffff     ................
  40b164:	ffffffff ffffffff ffffffff ffffffff     ................
  40b174:	ffffffff ffffffff ffffffff ffffffff     ................
  40b184:	ffffffff ffffffff ffffffff ffffffff     ................
  40b194:	ff0000ff 00ff0000 0000ff00 ff0000ff     ................
  40b1a4:	00ff0000 0000ff00 ff0000ff ffff0000     ................
  40b1b4:	ffffffff ffffffff ffffffff ffffffff     ................
  40b1c4:	ffffffff ffffffff ffffffff ffffffff     ................
  40b1d4:	ffffffff ffffffff ffffffff ffffffff     ................
  40b1e4:	ffffffff ffffffff ffffffff ffffffff     ................
  40b1f4:	ffffffff ffffffff ffffffff ffffffff     ................
  40b204:	ffffffff ffffffff ff0000ff 00ff0000     ................
  40b214:	0000ff00 ff0000ff 00ff0000 0000ff00     ................
  40b224:	ff0000ff ffff0000 ffffffff ffffffff     ................
  40b234:	ffffffff ffffffff ffffffff ffffffff     ................
  40b244:	ffffffff ffffffff ffffffff ffffffff     ................
  40b254:	ffffffff ffffffff ffffffff ffffffff     ................
  40b264:	ffffffff ffffffff ffffffff ffffffff     ................
  40b274:	ffffffff ffffffff ffffffff 0000ffff     ................
  40b284:	ff0000ff 00ff0000 0000ff00 ff0000ff     ................
  40b294:	00ff0000 0000ff00 ff0000ff ffffffff     ................
  40b2a4:	ffffffff ffffffff ffffffff ffffffff     ................
  40b2b4:	ffffffff ffffffff ffffffff ffffffff     ................
  40b2c4:	ffffffff ffffffff ffffffff ffffffff     ................
  40b2d4:	ffffffff ffffffff ffffffff ffffffff     ................
  40b2e4:	ffffffff ffffffff ffffffff ffffffff     ................
  40b2f4:	00ffffff 0000ff00 ff0000ff 00ff0000     ................
  40b304:	0000ff00 ff0000ff 00ff0000 0000ff00     ................
  40b314:	ff0000ff ffffffff ffffffff ffffffff     ................
  40b324:	ffffffff ffffffff ffffffff ffffffff     ................
  40b334:	ffffffff ffffffff ffffffff ffffffff     ................
  40b344:	ffffffff ffffffff ffffffff ffffffff     ................
  40b354:	ffffffff ffffffff ffffffff ffffffff     ................
  40b364:	0000ffff ff0000ff 00ff0000 0000ff00     ................
  40b374:	ff0000ff 00ff0000 0000ff00 ff0000ff     ................
  40b384:	00ff0000 0000ff00 ffffffff ffffffff     ................
  40b394:	ffffffff ffffffff ffffffff ffffffff     ................
  40b3a4:	ffffffff ffffffff ffffffff ffffffff     ................
  40b3b4:	ffffffff ffffffff ffffffff ffffffff     ................
  40b3c4:	ffffffff ffffffff ffffffff ffffffff     ................
  40b3d4:	ff0000ff 00ff0000 0000ff00 ff0000ff     ................
  40b3e4:	00ff0000 0000ff00 ff0000ff 00ff0000     ................
  40b3f4:	0000ff00 ff0000ff 00ff0000 ffffff00     ................
  40b404:	ffffffff ffffffff ffffffff ffffffff     ................
  40b414:	ffffffff ffffffff ffffffff ffffffff     ................
  40b424:	ffffffff ffffffff ffffffff ffffffff     ................
  40b434:	ffffffff ffffffff ffffffff ffffffff     ................
  40b444:	ffffffff ffffffff ff0000ff 00ff0000     ................
  40b454:	0000ff00 ff0000ff 00ff0000 0000ff00     ................
  40b464:	ff0000ff 00ff0000 0000ff00 ff0000ff     ................
  40b474:	ffff0000 ffffffff ffffffff ffffffff     ................
  40b484:	ffffffff ffffffff ffffffff ffffffff     ................
  40b494:	ffffffff ffffffff ffffffff ffffffff     ................
  40b4a4:	ffffffff ffffffff ffffffff ffffffff     ................
  40b4b4:	ffffffff ffffffff ffffffff ffffffff     ................
  40b4c4:	ff0000ff 00ff0000 0000ff00 ff0000ff     ................
  40b4d4:	00ff0000 0000ff00 ff0000ff 00ff0000     ................
  40b4e4:	0000ff00 ffffffff ffffffff ffffffff     ................
  40b4f4:	ffffffff ffffffff ffffffff ffffffff     ................
  40b504:	ffffffff ffffffff ffffffff ffffffff     ................
  40b514:	ffffffff ffffffff ffffffff ffffffff     ................
  40b524:	ffffffff ffffffff ffffffff ffffffff     ................
  40b534:	ffffffff ffffffff ff0000ff 00ff0000     ................
  40b544:	0000ff00 ff0000ff 00ff0000 0000ff00     ................
  40b554:	ff0000ff 00ff0000 0000ff00 ffffffff     ................
  40b564:	ffffffff ffffffff ffffffff ffffffff     ................
  40b574:	ffffffff ffffffff ffffffff ffffffff     ................
  40b584:	ffffffff ffffffff ffffffff ffffffff     ................
  40b594:	ffffffff ffffffff ffffffff ffffffff     ................
  40b5a4:	ffffffff ffffffff ffffffff ffffffff     ................
  40b5b4:	ff0000ff 00ff0000 0000ff00 ff0000ff     ................
  40b5c4:	00ff0000 0000ff00 ff0000ff 00ff0000     ................
  40b5d4:	0000ff00 ff0000ff 00ff0000 ffffff00     ................
  40b5e4:	ffffffff ffffffff ffffffff ffffffff     ................
  40b5f4:	ffffffff ffffffff ffffffff ffffffff     ................
  40b604:	ffffffff ffffffff ffffffff ffffffff     ................
  40b614:	ffffffff ffffffff ffffffff ffffffff     ................
  40b624:	ffffffff ffffffff ff0000ff 00ff0000     ................
  40b634:	0000ff00 ff0000ff 00ff0000 0000ff00     ................
  40b644:	ff0000ff 00ff0000 0000ff00 ff0000ff     ................
  40b654:	00ff0000 0000ff00 ffffffff ffffffff     ................
  40b664:	ffffffff ffffffff ffffffff ffffffff     ................
  40b674:	ffffffff ffffffff ffffffff ffffffff     ................
  40b684:	ffffffff ffffffff ffffffff ffffffff     ................
  40b694:	ffffffff ffffffff ffffffff ffffffff     ................
  40b6a4:	ff0000ff 00ff0000 0000ff00 ff0000ff     ................
  40b6b4:	00ff0000 0000ff00 ff0000ff 00ff0000     ................
  40b6c4:	0000ff00 ff0000ff 00ff0000 0000ff00     ................
  40b6d4:	ff0000ff ffffffff ffffffff ffffffff     ................
  40b6e4:	ffffffff ffffffff ffffffff ffffffff     ................
  40b6f4:	ffffffff ffffffff ffffffff ffffffff     ................
  40b704:	ffffffff ffffffff ffffffff ffffffff     ................
  40b714:	ffffffff 0000ffff ff0000ff ffffffff     ................
  40b724:	ffffffff ffffffff 00ffffff 0000ff00     ................
  40b734:	ff0000ff 00ff0000 0000ff00 ff0000ff     ................
  40b744:	00ff0000 0000ff00 ff0000ff ffff0000     ................
  40b754:	ffffffff ffffffff ffffffff ffffffff     ................
  40b764:	ffffffff ffffffff ffffffff ffffffff     ................
  40b774:	ffffffff ffffffff ffffffff ffffffff     ................
  40b784:	ffffffff ffffffff ffffffff ffffffff     ................
  40b794:	ffffffff ffffffff ffffffff ffffffff     ................
  40b7a4:	ffffffff ffffffff ff0000ff 00ff0000     ................
  40b7b4:	0000ff00 ff0000ff 00ff0000 0000ff00     ................
  40b7c4:	ff0000ff 00ff0000 ffffff00 ffffffff     ................
  40b7d4:	ffffffff ffffffff ffffffff ffffffff     ................
  40b7e4:	ffffffff ffffffff ffffffff ffffffff     ................
  40b7f4:	ffffffff ffffffff ffffffff ffffffff     ................
  40b804:	ffffffff ffffffff ffffffff ffffffff     ................
  40b814:	ffffffff ffffffff ffffffff ffffffff     ................
  40b824:	ffffffff 00ff0000 0000ff00 ff0000ff     ................
  40b834:	00ff0000 0000ff00 ff0000ff 00ff0000     ................
  40b844:	0000ff00 ffffffff ffffffff ffffffff     ................
  40b854:	ffffffff ffffffff ffffffff ffffffff     ................
  40b864:	ffffffff ffffffff ffffffff ffffffff     ................
  40b874:	ffffffff ffffffff ffffffff ffffffff     ................
  40b884:	ffffffff ffffffff ffffffff ffffffff     ................
  40b894:	ffffffff ffffffff ffffffff 00ffffff     ................
  40b8a4:	0000ff00 ff0000ff 00ff0000 0000ff00     ................
  40b8b4:	ff0000ff 00ff0000 0000ff00 ffffffff     ................
  40b8c4:	ffffffff ffffffff ffffffff ffffffff     ................
  40b8d4:	ffffffff ffffffff ffffffff ffffffff     ................
  40b8e4:	ffffffff ffffffff ffffffff ffffffff     ................
  40b8f4:	ffffffff ffffffff ffffffff ffffffff     ................
  40b904:	ffffffff ffffffff ffffffff ffffffff     ................
  40b914:	ffffffff 00ffffff 0000ff00 ff0000ff     ................
  40b924:	00ff0000 0000ff00 ff0000ff 00ff0000     ................
  40b934:	0000ff00 ffffffff ffffffff ffffffff     ................
  40b944:	ffffffff ffffffff ffffffff ffffffff     ................
  40b954:	ffffffff ffffffff ffffffff ffffffff     ................
  40b964:	ffffffff ffffffff ffffffff ffffffff     ................
  40b974:	ffffffff ffffffff ffffffff ffffffff     ................
  40b984:	ffffffff ffffffff ffffffff ffffffff     ................
  40b994:	0000ffff ff0000ff 00ff0000 0000ff00     ................
  40b9a4:	ff0000ff 00ff0000 0000ff00 ff0000ff     ................
  40b9b4:	ffffffff ffffffff ffffffff ffffffff     ................
  40b9c4:	ffffffff ffffffff ffffffff ffffffff     ................
  40b9d4:	ffffffff ffffffff ffffffff ffffffff     ................
  40b9e4:	ffffffff ffffffff ffffffff ffffffff     ................
  40b9f4:	ffffffff ffffffff ffffffff ffffffff     ................
  40ba04:	ffffffff ffffffff 0000ffff ff0000ff     ................
  40ba14:	00ff0000 0000ff00 ff0000ff 00ff0000     ................
  40ba24:	0000ff00 ff0000ff ffffffff ffffffff     ................
  40ba34:	ffffffff ffffffff ffffffff ffffffff     ................
  40ba44:	ffffffff ffffffff ffffffff ffffffff     ................
  40ba54:	ffffffff ffffffff ffffffff ffffffff     ................
  40ba64:	ffffffff ffffffff ffffffff ffffffff     ................
  40ba74:	ffffffff ffffffff ffffffff ffffffff     ................
  40ba84:	0000ffff ff0000ff 00ff0000 0000ff00     ................
  40ba94:	ff0000ff 00ff0000 0000ff00 ff0000ff     ................
  40baa4:	ffffffff ffffffff ffffffff ffffffff     ................
  40bab4:	ffffffff ffffffff ffffffff ffffffff     ................
  40bac4:	ffffffff ffffffff ffffffff ffffffff     ................
  40bad4:	ffffffff ffffffff ffffffff ffffffff     ................
  40bae4:	ffffffff ffffffff ffffffff ffffffff     ................
  40baf4:	ffffffff ffffffff 0000ffff ff0000ff     ................
  40bb04:	00ff0000 0000ff00 ff0000ff 00ff0000     ................
  40bb14:	0000ff00 ff0000ff ffffffff ffffffff     ................
  40bb24:	ffffffff ffffffff ffffffff ffffffff     ................
  40bb34:	ffffffff ffffffff ffffffff 00ffffff     ................
  40bb44:	0000ff00 ffffffff ffffffff ffffffff     ................
  40bb54:	ffffffff ffffffff ffffffff ffffffff     ................
  40bb64:	ffffffff ffffffff ffffffff ffffffff     ................
  40bb74:	0000ffff ff0000ff 00ff0000 0000ff00     ................
  40bb84:	ff0000ff 00ff0000 0000ff00 ff0000ff     ................
  40bb94:	ffffffff ffffffff ffffffff ffffffff     ................
  40bba4:	0000ffff ff0000ff 00ff0000 0000ff00     ................
  40bbb4:	ff0000ff 00ff0000 0000ff00 ff0000ff     ................
  40bbc4:	ffffffff ffffffff ffffffff ffffffff     ................
  40bbd4:	ffffffff ffffffff ffffffff ffffffff     ................
  40bbe4:	ffffffff ffffffff 0000ffff ff0000ff     ................
  40bbf4:	00ff0000 0000ff00 ff0000ff 00ff0000     ................
  40bc04:	0000ff00 ff0000ff ffffffff ffffffff     ................
  40bc14:	ffffffff ffffffff 0000ffff ff0000ff     ................
  40bc24:	00ff0000 0000ff00 ff0000ff 00ff0000     ................
  40bc34:	0000ff00 ff0000ff ffffffff ffffffff     ................
  40bc44:	ffffffff ffffffff ffffffff ffffffff     ................
  40bc54:	ffffffff ffffffff ffffffff 00ffffff     ................
  40bc64:	0000ff00 ff0000ff 00ff0000 0000ff00     ................
  40bc74:	ff0000ff 00ff0000 0000ff00 ff0000ff     ................
  40bc84:	ffffffff ffffffff ffffffff ffffffff     ................
  40bc94:	0000ffff ff0000ff 00ff0000 0000ff00     ................
  40bca4:	ff0000ff 00ff0000 0000ff00 ff0000ff     ................
  40bcb4:	ffffffff ffffffff ffffffff ffffffff     ................
  40bcc4:	ffffffff ffffffff ffffffff ffffffff     ................
  40bcd4:	ffffffff 00ffffff 0000ff00 ff0000ff     ................
  40bce4:	00ff0000 0000ff00 ff0000ff 00ff0000     ................
  40bcf4:	0000ff00 ffffffff ffffffff ffffffff     ................
  40bd04:	ffffffff ffffffff 0000ffff ff0000ff     ................
  40bd14:	00ff0000 0000ff00 ff0000ff 00ff0000     ................
  40bd24:	0000ff00 ff0000ff ffff0000 ffffffff     ................
  40bd34:	ffffffff ffffffff ffffffff ffffffff     ................
  40bd44:	ffffffff ffffffff ffffffff 00ff0000     ................
  40bd54:	0000ff00 ff0000ff 00ff0000 0000ff00     ................
  40bd64:	ff0000ff 00ff0000 0000ff00 ffffffff     ................
  40bd74:	ffffffff ffffffff ffffffff ffffffff     ................
  40bd84:	ffffffff ff0000ff 00ff0000 0000ff00     ................
  40bd94:	ff0000ff 00ff0000 0000ff00 ff0000ff     ................
  40bda4:	00ff0000 ffffff00 ffffffff ffffffff     ................
  40bdb4:	ffffffff ffffffff ffffffff ffffffff     ................
  40bdc4:	ffffffff 00ff0000 0000ff00 ff0000ff     ................
  40bdd4:	00ff0000 0000ff00 ff0000ff 00ff0000     ................
  40bde4:	0000ff00 ffffffff ffffffff ffffffff     ................
  40bdf4:	ffffffff ffffffff ffffffff ff0000ff     ................
  40be04:	00ff0000 0000ff00 ff0000ff 00ff0000     ................
  40be14:	0000ff00 ff0000ff 00ff0000 0000ff00     ................
  40be24:	ffffffff ffffffff ffffffff ffffffff     ................
  40be34:	ffffffff 0000ffff ff0000ff 00ff0000     ................
  40be44:	0000ff00 ff0000ff 00ff0000 0000ff00     ................
  40be54:	ff0000ff 00ff0000 ffffff00 ffffffff     ................
  40be64:	ffffffff ffffffff ffffffff ffffffff     ................
  40be74:	ffffffff ffffffff 00ff0000 0000ff00     ................
  40be84:	ff0000ff 00ff0000 0000ff00 ff0000ff     ................
  40be94:	00ff0000 0000ff00 ff0000ff ffff0000     ................
  40bea4:	ffffffff ffffffff 00ff0000 0000ff00     ................
  40beb4:	ff0000ff 00ff0000 0000ff00 ff0000ff     ................
  40bec4:	00ff0000 0000ff00 ff0000ff 00ff0000     ................
  40bed4:	ffffff00 ffffffff ffffffff ffffffff     ................
  40bee4:	ffffffff ffffffff ffffffff ffffffff     ................
  40bef4:	00ff0000 0000ff00 ff0000ff 00ff0000     ................
  40bf04:	0000ff00 ff0000ff 00ff0000 0000ff00     ................
  40bf14:	ff0000ff 00ff0000 0000ff00 ff0000ff     ................
  40bf24:	00ff0000 0000ff00 ff0000ff 00ff0000     ................
  40bf34:	0000ff00 ff0000ff 00ff0000 0000ff00     ................
  40bf44:	ff0000ff ffff0000 ffffffff ffffffff     ................
  40bf54:	ffffffff ffffffff ffffffff ffffffff     ................
  40bf64:	ffffffff ffffffff 00ffffff 0000ff00     ................
  40bf74:	ff0000ff 00ff0000 0000ff00 ff0000ff     ................
  40bf84:	00ff0000 0000ff00 ff0000ff 00ff0000     ................
  40bf94:	0000ff00 ff0000ff 00ff0000 0000ff00     ................
  40bfa4:	ff0000ff 00ff0000 0000ff00 ff0000ff     ................
  40bfb4:	00ff0000 0000ff00 ff0000ff ffffffff     ................
  40bfc4:	ffffffff ffffffff ffffffff ffffffff     ................
  40bfd4:	ffffffff ffffffff ffffffff ffffffff     ................
  40bfe4:	ffffffff 0000ffff ff0000ff 00ff0000     ................
  40bff4:	0000ff00 ff0000ff 00ff0000 0000ff00     ................
  40c004:	ff0000ff 00ff0000 0000ff00 ff0000ff     ................
  40c014:	00ff0000 0000ff00 ff0000ff 00ff0000     ................
  40c024:	0000ff00 ff0000ff 00ff0000 0000ff00     ................
  40c034:	ff0000ff ffffffff ffffffff ffffffff     ................
  40c044:	ffffffff ffffffff ffffffff ffffffff     ................
  40c054:	ffffffff ffffffff ffffffff ffffffff     ................
  40c064:	ff0000ff 00ff0000 0000ff00 ff0000ff     ................
  40c074:	00ff0000 0000ff00 ff0000ff 00ff0000     ................
  40c084:	0000ff00 ff0000ff 00ff0000 0000ff00     ................
  40c094:	ff0000ff 00ff0000 0000ff00 ff0000ff     ................
  40c0a4:	00ff0000 ffffff00 ffffffff ffffffff     ................
  40c0b4:	ffffffff ffffffff ffffffff ffffffff     ................
  40c0c4:	ffffffff ffffffff ffffffff ffffffff     ................
  40c0d4:	ffffffff ffffffff ffffffff 00ff0000     ................
  40c0e4:	0000ff00 ff0000ff 00ff0000 0000ff00     ................
  40c0f4:	ff0000ff 00ff0000 0000ff00 ff0000ff     ................
  40c104:	00ff0000 0000ff00 ff0000ff 00ff0000     ................
  40c114:	0000ff00 ff0000ff ffff0000 ffffffff     ................
  40c124:	ffffffff ffffffff ffffffff ffffffff     ................
  40c134:	ffffffff ffffffff ffffffff ffffffff     ................
  40c144:	ffffffff ffffffff ffffffff ffffffff     ................
  40c154:	ffffffff 00ffffff 0000ff00 ff0000ff     ................
  40c164:	00ff0000 0000ff00 ff0000ff 00ff0000     ................
  40c174:	0000ff00 ff0000ff 00ff0000 0000ff00     ................
  40c184:	ff0000ff 00ff0000 0000ff00 ff0000ff     ................
  40c194:	ffffffff ffffffff ffffffff ffffffff     ................
  40c1a4:	ffffffff ffffffff ffffffff ffffffff     ................
  40c1b4:	ffffffff ffffffff ffffffff ffffffff     ................
  40c1c4:	ffffffff ffffffff ffffffff ffffffff     ................
  40c1d4:	ffffffff ff0000ff 00ff0000 0000ff00     ................
  40c1e4:	ff0000ff 00ff0000 0000ff00 ff0000ff     ................
  40c1f4:	00ff0000 0000ff00 ff0000ff 00ff0000     ................
  40c204:	ffffff00 ffffffff ffffffff ffffffff     ................
  40c214:	ffffffff ffffffff ffffffff ffffffff     ................
  40c224:	ffffffff ffffffff ffffffff ffffffff     ................
  40c234:	ffffffff ffffffff ffffffff ffffffff     ................
  40c244:	ffffffff ffffffff ffffffff ffffffff     ................
  40c254:	ffffffff ffffffff ff0000ff 00ff0000     ................
  40c264:	0000ff00 ff0000ff 00ff0000 ffffff00     ................
  40c274:	ffffffff ffffffff ffffffff ffffffff     ................
  40c284:	ffffffff ffffffff ffffffff ffffffff     ................
  40c294:	ffffffff ffffffff ffffffff ffffffff     ................
  40c2a4:	ffffffff ffffffff ffffffff ffffffff     ................
  40c2b4:	ffffffff ffffffff ffffffff ffffffff     ................
  40c2c4:	ffffffff ffffffff ffffffff ffffffff     ................
  40c2d4:	ffffffff ffffffff ffffffff ffffffff     ................
  40c2e4:	ffffffff ffffffff ffffffff ffffffff     ................
  40c2f4:	ffffffff ffffffff ffffffff ffffffff     ................
  40c304:	ffffffff ffffffff ffffffff ffffffff     ................
  40c314:	ffffffff ffffffff ffffffff ffffffff     ................
  40c324:	ffffffff ffffffff ffffffff ffffffff     ................
  40c334:	ffffffff ffffffff ffffffff ffffffff     ................
  40c344:	ffffffff ffffffff ffffffff ffffffff     ................
  40c354:	ffffffff ffffffff ffffffff ffffffff     ................
  40c364:	ffffffff ffffffff ffffffff ffffffff     ................
  40c374:	ffffffff ffffffff ffffffff ffffffff     ................
  40c384:	ffffffff ffffffff ffffffff ffffffff     ................
  40c394:	ffffffff ffffffff ffffffff ffffffff     ................
  40c3a4:	ffffffff ffffffff ffffffff ffffffff     ................
  40c3b4:	ffffffff ffffffff ffffffff ffffffff     ................
  40c3c4:	ffffffff ffffffff ffffffff ffffffff     ................
  40c3d4:	ffffffff ffffffff ffffffff ffffffff     ................
  40c3e4:	ffffffff ffffffff ffffffff ffffffff     ................
  40c3f4:	ffffffff ffffffff ffffffff ffffffff     ................
  40c404:	ffffffff ffffffff ffffffff ffffffff     ................
  40c414:	ffffffff ffffffff ffffffff ffffffff     ................
  40c424:	ffffffff ffffffff ffffffff ffffffff     ................
  40c434:	ffffffff ffffffff ffffffff ffffffff     ................
  40c444:	ffffffff ffffffff ffffffff ffffffff     ................
  40c454:	ffffffff ffffffff ffffffff ffffffff     ................
  40c464:	ffffffff ffffffff ffffffff ffffffff     ................
  40c474:	ffffffff ffffffff ffffffff ffffffff     ................
  40c484:	ffffffff ffffffff ffffffff ffffffff     ................
  40c494:	ffffffff ffffffff ffffffff ffffffff     ................
  40c4a4:	ffffffff ffffffff ffffffff ffffffff     ................
  40c4b4:	ffffffff ffffffff ffffffff ffffffff     ................
  40c4c4:	ffffffff ffffffff ffffffff ffffffff     ................
  40c4d4:	ffffffff ffffffff ffffffff ffffffff     ................
  40c4e4:	ffffffff ffffffff ffffffff ffffffff     ................
  40c4f4:	ffffffff ffffffff ffffffff ffffffff     ................
  40c504:	ffffffff ffffffff ffffffff ffffffff     ................
  40c514:	ffffffff ffffffff ffffffff ffffffff     ................
  40c524:	ffffffff ffffffff ffffffff ffffffff     ................
  40c534:	ffffffff ffffffff ffffffff ffffffff     ................
  40c544:	ffffffff ffffffff ffffffff ffffffff     ................
  40c554:	ffffffff ffffffff ffffffff ffffffff     ................
  40c564:	ffffffff ffffffff ffffffff ffffffff     ................
  40c574:	ffffffff ffffffff ffffffff ffffffff     ................
  40c584:	ffffffff ffffffff ffffffff ffffffff     ................
  40c594:	ffffffff ffffffff ffffffff ffffffff     ................
  40c5a4:	ffffffff ffffffff ffffffff ffffffff     ................
  40c5b4:	ffffffff ffffffff ffffffff ffffffff     ................
  40c5c4:	ffffffff ffffffff ffffffff ffffffff     ................
  40c5d4:	ffffffff ffffffff ffffffff ffffffff     ................
  40c5e4:	ffffffff ffffffff ffffffff ffffffff     ................
  40c5f4:	ffffffff ffffffff ffffffff ffffffff     ................
  40c604:	ffffffff ffffffff ffffffff ffffffff     ................
  40c614:	ffffffff ffffffff ffffffff ffffffff     ................
  40c624:	ffffffff ffffffff ffffffff ffffffff     ................
  40c634:	ffffffff ffffffff ffffffff ffffffff     ................
  40c644:	ffffffff ffffffff ffffffff ffffffff     ................
  40c654:	ffffffff ffffffff ffffffff ffffffff     ................
  40c664:	ffffffff ffffffff ffffffff ffffffff     ................
  40c674:	ffffffff ffffffff ffffffff ffffffff     ................
  40c684:	ffffffff ffffffff ffffffff ffffffff     ................
  40c694:	ffffffff ffffffff ffffffff ffffffff     ................
  40c6a4:	ffffffff ffffffff ffffffff ffffffff     ................
  40c6b4:	ffffffff ffffffff ffffffff ffffffff     ................
  40c6c4:	ffffffff ffffffff ffffffff ffffffff     ................
  40c6d4:	ffffffff ffffffff ffffffff ffffffff     ................
  40c6e4:	ffffffff ffffffff ffffffff ffffffff     ................
  40c6f4:	ffffffff ffffffff ffffffff ffffffff     ................
  40c704:	ffffffff ffffffff ffffffff ffffffff     ................
  40c714:	ffffffff ffffffff ffffffff ffffffff     ................
  40c724:	ffffffff ffffffff ffffffff ffffffff     ................
  40c734:	ffffffff ffffffff ffffffff ffffffff     ................
  40c744:	ffffffff ffffffff ffffffff ffffffff     ................
  40c754:	ffffffff ffffffff ffffffff ffffffff     ................
  40c764:	ffffffff ffffffff ffffffff ffffffff     ................
  40c774:	ffffffff ffffffff ffffffff ffffffff     ................
  40c784:	ffffffff ffffffff ffffffff ffffffff     ................
  40c794:	ffffffff ffffffff ffffffff ffffffff     ................
  40c7a4:	ffffffff ffffffff ffffffff ffffffff     ................
  40c7b4:	ffffffff ffffffff ffffffff ffffffff     ................
  40c7c4:	ffffffff ffffffff ffffffff ffffffff     ................
  40c7d4:	ffffffff ffffffff ffffffff ffffffff     ................
  40c7e4:	ffffffff ffffffff ffffffff ffffffff     ................
  40c7f4:	ffffffff ffffffff ffffffff ffffffff     ................
  40c804:	ffffffff ffffffff ffffffff ffffffff     ................
  40c814:	ffffffff ffffffff ffffffff ffffffff     ................
  40c824:	ffffffff ffffffff ffffffff ffffffff     ................
  40c834:	ffffffff ffffffff ffffffff ffffffff     ................
  40c844:	ffffffff ffffffff ffffffff ffffffff     ................
  40c854:	ffffffff ffffffff ffffffff ffffffff     ................
  40c864:	ffffffff ffffffff ffffffff ffffffff     ................
  40c874:	ffffffff ffffffff ffffffff ffffffff     ................
  40c884:	ffffffff ffffffff ffffffff ffffffff     ................
  40c894:	ffffffff ffffffff ffffffff ffffffff     ................
  40c8a4:	ffffffff ffffffff ffffffff ffffffff     ................
  40c8b4:	ffffffff ffffffff ffffffff ffffffff     ................
  40c8c4:	ffffffff ffffffff ffffffff ffffffff     ................
  40c8d4:	ffffffff ffffffff ffffffff ffffffff     ................
  40c8e4:	ffffffff ffffffff ffffffff ffffffff     ................
  40c8f4:	ffffffff ffffffff ffffffff ffffffff     ................
  40c904:	ffffffff ffffffff ffffffff ffffffff     ................
  40c914:	ffffffff ffffffff ffffffff ffffffff     ................
  40c924:	ffffffff ffffffff ffffffff ffffffff     ................
  40c934:	ffffffff ffffffff ffffffff ffffffff     ................
  40c944:	ffffffff ffffffff ffffffff ffffffff     ................
  40c954:	ffffffff ffffffff ffffffff ffffffff     ................
  40c964:	ffffffff ffffffff ffffffff ffffffff     ................
  40c974:	ffffffff ffffffff ffffffff ffffffff     ................
  40c984:	ffffffff ffffffff ffffffff ffffffff     ................
  40c994:	ffffffff ffffffff ffffffff ffffffff     ................
  40c9a4:	ffffffff ffffffff ffffffff ffffffff     ................
  40c9b4:	ffffffff ffffffff ffffffff ffffffff     ................
  40c9c4:	ffffffff ffffffff ffffffff ffffffff     ................
  40c9d4:	ffffffff ffffffff ffffffff ffffffff     ................
  40c9e4:	ffffffff ffffffff ffffffff ffffffff     ................
  40c9f4:	ffffffff ffffffff ffffffff ffffffff     ................
  40ca04:	ffffffff ffffffff ffffffff ffffffff     ................
  40ca14:	ffffffff ffffffff ffffffff ffffffff     ................

0040ca24 <arial_72_0x33>:
  40ca24:	0040a2c4 00000028 00000054 00000008     ..@.(...T.......

0040ca34 <image_data_arial_72_0x34>:
  40ca34:	ffffffff ffffffff ffffffff ffffffff     ................
  40ca44:	ffffffff ffffffff ffffffff ffffffff     ................
  40ca54:	ffffffff ffffffff ffffffff ffffffff     ................
  40ca64:	ffffffff ffffffff ffffffff ffffffff     ................
  40ca74:	ffffffff ffffffff ffffffff ffffffff     ................
  40ca84:	ffffffff ffffffff ffffffff ffffffff     ................
  40ca94:	ffffffff ffffffff ffffffff ffffffff     ................
  40caa4:	ffffffff ffffffff ffffffff ffffffff     ................
  40cab4:	ffffffff ffffffff ffffffff ffffffff     ................
  40cac4:	ffffffff ffffffff ffffffff ffffffff     ................
  40cad4:	ffffffff ffffffff ffffffff ffffffff     ................
  40cae4:	ffffffff ffffffff ffffffff ffffffff     ................
  40caf4:	ffffffff ffffffff ffffffff ffffffff     ................
  40cb04:	ffffffff ffffffff ffffffff ffffffff     ................
  40cb14:	ffffffff ffffffff ffffffff ffffffff     ................
  40cb24:	ffffffff ffffffff ffffffff ffffffff     ................
  40cb34:	ffffffff ffffffff ffffffff ffffffff     ................
  40cb44:	ffffffff ffffffff ffffffff ffffffff     ................
  40cb54:	ffffffff ffffffff ffffffff ffffffff     ................
  40cb64:	ffffffff ffffffff ffffffff ffffffff     ................
  40cb74:	ffffffff ffffffff ffffffff ffffffff     ................
  40cb84:	ffffffff ffffffff ffffffff ffffffff     ................
  40cb94:	ffffffff ffffffff ffffffff ffffffff     ................
  40cba4:	ffffffff ffffffff ffffffff ffffffff     ................
  40cbb4:	ffffffff ffffffff ffffffff ffffffff     ................
  40cbc4:	ffffffff ffffffff ffffffff ffffffff     ................
  40cbd4:	ffffffff ffffffff ffffffff ffffffff     ................
  40cbe4:	ffffffff ffffffff ffffffff ffffffff     ................
  40cbf4:	ffffffff ffffffff ffffffff ffffffff     ................
  40cc04:	ffffffff ffffffff ffffffff ffffffff     ................
  40cc14:	ffffffff ffffffff ffffffff ffffffff     ................
  40cc24:	ffffffff ffffffff ffffffff ffffffff     ................
  40cc34:	ffffffff ffffffff ffffffff ffffffff     ................
  40cc44:	ffffffff ffffffff ffffffff ffffffff     ................
  40cc54:	ffffffff ffffffff ffffffff ffffffff     ................
  40cc64:	ffffffff ffffffff ffffffff ffffffff     ................
  40cc74:	ffffffff ffffffff ffffffff ffffffff     ................
  40cc84:	ffffffff ffffffff ffffffff ffffffff     ................
  40cc94:	ffffffff ffffffff ffffffff ffffffff     ................
  40cca4:	ffffffff ffffffff ffffffff ffffffff     ................
  40ccb4:	ffffffff ffffffff ffffffff ffffffff     ................
  40ccc4:	ffffffff ffffffff ffffffff ffffffff     ................
  40ccd4:	ffffffff ffffffff ffffffff ffffffff     ................
  40cce4:	ffffffff ffffffff ffffffff ffffffff     ................
  40ccf4:	ffffffff ffffffff ffffffff ffffffff     ................
  40cd04:	ffffffff ffffffff ffffffff ffffffff     ................
  40cd14:	ffffffff ffffffff ffffffff ffffffff     ................
  40cd24:	ffffffff ffffffff ffffffff ffffffff     ................
  40cd34:	ffffffff ffffffff ffffffff ffffffff     ................
  40cd44:	ffffffff ffffffff ffffffff ffffffff     ................
  40cd54:	ffffffff ffffffff ffffffff ffffffff     ................
  40cd64:	ffffffff ffffffff ffffffff ffffffff     ................
  40cd74:	ffffffff ffffffff ffffffff ffffffff     ................
  40cd84:	ffffffff ffffffff ffffffff ffffffff     ................
  40cd94:	ffffffff ffffffff ffffffff ffffffff     ................
  40cda4:	ffffffff ffffffff ffffffff ffffffff     ................
  40cdb4:	ffffffff ffffffff ffffffff ffffffff     ................
  40cdc4:	ffffffff ffffffff ffffffff ffffffff     ................
  40cdd4:	ffffffff ffffffff ffffffff ffffffff     ................
  40cde4:	ffffffff ffffffff ffffffff ffffffff     ................
  40cdf4:	ffffffff ffffffff ffffffff ffffffff     ................
  40ce04:	ffffffff ffffffff ffffffff ffffffff     ................
  40ce14:	ffffffff ffffffff ffffffff ffffffff     ................
  40ce24:	ffffffff ffffffff ffffffff ffffffff     ................
  40ce34:	ffffffff ffffffff ffffffff ffffffff     ................
  40ce44:	ffffffff ffffffff ffffffff ffffffff     ................
  40ce54:	ffffffff ffffffff ffffffff ffffffff     ................
  40ce64:	ffffffff ffffffff ffffffff ffffffff     ................
  40ce74:	ffffffff ffffffff ffffffff ffffffff     ................
  40ce84:	ffffffff ffffffff ffffffff ffffffff     ................
  40ce94:	ffffffff ffffffff ffffffff ffffffff     ................
  40cea4:	ffffffff ffffffff ffffffff ffffffff     ................
  40ceb4:	ffffffff ffffffff ffffffff ffffffff     ................
  40cec4:	ffffffff ffffffff ffffffff ffffffff     ................
  40ced4:	ffffffff ffffffff ffffffff ffffffff     ................
  40cee4:	ffffffff ffffffff ffffffff ffffffff     ................
  40cef4:	ffffffff ffffffff ffffffff ffffffff     ................
  40cf04:	ffffffff ffffffff ffffffff ffffffff     ................
  40cf14:	ffffffff ffffffff ffffffff ffffffff     ................
  40cf24:	ffffffff ffffffff ffffffff ffffffff     ................
  40cf34:	ffffffff ffffffff ffffffff ffffffff     ................
  40cf44:	ffffffff ffffffff ffffffff ffffffff     ................
  40cf54:	ffffffff ffffffff ffffffff ffffffff     ................
  40cf64:	ffffffff ffffffff ffffffff ffffffff     ................
  40cf74:	ffffffff ffffffff ffffffff ffffffff     ................
  40cf84:	ffffffff ffffffff ffffffff ffffffff     ................
  40cf94:	ffffffff ffffffff ffffffff ffffffff     ................
  40cfa4:	ffffffff ffffffff ffffffff ffffffff     ................
  40cfb4:	ffffffff ffffffff ffffffff ffffffff     ................
  40cfc4:	ffffffff ffffffff ffffffff ffffffff     ................
  40cfd4:	ffffffff ffffffff ffffffff ffffffff     ................
  40cfe4:	ffffffff ffffffff ffffffff ffffffff     ................
  40cff4:	ffffffff ffffffff ffffffff ffffffff     ................
  40d004:	ffffffff ffffffff ffffffff ffffffff     ................
  40d014:	ffffffff ffffffff ffffffff ffffffff     ................
  40d024:	ffffffff ffffffff ffffffff ffffffff     ................
  40d034:	ffffffff ffffffff ffffffff ffffffff     ................
  40d044:	ffffffff ffffffff ffffffff ffffffff     ................
  40d054:	ffffffff ffffffff ffffffff ffffffff     ................
  40d064:	ffffffff ffffffff ffffffff ffffffff     ................
  40d074:	ffffffff ffffffff ffffffff ffffffff     ................
  40d084:	ffffffff ffffffff ffffffff ffffffff     ................
  40d094:	ffffffff ffffffff ffffffff ffffffff     ................
  40d0a4:	ffffffff ffffffff ffffffff ffffffff     ................
  40d0b4:	ffffffff ffffffff ffffffff ffffffff     ................
  40d0c4:	ffffffff ffffffff ffffffff ffffffff     ................
  40d0d4:	ffffffff ffffffff ffffffff ffffffff     ................
  40d0e4:	ffffffff ffffffff ffffffff ffffffff     ................
  40d0f4:	ffffffff ffffffff ffffffff ffffffff     ................
  40d104:	ffffffff ffffffff ffffffff ffffffff     ................
  40d114:	ffffffff ffffffff ffffffff ffffffff     ................
  40d124:	ffffffff ffffffff ffffffff ffffffff     ................
  40d134:	ffffffff ffffffff ffffffff ffffffff     ................
  40d144:	ffffffff ffffffff ffffffff ffffffff     ................
  40d154:	ffffffff ffffffff ffffffff ffffffff     ................
  40d164:	ffffffff ffffffff ffffffff ffffffff     ................
  40d174:	ffffffff ffffffff ffffffff ffffffff     ................
  40d184:	ff0000ff 00ff0000 0000ff00 ff0000ff     ................
  40d194:	00ff0000 0000ff00 ffffffff ffffffff     ................
  40d1a4:	ffffffff ffffffff ffffffff ffffffff     ................
  40d1b4:	ffffffff ffffffff ffffffff ffffffff     ................
  40d1c4:	ffffffff ffffffff ffffffff ffffffff     ................
  40d1d4:	ffffffff ffffffff ffffffff ffffffff     ................
  40d1e4:	ffffffff ffffffff ffffffff ffffffff     ................
  40d1f4:	ffffffff 0000ffff ff0000ff 00ff0000     ................
  40d204:	0000ff00 ff0000ff 00ff0000 0000ff00     ................
  40d214:	ffffffff ffffffff ffffffff ffffffff     ................
  40d224:	ffffffff ffffffff ffffffff ffffffff     ................
  40d234:	ffffffff ffffffff ffffffff ffffffff     ................
  40d244:	ffffffff ffffffff ffffffff ffffffff     ................
  40d254:	ffffffff ffffffff ffffffff ffffffff     ................
  40d264:	ffffffff ffffffff 00ffffff 0000ff00     ................
  40d274:	ff0000ff 00ff0000 0000ff00 ff0000ff     ................
  40d284:	00ff0000 0000ff00 ffffffff ffffffff     ................
  40d294:	ffffffff ffffffff ffffffff ffffffff     ................
  40d2a4:	ffffffff ffffffff ffffffff ffffffff     ................
  40d2b4:	ffffffff ffffffff ffffffff ffffffff     ................
  40d2c4:	ffffffff ffffffff ffffffff ffffffff     ................
  40d2d4:	ffffffff ffffffff ffffffff ffffffff     ................
  40d2e4:	00ff0000 0000ff00 ff0000ff 00ff0000     ................
  40d2f4:	0000ff00 ff0000ff 00ff0000 0000ff00     ................
  40d304:	ffffffff ffffffff ffffffff ffffffff     ................
  40d314:	ffffffff ffffffff ffffffff ffffffff     ................
  40d324:	ffffffff ffffffff ffffffff ffffffff     ................
  40d334:	ffffffff ffffffff ffffffff ffffffff     ................
  40d344:	ffffffff ffffffff ffffffff ffffffff     ................
  40d354:	ffffffff ffffffff 00ff0000 0000ff00     ................
  40d364:	ff0000ff 00ff0000 0000ff00 ff0000ff     ................
  40d374:	00ff0000 0000ff00 ffffffff ffffffff     ................
  40d384:	ffffffff ffffffff ffffffff ffffffff     ................
  40d394:	ffffffff ffffffff ffffffff ffffffff     ................
  40d3a4:	ffffffff ffffffff ffffffff ffffffff     ................
  40d3b4:	ffffffff ffffffff ffffffff ffffffff     ................
  40d3c4:	ffffffff ffffffff ffffffff ff0000ff     ................
  40d3d4:	00ff0000 0000ff00 ff0000ff 00ff0000     ................
  40d3e4:	0000ff00 ff0000ff 00ff0000 0000ff00     ................
  40d3f4:	ffffffff ffffffff ffffffff ffffffff     ................
  40d404:	ffffffff ffffffff ffffffff ffffffff     ................
  40d414:	ffffffff ffffffff ffffffff ffffffff     ................
  40d424:	ffffffff ffffffff ffffffff ffffffff     ................
  40d434:	ffffffff ffffffff ffffffff ffffffff     ................
  40d444:	0000ffff ff0000ff 00ff0000 0000ff00     ................
  40d454:	ff0000ff 00ff0000 0000ff00 ff0000ff     ................
  40d464:	00ff0000 0000ff00 ffffffff ffffffff     ................
  40d474:	ffffffff ffffffff ffffffff ffffffff     ................
  40d484:	ffffffff ffffffff ffffffff ffffffff     ................
  40d494:	ffffffff ffffffff ffffffff ffffffff     ................
  40d4a4:	ffffffff ffffffff ffffffff ffffffff     ................
  40d4b4:	ffffffff ffffffff 0000ffff ff0000ff     ................
  40d4c4:	00ff0000 0000ff00 ff0000ff 00ff0000     ................
  40d4d4:	0000ff00 ff0000ff 00ff0000 0000ff00     ................
  40d4e4:	ffffffff ffffffff ffffffff ffffffff     ................
  40d4f4:	ffffffff ffffffff ffffffff ffffffff     ................
  40d504:	ffffffff ffffffff ffffffff ffffffff     ................
  40d514:	ffffffff ffffffff ffffffff ffffffff     ................
  40d524:	ffffffff ffffffff ffffffff 00ffffff     ................
  40d534:	0000ff00 ff0000ff 00ff0000 0000ff00     ................
  40d544:	ff0000ff 00ff0000 0000ff00 ff0000ff     ................
  40d554:	00ff0000 0000ff00 ffffffff ffffffff     ................
  40d564:	ffffffff ffffffff ffffffff ffffffff     ................
  40d574:	ffffffff ffffffff ffffffff ffffffff     ................
  40d584:	ffffffff ffffffff ffffffff ffffffff     ................
  40d594:	ffffffff ffffffff ffffffff ffffffff     ................
  40d5a4:	ffffffff 00ff0000 0000ff00 ff0000ff     ................
  40d5b4:	00ff0000 0000ff00 ff0000ff 00ff0000     ................
  40d5c4:	0000ff00 ff0000ff 00ff0000 0000ff00     ................
  40d5d4:	ffffffff ffffffff ffffffff ffffffff     ................
  40d5e4:	ffffffff ffffffff ffffffff ffffffff     ................
  40d5f4:	ffffffff ffffffff ffffffff ffffffff     ................
  40d604:	ffffffff ffffffff ffffffff ffffffff     ................
  40d614:	ffffffff ffffffff ffffffff 00ff0000     ................
  40d624:	0000ff00 ff0000ff 00ff0000 0000ff00     ................
  40d634:	ff0000ff 00ff0000 0000ff00 ff0000ff     ................
  40d644:	00ff0000 0000ff00 ffffffff ffffffff     ................
  40d654:	ffffffff ffffffff ffffffff ffffffff     ................
  40d664:	ffffffff ffffffff ffffffff ffffffff     ................
  40d674:	ffffffff ffffffff ffffffff ffffffff     ................
  40d684:	ffffffff ffffffff ffffffff ffffffff     ................
  40d694:	ff0000ff 00ff0000 0000ff00 ff0000ff     ................
  40d6a4:	00ff0000 0000ff00 ff0000ff 00ff0000     ................
  40d6b4:	0000ff00 ff0000ff 00ff0000 0000ff00     ................
  40d6c4:	ffffffff ffffffff ffffffff ffffffff     ................
  40d6d4:	ffffffff ffffffff ffffffff ffffffff     ................
  40d6e4:	ffffffff ffffffff ffffffff ffffffff     ................
  40d6f4:	ffffffff ffffffff ffffffff ffffffff     ................
  40d704:	ffffffff 0000ffff ff0000ff 00ff0000     ................
  40d714:	0000ff00 ff0000ff 00ff0000 0000ff00     ................
  40d724:	ff0000ff 00ff0000 0000ff00 ff0000ff     ................
  40d734:	00ff0000 0000ff00 ffffffff ffffffff     ................
  40d744:	ffffffff ffffffff ffffffff ffffffff     ................
  40d754:	ffffffff ffffffff ffffffff ffffffff     ................
  40d764:	ffffffff ffffffff ffffffff ffffffff     ................
  40d774:	ffffffff ffffffff ffffffff 0000ffff     ................
  40d784:	ff0000ff 00ff0000 0000ff00 ff0000ff     ................
  40d794:	00ff0000 0000ff00 ff0000ff 00ff0000     ................
  40d7a4:	0000ff00 ff0000ff 00ff0000 0000ff00     ................
  40d7b4:	ffffffff ffffffff ffffffff ffffffff     ................
  40d7c4:	ffffffff ffffffff ffffffff ffffffff     ................
  40d7d4:	ffffffff ffffffff ffffffff ffffffff     ................
  40d7e4:	ffffffff ffffffff ffffffff ffffffff     ................
  40d7f4:	00ffffff 0000ff00 ff0000ff 00ff0000     ................
  40d804:	0000ff00 ff0000ff 00ff0000 0000ff00     ................
  40d814:	ff0000ff 00ff0000 0000ff00 ff0000ff     ................
  40d824:	00ff0000 0000ff00 ffffffff ffffffff     ................
  40d834:	ffffffff ffffffff ffffffff ffffffff     ................
  40d844:	ffffffff ffffffff ffffffff ffffffff     ................
  40d854:	ffffffff ffffffff ffffffff ffffffff     ................
  40d864:	ffffffff ffffffff 00ff0000 0000ff00     ................
  40d874:	ff0000ff 00ff0000 0000ff00 ff0000ff     ................
  40d884:	00ff0000 0000ff00 ff0000ff 00ff0000     ................
  40d894:	0000ff00 ff0000ff 00ff0000 0000ff00     ................
  40d8a4:	ffffffff ffffffff ffffffff ffffffff     ................
  40d8b4:	ffffffff ffffffff ffffffff ffffffff     ................
  40d8c4:	ffffffff ffffffff ffffffff ffffffff     ................
  40d8d4:	ffffffff ffffffff ffffffff ffffffff     ................
  40d8e4:	00ff0000 0000ff00 ff0000ff 00ff0000     ................
  40d8f4:	0000ff00 ff0000ff 00ff0000 0000ff00     ................
  40d904:	ff0000ff 00ff0000 0000ff00 ff0000ff     ................
  40d914:	00ff0000 0000ff00 ffffffff ffffffff     ................
  40d924:	ffffffff ffffffff ffffffff ffffffff     ................
  40d934:	ffffffff ffffffff ffffffff ffffffff     ................
  40d944:	ffffffff ffffffff ffffffff ffffffff     ................
  40d954:	ffffffff ff0000ff 00ff0000 0000ff00     ................
  40d964:	ff0000ff 00ff0000 0000ff00 ff0000ff     ................
  40d974:	00ffffff 0000ff00 ff0000ff 00ff0000     ................
  40d984:	0000ff00 ff0000ff 00ff0000 0000ff00     ................
  40d994:	ffffffff ffffffff ffffffff ffffffff     ................
  40d9a4:	ffffffff ffffffff ffffffff ffffffff     ................
  40d9b4:	ffffffff ffffffff ffffffff ffffffff     ................
  40d9c4:	ffffffff ffffffff 0000ffff ff0000ff     ................
  40d9d4:	00ff0000 0000ff00 ff0000ff 00ff0000     ................
  40d9e4:	0000ff00 ffffffff 00ffffff 0000ff00     ................
  40d9f4:	ff0000ff 00ff0000 0000ff00 ff0000ff     ................
  40da04:	00ff0000 0000ff00 ffffffff ffffffff     ................
  40da14:	ffffffff ffffffff ffffffff ffffffff     ................
  40da24:	ffffffff ffffffff ffffffff ffffffff     ................
  40da34:	ffffffff ffffffff ffffffff ffffffff     ................
  40da44:	0000ffff ff0000ff 00ff0000 0000ff00     ................
  40da54:	ff0000ff 00ff0000 0000ff00 ffffffff     ................
  40da64:	00ffffff 0000ff00 ff0000ff 00ff0000     ................
  40da74:	0000ff00 ff0000ff 00ff0000 0000ff00     ................
  40da84:	ffffffff ffffffff ffffffff ffffffff     ................
  40da94:	ffffffff ffffffff ffffffff ffffffff     ................
  40daa4:	ffffffff ffffffff ffffffff ffffffff     ................
  40dab4:	ffffffff 00ffffff 0000ff00 ff0000ff     ................
  40dac4:	00ff0000 0000ff00 ff0000ff 00ff0000     ................
  40dad4:	ffffff00 ffffffff 00ffffff 0000ff00     ................
  40dae4:	ff0000ff 00ff0000 0000ff00 ff0000ff     ................
  40daf4:	00ff0000 0000ff00 ffffffff ffffffff     ................
  40db04:	ffffffff ffffffff ffffffff ffffffff     ................
  40db14:	ffffffff ffffffff ffffffff ffffffff     ................
  40db24:	ffffffff ffffffff ffffffff 00ff0000     ................
  40db34:	0000ff00 ff0000ff 00ff0000 0000ff00     ................
  40db44:	ff0000ff ffff0000 ffffffff ffffffff     ................
  40db54:	00ffffff 0000ff00 ff0000ff 00ff0000     ................
  40db64:	0000ff00 ff0000ff 00ff0000 0000ff00     ................
  40db74:	ffffffff ffffffff ffffffff ffffffff     ................
  40db84:	ffffffff ffffffff ffffffff ffffffff     ................
  40db94:	ffffffff ffffffff ffffffff ffffffff     ................
  40dba4:	ffffffff 00ff0000 0000ff00 ff0000ff     ................
  40dbb4:	00ff0000 0000ff00 ff0000ff ffff0000     ................
  40dbc4:	ffffffff ffffffff 00ffffff 0000ff00     ................
  40dbd4:	ff0000ff 00ff0000 0000ff00 ff0000ff     ................
  40dbe4:	00ff0000 0000ff00 ffffffff ffffffff     ................
  40dbf4:	ffffffff ffffffff ffffffff ffffffff     ................
  40dc04:	ffffffff ffffffff ffffffff ffffffff     ................
  40dc14:	ffffffff ffffffff ff0000ff 00ff0000     ................
  40dc24:	0000ff00 ff0000ff 00ff0000 0000ff00     ................
  40dc34:	ff0000ff ffffffff ffffffff ffffffff     ................
  40dc44:	00ffffff 0000ff00 ff0000ff 00ff0000     ................
  40dc54:	0000ff00 ff0000ff 00ff0000 0000ff00     ................
  40dc64:	ffffffff ffffffff ffffffff ffffffff     ................
  40dc74:	ffffffff ffffffff ffffffff ffffffff     ................
  40dc84:	ffffffff ffffffff ffffffff 0000ffff     ................
  40dc94:	ff0000ff 00ff0000 0000ff00 ff0000ff     ................
  40dca4:	00ff0000 0000ff00 ffffffff ffffffff     ................
  40dcb4:	ffffffff ffffffff 00ffffff 0000ff00     ................
  40dcc4:	ff0000ff 00ff0000 0000ff00 ff0000ff     ................
  40dcd4:	00ff0000 0000ff00 ffffffff ffffffff     ................
  40dce4:	ffffffff ffffffff ffffffff ffffffff     ................
  40dcf4:	ffffffff ffffffff ffffffff ffffffff     ................
  40dd04:	00ffffff 0000ff00 ff0000ff 00ff0000     ................
  40dd14:	0000ff00 ff0000ff 00ff0000 0000ff00     ................
  40dd24:	ffffffff ffffffff ffffffff ffffffff     ................
  40dd34:	00ffffff 0000ff00 ff0000ff 00ff0000     ................
  40dd44:	0000ff00 ff0000ff 00ff0000 0000ff00     ................
  40dd54:	ffffffff ffffffff ffffffff ffffffff     ................
  40dd64:	ffffffff ffffffff ffffffff ffffffff     ................
  40dd74:	ffffffff ffffffff 00ffffff 0000ff00     ................
  40dd84:	ff0000ff 00ff0000 0000ff00 ff0000ff     ................
  40dd94:	00ff0000 ffffff00 ffffffff ffffffff     ................
  40dda4:	ffffffff ffffffff 00ffffff 0000ff00     ................
  40ddb4:	ff0000ff 00ff0000 0000ff00 ff0000ff     ................
  40ddc4:	00ff0000 0000ff00 ffffffff ffffffff     ................
  40ddd4:	ffffffff ffffffff ffffffff ffffffff     ................
  40dde4:	ffffffff ffffffff ffffffff ffffffff     ................
  40ddf4:	00ff0000 0000ff00 ff0000ff 00ff0000     ................
  40de04:	0000ff00 ff0000ff ffff0000 ffffffff     ................
  40de14:	ffffffff ffffffff ffffffff ffffffff     ................
  40de24:	00ffffff 0000ff00 ff0000ff 00ff0000     ................
  40de34:	0000ff00 ff0000ff 00ff0000 0000ff00     ................
  40de44:	ffffffff ffffffff ffffffff ffffffff     ................
  40de54:	ffffffff ffffffff ffffffff ffffffff     ................
  40de64:	ffffffff ff0000ff 00ff0000 0000ff00     ................
  40de74:	ff0000ff 00ff0000 0000ff00 ff0000ff     ................
  40de84:	ffff0000 ffffffff ffffffff ffffffff     ................
  40de94:	ffffffff ffffffff 00ffffff 0000ff00     ................
  40dea4:	ff0000ff 00ff0000 0000ff00 ff0000ff     ................
  40deb4:	00ff0000 0000ff00 ffffffff ffffffff     ................
  40dec4:	ffffffff ffffffff ffffffff ffffffff     ................
  40ded4:	ffffffff ffffffff ffffffff ff0000ff     ................
  40dee4:	00ff0000 0000ff00 ff0000ff 00ff0000     ................
  40def4:	0000ff00 ff0000ff ffffffff ffffffff     ................
  40df04:	ffffffff ffffffff ffffffff ffffffff     ................
  40df14:	00ffffff 0000ff00 ff0000ff 00ff0000     ................
  40df24:	0000ff00 ff0000ff 00ff0000 0000ff00     ................
  40df34:	ffffffff ffffffff ffffffff ffffffff     ................
  40df44:	ffffffff ffffffff ffffffff ffffffff     ................
  40df54:	0000ffff ff0000ff 00ff0000 0000ff00     ................
  40df64:	ff0000ff 00ff0000 0000ff00 ffffffff     ................
  40df74:	ffffffff ffffffff ffffffff ffffffff     ................
  40df84:	ffffffff ffffffff 00ffffff 0000ff00     ................
  40df94:	ff0000ff 00ff0000 0000ff00 ff0000ff     ................
  40dfa4:	00ff0000 0000ff00 ffffffff ffffffff     ................
  40dfb4:	ffffffff ffffffff ffffffff ffffffff     ................
  40dfc4:	ffffffff 00ffffff 0000ff00 ff0000ff     ................
  40dfd4:	00ff0000 0000ff00 ff0000ff 00ff0000     ................
  40dfe4:	0000ff00 ffffffff ffffffff ffffffff     ................
  40dff4:	ffffffff ffffffff ffffffff ffffffff     ................
  40e004:	00ffffff 0000ff00 ff0000ff 00ff0000     ................
  40e014:	0000ff00 ff0000ff 00ff0000 0000ff00     ................
  40e024:	ffffffff ffffffff ffffffff ffffffff     ................
  40e034:	ffffffff ffffffff ffffffff 00ffffff     ................
  40e044:	0000ff00 ff0000ff 00ff0000 0000ff00     ................
  40e054:	ff0000ff 00ff0000 ffffff00 ffffffff     ................
  40e064:	ffffffff ffffffff ffffffff ffffffff     ................
  40e074:	ffffffff ffffffff 00ffffff 0000ff00     ................
  40e084:	ff0000ff 00ff0000 0000ff00 ff0000ff     ................
  40e094:	00ff0000 0000ff00 ffffffff ffffffff     ................
  40e0a4:	ffffffff ffffffff ffffffff ffffffff     ................
  40e0b4:	ffffffff 00ff0000 0000ff00 ff0000ff     ................
  40e0c4:	00ff0000 0000ff00 ff0000ff 00ff0000     ................
  40e0d4:	0000ff00 ff0000ff 00ff0000 0000ff00     ................
  40e0e4:	ff0000ff 00ff0000 0000ff00 ff0000ff     ................
  40e0f4:	00ff0000 0000ff00 ff0000ff 00ff0000     ................
  40e104:	0000ff00 ff0000ff 00ff0000 0000ff00     ................
  40e114:	ff0000ff 00ff0000 0000ff00 ff0000ff     ................
  40e124:	ffff0000 ffffffff ffffffff 00ff0000     ................
  40e134:	0000ff00 ff0000ff 00ff0000 0000ff00     ................
  40e144:	ff0000ff 00ff0000 0000ff00 ff0000ff     ................
  40e154:	00ff0000 0000ff00 ff0000ff 00ff0000     ................
  40e164:	0000ff00 ff0000ff 00ff0000 0000ff00     ................
  40e174:	ff0000ff 00ff0000 0000ff00 ff0000ff     ................
  40e184:	00ff0000 0000ff00 ff0000ff 00ff0000     ................
  40e194:	0000ff00 ff0000ff ffff0000 ffffffff     ................
  40e1a4:	ffffffff 00ff0000 0000ff00 ff0000ff     ................
  40e1b4:	00ff0000 0000ff00 ff0000ff 00ff0000     ................
  40e1c4:	0000ff00 ff0000ff 00ff0000 0000ff00     ................
  40e1d4:	ff0000ff 00ff0000 0000ff00 ff0000ff     ................
  40e1e4:	00ff0000 0000ff00 ff0000ff 00ff0000     ................
  40e1f4:	0000ff00 ff0000ff 00ff0000 0000ff00     ................
  40e204:	ff0000ff 00ff0000 0000ff00 ff0000ff     ................
  40e214:	ffff0000 ffffffff ffffffff 00ff0000     ................
  40e224:	0000ff00 ff0000ff 00ff0000 0000ff00     ................
  40e234:	ff0000ff 00ff0000 0000ff00 ff0000ff     ................
  40e244:	00ff0000 0000ff00 ff0000ff 00ff0000     ................
  40e254:	0000ff00 ff0000ff 00ff0000 0000ff00     ................
  40e264:	ff0000ff 00ff0000 0000ff00 ff0000ff     ................
  40e274:	00ff0000 0000ff00 ff0000ff 00ff0000     ................
  40e284:	0000ff00 ff0000ff ffff0000 ffffffff     ................
  40e294:	ffffffff 00ff0000 0000ff00 ff0000ff     ................
  40e2a4:	00ff0000 0000ff00 ff0000ff 00ff0000     ................
  40e2b4:	0000ff00 ff0000ff 00ff0000 0000ff00     ................
  40e2c4:	ff0000ff 00ff0000 0000ff00 ff0000ff     ................
  40e2d4:	00ff0000 0000ff00 ff0000ff 00ff0000     ................
  40e2e4:	0000ff00 ff0000ff 00ff0000 0000ff00     ................
  40e2f4:	ff0000ff 00ff0000 0000ff00 ff0000ff     ................
  40e304:	ffff0000 ffffffff ffffffff 00ff0000     ................
  40e314:	0000ff00 ff0000ff 00ff0000 0000ff00     ................
  40e324:	ff0000ff 00ff0000 0000ff00 ff0000ff     ................
  40e334:	00ff0000 0000ff00 ff0000ff 00ff0000     ................
  40e344:	0000ff00 ff0000ff 00ff0000 0000ff00     ................
  40e354:	ff0000ff 00ff0000 0000ff00 ff0000ff     ................
  40e364:	00ff0000 0000ff00 ff0000ff 00ff0000     ................
  40e374:	0000ff00 ff0000ff ffff0000 ffffffff     ................
  40e384:	ffffffff 00ff0000 0000ff00 ff0000ff     ................
  40e394:	00ff0000 0000ff00 ff0000ff 00ff0000     ................
  40e3a4:	0000ff00 ff0000ff 00ff0000 0000ff00     ................
  40e3b4:	ff0000ff 00ff0000 0000ff00 ff0000ff     ................
  40e3c4:	00ff0000 0000ff00 ff0000ff 00ff0000     ................
  40e3d4:	0000ff00 ff0000ff 00ff0000 0000ff00     ................
  40e3e4:	ff0000ff 00ff0000 0000ff00 ff0000ff     ................
  40e3f4:	ffff0000 ffffffff ffffffff 00ff0000     ................
  40e404:	0000ff00 ff0000ff 00ff0000 0000ff00     ................
  40e414:	ff0000ff 00ff0000 0000ff00 ff0000ff     ................
  40e424:	00ff0000 0000ff00 ff0000ff 00ff0000     ................
  40e434:	0000ff00 ff0000ff 00ff0000 0000ff00     ................
  40e444:	ff0000ff 00ff0000 0000ff00 ff0000ff     ................
  40e454:	00ff0000 0000ff00 ff0000ff 00ff0000     ................
  40e464:	0000ff00 ff0000ff ffff0000 ffffffff     ................
  40e474:	ffffffff 00ff0000 0000ff00 ff0000ff     ................
  40e484:	00ff0000 0000ff00 ff0000ff 00ff0000     ................
  40e494:	0000ff00 ff0000ff 00ff0000 0000ff00     ................
  40e4a4:	ff0000ff 00ff0000 0000ff00 ff0000ff     ................
  40e4b4:	00ff0000 0000ff00 ff0000ff 00ff0000     ................
  40e4c4:	0000ff00 ff0000ff 00ff0000 0000ff00     ................
  40e4d4:	ff0000ff 00ff0000 0000ff00 ff0000ff     ................
  40e4e4:	ffff0000 ffffffff ffffffff ffffffff     ................
  40e4f4:	ffffffff ffffffff ffffffff ffffffff     ................
  40e504:	ffffffff ffffffff ffffffff ffffffff     ................
  40e514:	ffffffff ffffffff ffffffff ffffffff     ................
  40e524:	ffffffff ffffffff 00ffffff 0000ff00     ................
  40e534:	ff0000ff 00ff0000 0000ff00 ff0000ff     ................
  40e544:	00ff0000 0000ff00 ffffffff ffffffff     ................
  40e554:	ffffffff ffffffff ffffffff ffffffff     ................
  40e564:	ffffffff ffffffff ffffffff ffffffff     ................
  40e574:	ffffffff ffffffff ffffffff ffffffff     ................
  40e584:	ffffffff ffffffff ffffffff ffffffff     ................
  40e594:	ffffffff ffffffff ffffffff ffffffff     ................
  40e5a4:	00ffffff 0000ff00 ff0000ff 00ff0000     ................
  40e5b4:	0000ff00 ff0000ff 00ff0000 0000ff00     ................
  40e5c4:	ffffffff ffffffff ffffffff ffffffff     ................
  40e5d4:	ffffffff ffffffff ffffffff ffffffff     ................
  40e5e4:	ffffffff ffffffff ffffffff ffffffff     ................
  40e5f4:	ffffffff ffffffff ffffffff ffffffff     ................
  40e604:	ffffffff ffffffff ffffffff ffffffff     ................
  40e614:	ffffffff ffffffff 00ffffff 0000ff00     ................
  40e624:	ff0000ff 00ff0000 0000ff00 ff0000ff     ................
  40e634:	00ff0000 0000ff00 ffffffff ffffffff     ................
  40e644:	ffffffff ffffffff ffffffff ffffffff     ................
  40e654:	ffffffff ffffffff ffffffff ffffffff     ................
  40e664:	ffffffff ffffffff ffffffff ffffffff     ................
  40e674:	ffffffff ffffffff ffffffff ffffffff     ................
  40e684:	ffffffff ffffffff ffffffff ffffffff     ................
  40e694:	00ffffff 0000ff00 ff0000ff 00ff0000     ................
  40e6a4:	0000ff00 ff0000ff 00ff0000 0000ff00     ................
  40e6b4:	ffffffff ffffffff ffffffff ffffffff     ................
  40e6c4:	ffffffff ffffffff ffffffff ffffffff     ................
  40e6d4:	ffffffff ffffffff ffffffff ffffffff     ................
  40e6e4:	ffffffff ffffffff ffffffff ffffffff     ................
  40e6f4:	ffffffff ffffffff ffffffff ffffffff     ................
  40e704:	ffffffff ffffffff 00ffffff 0000ff00     ................
  40e714:	ff0000ff 00ff0000 0000ff00 ff0000ff     ................
  40e724:	00ff0000 0000ff00 ffffffff ffffffff     ................
  40e734:	ffffffff ffffffff ffffffff ffffffff     ................
  40e744:	ffffffff ffffffff ffffffff ffffffff     ................
  40e754:	ffffffff ffffffff ffffffff ffffffff     ................
  40e764:	ffffffff ffffffff ffffffff ffffffff     ................
  40e774:	ffffffff ffffffff ffffffff ffffffff     ................
  40e784:	00ffffff 0000ff00 ff0000ff 00ff0000     ................
  40e794:	0000ff00 ff0000ff 00ff0000 0000ff00     ................
  40e7a4:	ffffffff ffffffff ffffffff ffffffff     ................
  40e7b4:	ffffffff ffffffff ffffffff ffffffff     ................
  40e7c4:	ffffffff ffffffff ffffffff ffffffff     ................
  40e7d4:	ffffffff ffffffff ffffffff ffffffff     ................
  40e7e4:	ffffffff ffffffff ffffffff ffffffff     ................
  40e7f4:	ffffffff ffffffff 00ffffff 0000ff00     ................
  40e804:	ff0000ff 00ff0000 0000ff00 ff0000ff     ................
  40e814:	00ff0000 0000ff00 ffffffff ffffffff     ................
  40e824:	ffffffff ffffffff ffffffff ffffffff     ................
  40e834:	ffffffff ffffffff ffffffff ffffffff     ................
  40e844:	ffffffff ffffffff ffffffff ffffffff     ................
  40e854:	ffffffff ffffffff ffffffff ffffffff     ................
  40e864:	ffffffff ffffffff ffffffff ffffffff     ................
  40e874:	00ffffff 0000ff00 ff0000ff 00ff0000     ................
  40e884:	0000ff00 ff0000ff 00ff0000 0000ff00     ................
  40e894:	ffffffff ffffffff ffffffff ffffffff     ................
  40e8a4:	ffffffff ffffffff ffffffff ffffffff     ................
  40e8b4:	ffffffff ffffffff ffffffff ffffffff     ................
  40e8c4:	ffffffff ffffffff ffffffff ffffffff     ................
  40e8d4:	ffffffff ffffffff ffffffff ffffffff     ................
  40e8e4:	ffffffff ffffffff 00ffffff 0000ff00     ................
  40e8f4:	ff0000ff 00ff0000 0000ff00 ff0000ff     ................
  40e904:	00ff0000 0000ff00 ffffffff ffffffff     ................
  40e914:	ffffffff ffffffff ffffffff ffffffff     ................
  40e924:	ffffffff ffffffff ffffffff ffffffff     ................
  40e934:	ffffffff ffffffff ffffffff ffffffff     ................
  40e944:	ffffffff ffffffff ffffffff ffffffff     ................
  40e954:	ffffffff ffffffff ffffffff ffffffff     ................
  40e964:	00ffffff 0000ff00 ff0000ff 00ff0000     ................
  40e974:	0000ff00 ff0000ff 00ff0000 0000ff00     ................
  40e984:	ffffffff ffffffff ffffffff ffffffff     ................
  40e994:	ffffffff ffffffff ffffffff ffffffff     ................
  40e9a4:	ffffffff ffffffff ffffffff ffffffff     ................
  40e9b4:	ffffffff ffffffff ffffffff ffffffff     ................
  40e9c4:	ffffffff ffffffff ffffffff ffffffff     ................
  40e9d4:	ffffffff ffffffff ffffffff ffffffff     ................
  40e9e4:	ffffffff ffffffff ffffffff ffffffff     ................
  40e9f4:	ffffffff ffffffff ffffffff ffffffff     ................
  40ea04:	ffffffff ffffffff ffffffff ffffffff     ................
  40ea14:	ffffffff ffffffff ffffffff ffffffff     ................
  40ea24:	ffffffff ffffffff ffffffff ffffffff     ................
  40ea34:	ffffffff ffffffff ffffffff ffffffff     ................
  40ea44:	ffffffff ffffffff ffffffff ffffffff     ................
  40ea54:	ffffffff ffffffff ffffffff ffffffff     ................
  40ea64:	ffffffff ffffffff ffffffff ffffffff     ................
  40ea74:	ffffffff ffffffff ffffffff ffffffff     ................
  40ea84:	ffffffff ffffffff ffffffff ffffffff     ................
  40ea94:	ffffffff ffffffff ffffffff ffffffff     ................
  40eaa4:	ffffffff ffffffff ffffffff ffffffff     ................
  40eab4:	ffffffff ffffffff ffffffff ffffffff     ................
  40eac4:	ffffffff ffffffff ffffffff ffffffff     ................
  40ead4:	ffffffff ffffffff ffffffff ffffffff     ................
  40eae4:	ffffffff ffffffff ffffffff ffffffff     ................
  40eaf4:	ffffffff ffffffff ffffffff ffffffff     ................
  40eb04:	ffffffff ffffffff ffffffff ffffffff     ................
  40eb14:	ffffffff ffffffff ffffffff ffffffff     ................
  40eb24:	ffffffff ffffffff ffffffff ffffffff     ................
  40eb34:	ffffffff ffffffff ffffffff ffffffff     ................
  40eb44:	ffffffff ffffffff ffffffff ffffffff     ................
  40eb54:	ffffffff ffffffff ffffffff ffffffff     ................
  40eb64:	ffffffff ffffffff ffffffff ffffffff     ................
  40eb74:	ffffffff ffffffff ffffffff ffffffff     ................
  40eb84:	ffffffff ffffffff ffffffff ffffffff     ................
  40eb94:	ffffffff ffffffff ffffffff ffffffff     ................
  40eba4:	ffffffff ffffffff ffffffff ffffffff     ................
  40ebb4:	ffffffff ffffffff ffffffff ffffffff     ................
  40ebc4:	ffffffff ffffffff ffffffff ffffffff     ................
  40ebd4:	ffffffff ffffffff ffffffff ffffffff     ................
  40ebe4:	ffffffff ffffffff ffffffff ffffffff     ................
  40ebf4:	ffffffff ffffffff ffffffff ffffffff     ................
  40ec04:	ffffffff ffffffff ffffffff ffffffff     ................
  40ec14:	ffffffff ffffffff ffffffff ffffffff     ................
  40ec24:	ffffffff ffffffff ffffffff ffffffff     ................
  40ec34:	ffffffff ffffffff ffffffff ffffffff     ................
  40ec44:	ffffffff ffffffff ffffffff ffffffff     ................
  40ec54:	ffffffff ffffffff ffffffff ffffffff     ................
  40ec64:	ffffffff ffffffff ffffffff ffffffff     ................
  40ec74:	ffffffff ffffffff ffffffff ffffffff     ................
  40ec84:	ffffffff ffffffff ffffffff ffffffff     ................
  40ec94:	ffffffff ffffffff ffffffff ffffffff     ................
  40eca4:	ffffffff ffffffff ffffffff ffffffff     ................
  40ecb4:	ffffffff ffffffff ffffffff ffffffff     ................
  40ecc4:	ffffffff ffffffff ffffffff ffffffff     ................
  40ecd4:	ffffffff ffffffff ffffffff ffffffff     ................
  40ece4:	ffffffff ffffffff ffffffff ffffffff     ................
  40ecf4:	ffffffff ffffffff ffffffff ffffffff     ................
  40ed04:	ffffffff ffffffff ffffffff ffffffff     ................
  40ed14:	ffffffff ffffffff ffffffff ffffffff     ................
  40ed24:	ffffffff ffffffff ffffffff ffffffff     ................
  40ed34:	ffffffff ffffffff ffffffff ffffffff     ................
  40ed44:	ffffffff ffffffff ffffffff ffffffff     ................
  40ed54:	ffffffff ffffffff ffffffff ffffffff     ................
  40ed64:	ffffffff ffffffff ffffffff ffffffff     ................
  40ed74:	ffffffff ffffffff ffffffff ffffffff     ................
  40ed84:	ffffffff ffffffff ffffffff ffffffff     ................
  40ed94:	ffffffff ffffffff ffffffff ffffffff     ................
  40eda4:	ffffffff ffffffff ffffffff ffffffff     ................
  40edb4:	ffffffff ffffffff ffffffff ffffffff     ................
  40edc4:	ffffffff ffffffff ffffffff ffffffff     ................
  40edd4:	ffffffff ffffffff ffffffff ffffffff     ................
  40ede4:	ffffffff ffffffff ffffffff ffffffff     ................
  40edf4:	ffffffff ffffffff ffffffff ffffffff     ................
  40ee04:	ffffffff ffffffff ffffffff ffffffff     ................
  40ee14:	ffffffff ffffffff ffffffff ffffffff     ................
  40ee24:	ffffffff ffffffff ffffffff ffffffff     ................
  40ee34:	ffffffff ffffffff ffffffff ffffffff     ................
  40ee44:	ffffffff ffffffff ffffffff ffffffff     ................
  40ee54:	ffffffff ffffffff ffffffff ffffffff     ................
  40ee64:	ffffffff ffffffff ffffffff ffffffff     ................
  40ee74:	ffffffff ffffffff ffffffff ffffffff     ................
  40ee84:	ffffffff ffffffff ffffffff ffffffff     ................
  40ee94:	ffffffff ffffffff ffffffff ffffffff     ................
  40eea4:	ffffffff ffffffff ffffffff ffffffff     ................
  40eeb4:	ffffffff ffffffff ffffffff ffffffff     ................
  40eec4:	ffffffff ffffffff ffffffff ffffffff     ................
  40eed4:	ffffffff ffffffff ffffffff ffffffff     ................
  40eee4:	ffffffff ffffffff ffffffff ffffffff     ................
  40eef4:	ffffffff ffffffff ffffffff ffffffff     ................
  40ef04:	ffffffff ffffffff ffffffff ffffffff     ................
  40ef14:	ffffffff ffffffff ffffffff ffffffff     ................
  40ef24:	ffffffff ffffffff ffffffff ffffffff     ................
  40ef34:	ffffffff ffffffff ffffffff ffffffff     ................
  40ef44:	ffffffff ffffffff ffffffff ffffffff     ................
  40ef54:	ffffffff ffffffff ffffffff ffffffff     ................
  40ef64:	ffffffff ffffffff ffffffff ffffffff     ................
  40ef74:	ffffffff ffffffff ffffffff ffffffff     ................
  40ef84:	ffffffff ffffffff ffffffff ffffffff     ................
  40ef94:	ffffffff ffffffff ffffffff ffffffff     ................
  40efa4:	ffffffff ffffffff ffffffff ffffffff     ................
  40efb4:	ffffffff ffffffff ffffffff ffffffff     ................
  40efc4:	ffffffff ffffffff ffffffff ffffffff     ................
  40efd4:	ffffffff ffffffff ffffffff ffffffff     ................
  40efe4:	ffffffff ffffffff ffffffff ffffffff     ................
  40eff4:	ffffffff ffffffff ffffffff ffffffff     ................
  40f004:	ffffffff ffffffff ffffffff ffffffff     ................
  40f014:	ffffffff ffffffff ffffffff ffffffff     ................
  40f024:	ffffffff ffffffff ffffffff ffffffff     ................
  40f034:	ffffffff ffffffff ffffffff ffffffff     ................
  40f044:	ffffffff ffffffff ffffffff ffffffff     ................
  40f054:	ffffffff ffffffff ffffffff ffffffff     ................
  40f064:	ffffffff ffffffff ffffffff ffffffff     ................
  40f074:	ffffffff ffffffff ffffffff ffffffff     ................
  40f084:	ffffffff ffffffff ffffffff ffffffff     ................
  40f094:	ffffffff ffffffff ffffffff ffffffff     ................
  40f0a4:	ffffffff ffffffff ffffffff ffffffff     ................
  40f0b4:	ffffffff ffffffff ffffffff ffffffff     ................
  40f0c4:	ffffffff ffffffff ffffffff ffffffff     ................
  40f0d4:	ffffffff ffffffff ffffffff ffffffff     ................
  40f0e4:	ffffffff ffffffff ffffffff ffffffff     ................
  40f0f4:	ffffffff ffffffff ffffffff ffffffff     ................
  40f104:	ffffffff ffffffff ffffffff ffffffff     ................
  40f114:	ffffffff ffffffff ffffffff ffffffff     ................
  40f124:	ffffffff ffffffff ffffffff ffffffff     ................
  40f134:	ffffffff ffffffff ffffffff ffffffff     ................
  40f144:	ffffffff ffffffff ffffffff ffffffff     ................
  40f154:	ffffffff ffffffff ffffffff ffffffff     ................
  40f164:	ffffffff ffffffff ffffffff ffffffff     ................
  40f174:	ffffffff ffffffff ffffffff ffffffff     ................
  40f184:	ffffffff ffffffff ffffffff ffffffff     ................

0040f194 <arial_72_0x34>:
  40f194:	0040ca34 00000028 00000054 00000008     4.@.(...T.......

0040f1a4 <image_data_arial_72_0x35>:
  40f1a4:	ffffffff ffffffff ffffffff ffffffff     ................
  40f1b4:	ffffffff ffffffff ffffffff ffffffff     ................
  40f1c4:	ffffffff ffffffff ffffffff ffffffff     ................
  40f1d4:	ffffffff ffffffff ffffffff ffffffff     ................
  40f1e4:	ffffffff ffffffff ffffffff ffffffff     ................
  40f1f4:	ffffffff ffffffff ffffffff ffffffff     ................
  40f204:	ffffffff ffffffff ffffffff ffffffff     ................
  40f214:	ffffffff ffffffff ffffffff ffffffff     ................
  40f224:	ffffffff ffffffff ffffffff ffffffff     ................
  40f234:	ffffffff ffffffff ffffffff ffffffff     ................
  40f244:	ffffffff ffffffff ffffffff ffffffff     ................
  40f254:	ffffffff ffffffff ffffffff ffffffff     ................
  40f264:	ffffffff ffffffff ffffffff ffffffff     ................
  40f274:	ffffffff ffffffff ffffffff ffffffff     ................
  40f284:	ffffffff ffffffff ffffffff ffffffff     ................
  40f294:	ffffffff ffffffff ffffffff ffffffff     ................
  40f2a4:	ffffffff ffffffff ffffffff ffffffff     ................
  40f2b4:	ffffffff ffffffff ffffffff ffffffff     ................
  40f2c4:	ffffffff ffffffff ffffffff ffffffff     ................
  40f2d4:	ffffffff ffffffff ffffffff ffffffff     ................
  40f2e4:	ffffffff ffffffff ffffffff ffffffff     ................
  40f2f4:	ffffffff ffffffff ffffffff ffffffff     ................
  40f304:	ffffffff ffffffff ffffffff ffffffff     ................
  40f314:	ffffffff ffffffff ffffffff ffffffff     ................
  40f324:	ffffffff ffffffff ffffffff ffffffff     ................
  40f334:	ffffffff ffffffff ffffffff ffffffff     ................
  40f344:	ffffffff ffffffff ffffffff ffffffff     ................
  40f354:	ffffffff ffffffff ffffffff ffffffff     ................
  40f364:	ffffffff ffffffff ffffffff ffffffff     ................
  40f374:	ffffffff ffffffff ffffffff ffffffff     ................
  40f384:	ffffffff ffffffff ffffffff ffffffff     ................
  40f394:	ffffffff ffffffff ffffffff ffffffff     ................
  40f3a4:	ffffffff ffffffff ffffffff ffffffff     ................
  40f3b4:	ffffffff ffffffff ffffffff ffffffff     ................
  40f3c4:	ffffffff ffffffff ffffffff ffffffff     ................
  40f3d4:	ffffffff ffffffff ffffffff ffffffff     ................
  40f3e4:	ffffffff ffffffff ffffffff ffffffff     ................
  40f3f4:	ffffffff ffffffff ffffffff ffffffff     ................
  40f404:	ffffffff ffffffff ffffffff ffffffff     ................
  40f414:	ffffffff ffffffff ffffffff ffffffff     ................
  40f424:	ffffffff ffffffff ffffffff ffffffff     ................
  40f434:	ffffffff ffffffff ffffffff ffffffff     ................
  40f444:	ffffffff ffffffff ffffffff ffffffff     ................
  40f454:	ffffffff ffffffff ffffffff ffffffff     ................
  40f464:	ffffffff ffffffff ffffffff ffffffff     ................
  40f474:	ffffffff ffffffff ffffffff ffffffff     ................
  40f484:	ffffffff ffffffff ffffffff ffffffff     ................
  40f494:	ffffffff ffffffff ffffffff ffffffff     ................
  40f4a4:	ffffffff ffffffff ffffffff ffffffff     ................
  40f4b4:	ffffffff ffffffff ffffffff ffffffff     ................
  40f4c4:	ffffffff ffffffff ffffffff ffffffff     ................
  40f4d4:	ffffffff ffffffff ffffffff ffffffff     ................
  40f4e4:	ffffffff ffffffff ffffffff ffffffff     ................
  40f4f4:	ffffffff ffffffff ffffffff ffffffff     ................
  40f504:	ffffffff ffffffff ffffffff ffffffff     ................
  40f514:	ffffffff ffffffff ffffffff ffffffff     ................
  40f524:	ffffffff ffffffff ffffffff ffffffff     ................
  40f534:	ffffffff ffffffff ffffffff ffffffff     ................
  40f544:	ffffffff ffffffff ffffffff ffffffff     ................
  40f554:	ffffffff ffffffff ffffffff ffffffff     ................
  40f564:	ffffffff ffffffff ffffffff ffffffff     ................
  40f574:	ffffffff ffffffff ffffffff ffffffff     ................
  40f584:	ffffffff ffffffff ffffffff ffffffff     ................
  40f594:	ffffffff ffffffff ffffffff ffffffff     ................
  40f5a4:	ffffffff ffffffff ffffffff ffffffff     ................
  40f5b4:	ffffffff ffffffff ffffffff ffffffff     ................
  40f5c4:	ffffffff ffffffff ffffffff ffffffff     ................
  40f5d4:	ffffffff ffffffff ffffffff ffffffff     ................
  40f5e4:	ffffffff ffffffff ffffffff ffffffff     ................
  40f5f4:	ffffffff ffffffff ffffffff ffffffff     ................
  40f604:	ffffffff ffffffff ffffffff ffffffff     ................
  40f614:	ffffffff ffffffff ffffffff ffffffff     ................
  40f624:	ffffffff ffffffff ffffffff ffffffff     ................
  40f634:	ffffffff ffffffff ffffffff ffffffff     ................
  40f644:	ffffffff ffffffff ffffffff ffffffff     ................
  40f654:	ffffffff ffffffff ffffffff ffffffff     ................
  40f664:	ffffffff ffffffff ffffffff ffffffff     ................
  40f674:	ffffffff ffffffff ffffffff ffffffff     ................
  40f684:	ffffffff ffffffff ffffffff ffffffff     ................
  40f694:	ffffffff ffffffff ffffffff ffffffff     ................
  40f6a4:	ffffffff ffffffff ffffffff ffffffff     ................
  40f6b4:	ffffffff ffffffff ffffffff ffffffff     ................
  40f6c4:	ffffffff ffffffff ffffffff ffffffff     ................
  40f6d4:	ffffffff ffffffff ffffffff ffffffff     ................
  40f6e4:	ffffffff ffffffff ffffffff ffffffff     ................
  40f6f4:	ffffffff ffffffff ffffffff ffffffff     ................
  40f704:	ffffffff ffffffff ffffffff ffffffff     ................
  40f714:	ffffffff ffffffff ffffffff ffffffff     ................
  40f724:	ffffffff ffffffff ffffffff ffffffff     ................
  40f734:	ffffffff ffffffff ffffffff ffffffff     ................
  40f744:	ffffffff ffffffff ffffffff ffffffff     ................
  40f754:	ffffffff ffffffff ffffffff ffffffff     ................
  40f764:	ffffffff ffffffff ffffffff ffffffff     ................
  40f774:	ffffffff ffffffff ffffffff ffffffff     ................
  40f784:	ffffffff ffffffff ffffffff ffffffff     ................
  40f794:	ffffffff ffffffff ffffffff ffffffff     ................
  40f7a4:	ffffffff ffffffff ffffffff ffffffff     ................
  40f7b4:	ffffffff ffffffff ffffffff ffffffff     ................
  40f7c4:	ffffffff ffffffff ffffffff ffffffff     ................
  40f7d4:	ffffffff ffffffff ffffffff ffffffff     ................
  40f7e4:	ffffffff ffffffff ffffffff ffffffff     ................
  40f7f4:	ffffffff ffffffff ffffffff ffffffff     ................
  40f804:	ffffffff ffffffff ffffffff ffffffff     ................
  40f814:	ffffffff ffffffff ffffffff ffffffff     ................
  40f824:	ffffffff ffffffff ffffffff ffffffff     ................
  40f834:	ffffffff ffffffff ffffffff ffffffff     ................
  40f844:	ffffffff ffffffff ffffffff ffffffff     ................
  40f854:	ffffffff ffffffff ffffffff ffffffff     ................
  40f864:	ffffffff ffffffff ffffffff ffffffff     ................
  40f874:	ffffffff ffffffff ffffffff ffffffff     ................
  40f884:	ffffffff ffffffff ffffffff ffffffff     ................
  40f894:	ffffffff ffffffff ffffffff ffffffff     ................
  40f8a4:	ffffffff ffffffff ffffffff ffffffff     ................
  40f8b4:	ffffffff ffffffff ffffffff ffffffff     ................
  40f8c4:	ffffffff ffffffff ffffffff ffffffff     ................
  40f8d4:	ffffffff ffffffff ffffffff ffffffff     ................
  40f8e4:	ffffffff ffffffff ffffffff ffffffff     ................
  40f8f4:	ffffffff ffffffff ffffffff ffffffff     ................
  40f904:	ffffffff ffffffff ffffffff ffffffff     ................
  40f914:	ffffffff ffffffff ffffffff ffffffff     ................
  40f924:	ffffffff ffffffff ffffffff ffffffff     ................
  40f934:	ffffffff ffffffff ffffffff 00ff0000     ................
  40f944:	0000ff00 ff0000ff 00ff0000 0000ff00     ................
  40f954:	ff0000ff 00ff0000 0000ff00 ff0000ff     ................
  40f964:	00ff0000 0000ff00 ff0000ff 00ff0000     ................
  40f974:	0000ff00 ff0000ff 00ff0000 0000ff00     ................
  40f984:	ff0000ff 00ff0000 0000ff00 ffffffff     ................
  40f994:	ffffffff ffffffff ffffffff ffffffff     ................
  40f9a4:	ffffffff ffffffff ffffffff ffffffff     ................
  40f9b4:	ffffffff 00ff0000 0000ff00 ff0000ff     ................
  40f9c4:	00ff0000 0000ff00 ff0000ff 00ff0000     ................
  40f9d4:	0000ff00 ff0000ff 00ff0000 0000ff00     ................
  40f9e4:	ff0000ff 00ff0000 0000ff00 ff0000ff     ................
  40f9f4:	00ff0000 0000ff00 ff0000ff 00ff0000     ................
  40fa04:	0000ff00 ffffffff ffffffff ffffffff     ................
  40fa14:	ffffffff ffffffff ffffffff ffffffff     ................
  40fa24:	ffffffff ffffffff ffffffff 00ff0000     ................
  40fa34:	0000ff00 ff0000ff 00ff0000 0000ff00     ................
  40fa44:	ff0000ff 00ff0000 0000ff00 ff0000ff     ................
  40fa54:	00ff0000 0000ff00 ff0000ff 00ff0000     ................
  40fa64:	0000ff00 ff0000ff 00ff0000 0000ff00     ................
  40fa74:	ff0000ff 00ff0000 0000ff00 ffffffff     ................
  40fa84:	ffffffff ffffffff ffffffff ffffffff     ................
  40fa94:	ffffffff ffffffff ffffffff ffffffff     ................
  40faa4:	ffffffff 00ff0000 0000ff00 ff0000ff     ................
  40fab4:	00ff0000 0000ff00 ff0000ff 00ff0000     ................
  40fac4:	0000ff00 ff0000ff 00ff0000 0000ff00     ................
  40fad4:	ff0000ff 00ff0000 0000ff00 ff0000ff     ................
  40fae4:	00ff0000 0000ff00 ff0000ff 00ff0000     ................
  40faf4:	0000ff00 ffffffff ffffffff ffffffff     ................
  40fb04:	ffffffff ffffffff ffffffff ffffffff     ................
  40fb14:	ffffffff ffffffff ffffffff 00ff0000     ................
  40fb24:	0000ff00 ff0000ff 00ff0000 0000ff00     ................
  40fb34:	ff0000ff 00ff0000 0000ff00 ff0000ff     ................
  40fb44:	00ff0000 0000ff00 ff0000ff 00ff0000     ................
  40fb54:	0000ff00 ff0000ff 00ff0000 0000ff00     ................
  40fb64:	ff0000ff 00ff0000 0000ff00 ffffffff     ................
  40fb74:	ffffffff ffffffff ffffffff ffffffff     ................
  40fb84:	ffffffff ffffffff ffffffff ffffffff     ................
  40fb94:	ff0000ff 00ff0000 0000ff00 ff0000ff     ................
  40fba4:	00ff0000 0000ff00 ff0000ff 00ff0000     ................
  40fbb4:	0000ff00 ff0000ff 00ff0000 0000ff00     ................
  40fbc4:	ff0000ff 00ff0000 0000ff00 ff0000ff     ................
  40fbd4:	00ff0000 0000ff00 ff0000ff 00ff0000     ................
  40fbe4:	0000ff00 ffffffff ffffffff ffffffff     ................
  40fbf4:	ffffffff ffffffff ffffffff ffffffff     ................
  40fc04:	ffffffff ffffffff ff0000ff 00ff0000     ................
  40fc14:	0000ff00 ff0000ff 00ff0000 0000ff00     ................
  40fc24:	ff0000ff 00ff0000 0000ff00 ff0000ff     ................
  40fc34:	00ff0000 0000ff00 ff0000ff 00ff0000     ................
  40fc44:	0000ff00 ff0000ff 00ff0000 0000ff00     ................
  40fc54:	ff0000ff 00ff0000 0000ff00 ffffffff     ................
  40fc64:	ffffffff ffffffff ffffffff ffffffff     ................
  40fc74:	ffffffff ffffffff ffffffff ffffffff     ................
  40fc84:	ff0000ff 00ff0000 0000ff00 ff0000ff     ................
  40fc94:	00ff0000 0000ff00 ff0000ff 00ff0000     ................
  40fca4:	0000ff00 ff0000ff 00ff0000 0000ff00     ................
  40fcb4:	ff0000ff 00ff0000 0000ff00 ff0000ff     ................
  40fcc4:	00ff0000 0000ff00 ff0000ff 00ff0000     ................
  40fcd4:	0000ff00 ffffffff ffffffff ffffffff     ................
  40fce4:	ffffffff ffffffff ffffffff ffffffff     ................
  40fcf4:	ffffffff ffffffff ff0000ff 00ff0000     ................
  40fd04:	0000ff00 ff0000ff 00ff0000 0000ff00     ................
  40fd14:	ff0000ff 00ff0000 0000ff00 ff0000ff     ................
  40fd24:	00ff0000 0000ff00 ff0000ff 00ff0000     ................
  40fd34:	0000ff00 ff0000ff 00ff0000 0000ff00     ................
  40fd44:	ff0000ff 00ff0000 0000ff00 ffffffff     ................
  40fd54:	ffffffff ffffffff ffffffff ffffffff     ................
  40fd64:	ffffffff ffffffff ffffffff ffffffff     ................
  40fd74:	ff0000ff 00ff0000 0000ff00 ff0000ff     ................
  40fd84:	00ff0000 0000ff00 ff0000ff ffffffff     ................
  40fd94:	ffffffff ffffffff ffffffff ffffffff     ................
  40fda4:	ffffffff ffffffff ffffffff ffffffff     ................
  40fdb4:	ffffffff ffffffff ffffffff ffffffff     ................
  40fdc4:	ffffffff ffffffff ffffffff ffffffff     ................
  40fdd4:	ffffffff ffffffff ffffffff ffffffff     ................
  40fde4:	ffffffff ffffffff ff0000ff 00ff0000     ................
  40fdf4:	0000ff00 ff0000ff 00ff0000 0000ff00     ................
  40fe04:	ff0000ff ffffffff ffffffff ffffffff     ................
  40fe14:	ffffffff ffffffff ffffffff ffffffff     ................
  40fe24:	ffffffff ffffffff ffffffff ffffffff     ................
  40fe34:	ffffffff ffffffff ffffffff ffffffff     ................
  40fe44:	ffffffff ffffffff ffffffff ffffffff     ................
  40fe54:	ffffffff ffffffff ffffffff 0000ffff     ................
  40fe64:	ff0000ff 00ff0000 0000ff00 ff0000ff     ................
  40fe74:	00ff0000 0000ff00 ff0000ff ffffffff     ................
  40fe84:	ffffffff ffffffff ffffffff ffffffff     ................
  40fe94:	ffffffff ffffffff ffffffff ffffffff     ................
  40fea4:	ffffffff ffffffff ffffffff ffffffff     ................
  40feb4:	ffffffff ffffffff ffffffff ffffffff     ................
  40fec4:	ffffffff ffffffff ffffffff ffffffff     ................
  40fed4:	ffffffff 0000ffff ff0000ff 00ff0000     ................
  40fee4:	0000ff00 ff0000ff 00ff0000 0000ff00     ................
  40fef4:	ffffffff ffffffff ffffffff ffffffff     ................
  40ff04:	ffffffff ffffffff ffffffff ffffffff     ................
  40ff14:	ffffffff ffffffff ffffffff ffffffff     ................
  40ff24:	ffffffff ffffffff ffffffff ffffffff     ................
  40ff34:	ffffffff ffffffff ffffffff ffffffff     ................
  40ff44:	ffffffff ffffffff ffffffff 0000ffff     ................
  40ff54:	ff0000ff 00ff0000 0000ff00 ff0000ff     ................
  40ff64:	00ff0000 0000ff00 ffffffff ffffffff     ................
  40ff74:	ffffffff ffffffff ffffffff ffffffff     ................
  40ff84:	ffffffff ffffffff ffffffff ffffffff     ................
  40ff94:	ffffffff ffffffff ffffffff ffffffff     ................
  40ffa4:	ffffffff ffffffff ffffffff ffffffff     ................
  40ffb4:	ffffffff ffffffff ffffffff ffffffff     ................
  40ffc4:	ffffffff 0000ffff ff0000ff 00ff0000     ................
  40ffd4:	0000ff00 ff0000ff 00ff0000 0000ff00     ................
  40ffe4:	ffffffff ffffffff ffffffff ffffffff     ................
  40fff4:	ffffffff ffffffff ffffffff ffffffff     ................
  410004:	ffffffff ffffffff ffffffff ffffffff     ................
  410014:	ffffffff ffffffff ffffffff ffffffff     ................
  410024:	ffffffff ffffffff ffffffff ffffffff     ................
  410034:	ffffffff ffffffff ffffffff 0000ffff     ................
  410044:	ff0000ff 00ff0000 0000ff00 ff0000ff     ................
  410054:	00ff0000 0000ff00 ffffffff ffffffff     ................
  410064:	ffffffff ffffffff ffffffff ffffffff     ................
  410074:	ffffffff ffffffff ffffffff ffffffff     ................
  410084:	ffffffff ffffffff ffffffff ffffffff     ................
  410094:	ffffffff ffffffff ffffffff ffffffff     ................
  4100a4:	ffffffff ffffffff ffffffff ffffffff     ................
  4100b4:	00ffffff 0000ff00 ff0000ff 00ff0000     ................
  4100c4:	0000ff00 ff0000ff 00ff0000 0000ff00     ................
  4100d4:	ffffffff ffffffff ffffffff ffffffff     ................
  4100e4:	ffffffff ffffffff ffffffff ffffffff     ................
  4100f4:	ffffffff ffffffff ffffffff ffffffff     ................
  410104:	ffffffff ffffffff ffffffff ffffffff     ................
  410114:	ffffffff ffffffff ffffffff ffffffff     ................
  410124:	ffffffff ffffffff 00ffffff 0000ff00     ................
  410134:	ff0000ff 00ff0000 0000ff00 ff0000ff     ................
  410144:	00ff0000 0000ff00 ffffffff 00ff0000     ................
  410154:	0000ff00 ff0000ff 00ff0000 0000ff00     ................
  410164:	ff0000ff 00ff0000 0000ff00 ffffffff     ................
  410174:	ffffffff ffffffff ffffffff ffffffff     ................
  410184:	ffffffff ffffffff ffffffff ffffffff     ................
  410194:	ffffffff ffffffff ffffffff ffffffff     ................
  4101a4:	00ffffff 0000ff00 ff0000ff 00ff0000     ................
  4101b4:	0000ff00 ff0000ff 00ff0000 0000ff00     ................
  4101c4:	ff0000ff 00ff0000 0000ff00 ff0000ff     ................
  4101d4:	00ff0000 0000ff00 ff0000ff 00ff0000     ................
  4101e4:	0000ff00 ff0000ff ffff0000 ffffffff     ................
  4101f4:	ffffffff ffffffff ffffffff ffffffff     ................
  410204:	ffffffff ffffffff ffffffff ffffffff     ................
  410214:	ffffffff ffffffff 00ffffff 0000ff00     ................
  410224:	ff0000ff 00ff0000 0000ff00 ff0000ff     ................
  410234:	00ff0000 0000ff00 ff0000ff 00ff0000     ................
  410244:	0000ff00 ff0000ff 00ff0000 0000ff00     ................
  410254:	ff0000ff 00ff0000 0000ff00 ff0000ff     ................
  410264:	00ff0000 ffffff00 ffffffff ffffffff     ................
  410274:	ffffffff ffffffff ffffffff ffffffff     ................
  410284:	ffffffff ffffffff ffffffff ffffffff     ................
  410294:	00ffffff 0000ff00 ff0000ff 00ff0000     ................
  4102a4:	0000ff00 ff0000ff 00ff0000 0000ff00     ................
  4102b4:	ff0000ff 00ff0000 0000ff00 ff0000ff     ................
  4102c4:	00ff0000 0000ff00 ff0000ff 00ff0000     ................
  4102d4:	0000ff00 ff0000ff 00ff0000 0000ff00     ................
  4102e4:	ffffffff ffffffff ffffffff ffffffff     ................
  4102f4:	ffffffff ffffffff ffffffff ffffffff     ................
  410304:	ffffffff ffffffff 00ff0000 0000ff00     ................
  410314:	ff0000ff 00ff0000 0000ff00 ff0000ff     ................
  410324:	00ff0000 0000ff00 ff0000ff 00ff0000     ................
  410334:	0000ff00 ff0000ff 00ff0000 0000ff00     ................
  410344:	ff0000ff 00ff0000 0000ff00 ff0000ff     ................
  410354:	00ff0000 0000ff00 ff0000ff ffffffff     ................
  410364:	ffffffff ffffffff ffffffff ffffffff     ................
  410374:	ffffffff ffffffff ffffffff ffffffff     ................
  410384:	00ff0000 0000ff00 ff0000ff 00ff0000     ................
  410394:	0000ff00 ff0000ff 00ff0000 0000ff00     ................
  4103a4:	ff0000ff 00ff0000 0000ff00 ff0000ff     ................
  4103b4:	00ff0000 0000ff00 ff0000ff 00ff0000     ................
  4103c4:	0000ff00 ff0000ff 00ff0000 0000ff00     ................
  4103d4:	ff0000ff ffff0000 ffffffff ffffffff     ................
  4103e4:	ffffffff ffffffff ffffffff ffffffff     ................
  4103f4:	ffffffff ffffffff 00ff0000 0000ff00     ................
  410404:	ff0000ff 00ff0000 0000ff00 ff0000ff     ................
  410414:	00ff0000 0000ff00 ff0000ff 00ff0000     ................
  410424:	0000ff00 ff0000ff 00ff0000 0000ff00     ................
  410434:	ff0000ff 00ff0000 0000ff00 ff0000ff     ................
  410444:	00ff0000 0000ff00 ff0000ff 00ff0000     ................
  410454:	ffffff00 ffffffff ffffffff ffffffff     ................
  410464:	ffffffff ffffffff ffffffff ffffffff     ................
  410474:	00ff0000 0000ff00 ff0000ff 00ff0000     ................
  410484:	0000ff00 ff0000ff 00ff0000 0000ff00     ................
  410494:	ff0000ff 00ff0000 ffffff00 ffffffff     ................
  4104a4:	00ff0000 0000ff00 ff0000ff 00ff0000     ................
  4104b4:	0000ff00 ff0000ff 00ff0000 0000ff00     ................
  4104c4:	ff0000ff 00ff0000 0000ff00 ffffffff     ................
  4104d4:	ffffffff ffffffff ffffffff ffffffff     ................
  4104e4:	ffffffff ffffffff 00ff0000 0000ff00     ................
  4104f4:	ff0000ff 00ff0000 0000ff00 ff0000ff     ................
  410504:	00ff0000 0000ff00 ffffffff ffffffff     ................
  410514:	ffffffff ffffffff ffffffff ffffffff     ................
  410524:	ff0000ff 00ff0000 0000ff00 ff0000ff     ................
  410534:	00ff0000 0000ff00 ff0000ff 00ff0000     ................
  410544:	0000ff00 ffffffff ffffffff ffffffff     ................
  410554:	ffffffff ffffffff ffffffff ff0000ff     ................
  410564:	00ff0000 0000ff00 ff0000ff 00ff0000     ................
  410574:	0000ff00 ff0000ff ffff0000 ffffffff     ................
  410584:	ffffffff ffffffff ffffffff ffffffff     ................
  410594:	ffffffff ffffffff ffffffff 00ff0000     ................
  4105a4:	0000ff00 ff0000ff 00ff0000 0000ff00     ................
  4105b4:	ff0000ff 00ff0000 0000ff00 ff0000ff     ................
  4105c4:	ffffffff ffffffff ffffffff ffffffff     ................
  4105d4:	ffffffff ffffffff ffffffff ffffffff     ................
  4105e4:	ff0000ff 00ff0000 0000ff00 ff0000ff     ................
  4105f4:	ffffffff ffffffff ffffffff ffffffff     ................
  410604:	ffffffff ffffffff ffffffff ffffffff     ................
  410614:	ffffffff 00ffffff 0000ff00 ff0000ff     ................
  410624:	00ff0000 0000ff00 ff0000ff 00ff0000     ................
  410634:	0000ff00 ff0000ff ffffffff ffffffff     ................
  410644:	ffffffff ffffffff ffffffff ffffffff     ................
  410654:	ffffffff ffffffff ffffffff ffffffff     ................
  410664:	ffffffff ffffffff ffffffff ffffffff     ................
  410674:	ffffffff ffffffff ffffffff ffffffff     ................
  410684:	ffffffff ffffffff ffffffff ffffffff     ................
  410694:	0000ffff ff0000ff 00ff0000 0000ff00     ................
  4106a4:	ff0000ff 00ff0000 0000ff00 ff0000ff     ................
  4106b4:	ffffffff ffffffff ffffffff ffffffff     ................
  4106c4:	ffffffff ffffffff ffffffff ffffffff     ................
  4106d4:	ffffffff ffffffff ffffffff ffffffff     ................
  4106e4:	ffffffff ffffffff ffffffff ffffffff     ................
  4106f4:	ffffffff ffffffff ffffffff ffffffff     ................
  410704:	ffffffff ffffffff 0000ffff ff0000ff     ................
  410714:	00ff0000 0000ff00 ff0000ff 00ff0000     ................
  410724:	0000ff00 ff0000ff ffffffff ffffffff     ................
  410734:	ffffffff ffffffff ffffffff ffffffff     ................
  410744:	ffffffff ffffffff ffffffff ffffffff     ................
  410754:	ffffffff ffffffff ffffffff ffffffff     ................
  410764:	ffffffff ffffffff ffffffff ffffffff     ................
  410774:	ffffffff ffffffff ffffffff ffffffff     ................
  410784:	0000ffff ff0000ff 00ff0000 0000ff00     ................
  410794:	ff0000ff 00ff0000 0000ff00 ff0000ff     ................
  4107a4:	ffff0000 ffffffff ffffffff ffffffff     ................
  4107b4:	ffffffff ffffffff ffffffff ffffffff     ................
  4107c4:	ffffffff ffffffff ffffffff ffffffff     ................
  4107d4:	ffffffff ffffffff ffffffff ffffffff     ................
  4107e4:	ffffffff ffffffff ffffffff ffffffff     ................
  4107f4:	ffffffff ffffffff ffffffff ff0000ff     ................
  410804:	00ff0000 0000ff00 ff0000ff 00ff0000     ................
  410814:	0000ff00 ff0000ff ffff0000 ffffffff     ................
  410824:	ffffffff ffffffff ffffffff ffffffff     ................
  410834:	ffffffff ffffffff ffffffff ffffffff     ................
  410844:	ffffffff ffffffff ffffffff ffffffff     ................
  410854:	ffffffff ffffffff ffffffff ffffffff     ................
  410864:	ffffffff ffffffff ffffffff ffffffff     ................
  410874:	ffffffff ff0000ff 00ff0000 0000ff00     ................
  410884:	ff0000ff 00ff0000 0000ff00 ff0000ff     ................
  410894:	ffff0000 ffffffff ffffffff ffffffff     ................
  4108a4:	ffffffff ffffffff ffffffff ffffffff     ................
  4108b4:	ffffffff ffffffff ffffffff ffffffff     ................
  4108c4:	ffffffff ffffffff ffffffff ffffffff     ................
  4108d4:	ffffffff ffffffff ffffffff ffffffff     ................
  4108e4:	ffffffff ffffffff ffffffff ff0000ff     ................
  4108f4:	00ff0000 0000ff00 ff0000ff 00ff0000     ................
  410904:	0000ff00 ff0000ff ffff0000 ffffffff     ................
  410914:	ffffffff ffffffff ffffffff ffffffff     ................
  410924:	ffffffff ffffffff ffffffff ffffffff     ................
  410934:	ffffffff ffffffff ffffffff ffffffff     ................
  410944:	ffffffff ffffffff ffffffff ffffffff     ................
  410954:	ffffffff ffffffff ffffffff ffffffff     ................
  410964:	ffffffff ff0000ff 00ff0000 0000ff00     ................
  410974:	ff0000ff 00ff0000 0000ff00 ff0000ff     ................
  410984:	ffff0000 ffffffff ffffffff ffffffff     ................
  410994:	ffffffff ffffffff ffffffff ffffffff     ................
  4109a4:	ffffffff ffffffff ffffffff ffffffff     ................
  4109b4:	ffffffff ffffffff ffffffff ffffffff     ................
  4109c4:	ffffffff ffffffff ffffffff ffffffff     ................
  4109d4:	ffffffff ffffffff ffffffff ff0000ff     ................
  4109e4:	00ff0000 0000ff00 ff0000ff 00ff0000     ................
  4109f4:	0000ff00 ff0000ff ffff0000 ffffffff     ................
  410a04:	ffffffff ffffffff ffffffff ffffffff     ................
  410a14:	ffffffff ffffffff ffffffff ffffffff     ................
  410a24:	ffffffff ffffffff ffffffff ffffffff     ................
  410a34:	ffffffff ffffffff ffffffff ffffffff     ................
  410a44:	ffffffff ffffffff ffffffff ffffffff     ................
  410a54:	ffffffff ff0000ff 00ff0000 0000ff00     ................
  410a64:	ff0000ff 00ff0000 0000ff00 ff0000ff     ................
  410a74:	ffff0000 ffffffff ffffffff ffffffff     ................
  410a84:	ffffffff ffffffff 00ffffff 0000ff00     ................
  410a94:	ff0000ff 00ff0000 0000ff00 ff0000ff     ................
  410aa4:	ffffffff ffffffff ffffffff ffffffff     ................
  410ab4:	ffffffff ffffffff ffffffff ffffffff     ................
  410ac4:	ffffffff ffffffff 0000ffff ff0000ff     ................
  410ad4:	00ff0000 0000ff00 ff0000ff 00ff0000     ................
  410ae4:	0000ff00 ff0000ff ffffffff ffffffff     ................
  410af4:	ffffffff ffffffff 0000ffff ff0000ff     ................
  410b04:	00ff0000 0000ff00 ff0000ff 00ff0000     ................
  410b14:	0000ff00 ff0000ff ffffffff ffffffff     ................
  410b24:	ffffffff ffffffff ffffffff ffffffff     ................
  410b34:	ffffffff ffffffff ffffffff ffffffff     ................
  410b44:	0000ffff ff0000ff 00ff0000 0000ff00     ................
  410b54:	ff0000ff 00ff0000 0000ff00 ff0000ff     ................
  410b64:	ffffffff ffffffff ffffffff ffffffff     ................
  410b74:	ffffffff ff0000ff 00ff0000 0000ff00     ................
  410b84:	ff0000ff 00ff0000 0000ff00 ff0000ff     ................
  410b94:	ffff0000 ffffffff ffffffff ffffffff     ................
  410ba4:	ffffffff ffffffff ffffffff ffffffff     ................
  410bb4:	ffffffff ffffffff 0000ffff ff0000ff     ................
  410bc4:	00ff0000 0000ff00 ff0000ff 00ff0000     ................
  410bd4:	0000ff00 ff0000ff ffffffff ffffffff     ................
  410be4:	ffffffff ffffffff ffffffff ff0000ff     ................
  410bf4:	00ff0000 0000ff00 ff0000ff 00ff0000     ................
  410c04:	0000ff00 ff0000ff ffff0000 ffffffff     ................
  410c14:	ffffffff ffffffff ffffffff ffffffff     ................
  410c24:	ffffffff ffffffff ffffffff 00ffffff     ................
  410c34:	0000ff00 ff0000ff 00ff0000 0000ff00     ................
  410c44:	ff0000ff 00ff0000 0000ff00 ff0000ff     ................
  410c54:	ffffffff ffffffff ffffffff ffffffff     ................
  410c64:	ffffffff ff0000ff 00ff0000 0000ff00     ................
  410c74:	ff0000ff 00ff0000 0000ff00 ff0000ff     ................
  410c84:	00ff0000 ffffff00 ffffffff ffffffff     ................
  410c94:	ffffffff ffffffff ffffffff ffffffff     ................
  410ca4:	ffffffff 00ffffff 0000ff00 ff0000ff     ................
  410cb4:	00ff0000 0000ff00 ff0000ff 00ff0000     ................
  410cc4:	0000ff00 ffffffff ffffffff ffffffff     ................
  410cd4:	ffffffff ffffffff ffffffff ffffffff     ................
  410ce4:	00ff0000 0000ff00 ff0000ff 00ff0000     ................
  410cf4:	0000ff00 ff0000ff 00ff0000 0000ff00     ................
  410d04:	ffffffff ffffffff ffffffff ffffffff     ................
  410d14:	ffffffff ffffffff ff0000ff 00ff0000     ................
  410d24:	0000ff00 ff0000ff 00ff0000 0000ff00     ................
  410d34:	ff0000ff 00ff0000 0000ff00 ffffffff     ................
  410d44:	ffffffff ffffffff ffffffff ffffffff     ................
  410d54:	ffffffff ffffffff 00ff0000 0000ff00     ................
  410d64:	ff0000ff 00ff0000 0000ff00 ff0000ff     ................
  410d74:	00ff0000 0000ff00 ff0000ff ffff0000     ................
  410d84:	ffffffff ffffffff ffffffff 0000ffff     ................
  410d94:	ff0000ff 00ff0000 0000ff00 ff0000ff     ................
  410da4:	00ff0000 0000ff00 ff0000ff 00ff0000     ................
  410db4:	ffffff00 ffffffff ffffffff ffffffff     ................
  410dc4:	ffffffff ffffffff ffffffff ffffffff     ................
  410dd4:	00ffffff 0000ff00 ff0000ff 00ff0000     ................
  410de4:	0000ff00 ff0000ff 00ff0000 0000ff00     ................
  410df4:	ff0000ff 00ff0000 0000ff00 ff0000ff     ................
  410e04:	00ff0000 0000ff00 ff0000ff 00ff0000     ................
  410e14:	0000ff00 ff0000ff 00ff0000 0000ff00     ................
  410e24:	ff0000ff 00ff0000 ffffff00 ffffffff     ................
  410e34:	ffffffff ffffffff ffffffff ffffffff     ................
  410e44:	ffffffff ffffffff 00ffffff 0000ff00     ................
  410e54:	ff0000ff 00ff0000 0000ff00 ff0000ff     ................
  410e64:	00ff0000 0000ff00 ff0000ff 00ff0000     ................
  410e74:	0000ff00 ff0000ff 00ff0000 0000ff00     ................
  410e84:	ff0000ff 00ff0000 0000ff00 ff0000ff     ................
  410e94:	00ff0000 0000ff00 ff0000ff ffff0000     ................
  410ea4:	ffffffff ffffffff ffffffff ffffffff     ................
  410eb4:	ffffffff ffffffff ffffffff ffffffff     ................
  410ec4:	ffffffff 0000ffff ff0000ff 00ff0000     ................
  410ed4:	0000ff00 ff0000ff 00ff0000 0000ff00     ................
  410ee4:	ff0000ff 00ff0000 0000ff00 ff0000ff     ................
  410ef4:	00ff0000 0000ff00 ff0000ff 00ff0000     ................
  410f04:	0000ff00 ff0000ff 00ff0000 0000ff00     ................
  410f14:	ff0000ff ffffffff ffffffff ffffffff     ................
  410f24:	ffffffff ffffffff ffffffff ffffffff     ................
  410f34:	ffffffff ffffffff ffffffff ffffffff     ................
  410f44:	ff0000ff 00ff0000 0000ff00 ff0000ff     ................
  410f54:	00ff0000 0000ff00 ff0000ff 00ff0000     ................
  410f64:	0000ff00 ff0000ff 00ff0000 0000ff00     ................
  410f74:	ff0000ff 00ff0000 0000ff00 ff0000ff     ................
  410f84:	00ff0000 0000ff00 ffffffff ffffffff     ................
  410f94:	ffffffff ffffffff ffffffff ffffffff     ................
  410fa4:	ffffffff ffffffff ffffffff ffffffff     ................
  410fb4:	ffffffff ffffffff ffffffff 00ff0000     ................
  410fc4:	0000ff00 ff0000ff 00ff0000 0000ff00     ................
  410fd4:	ff0000ff 00ff0000 0000ff00 ff0000ff     ................
  410fe4:	00ff0000 0000ff00 ff0000ff 00ff0000     ................
  410ff4:	0000ff00 ff0000ff 00ff0000 ffffff00     ................
  411004:	ffffffff ffffffff ffffffff ffffffff     ................
  411014:	ffffffff ffffffff ffffffff ffffffff     ................
  411024:	ffffffff ffffffff ffffffff ffffffff     ................
  411034:	ffffffff ffffffff 0000ffff ff0000ff     ................
  411044:	00ff0000 0000ff00 ff0000ff 00ff0000     ................
  411054:	0000ff00 ff0000ff 00ff0000 0000ff00     ................
  411064:	ff0000ff 00ff0000 0000ff00 ff0000ff     ................
  411074:	ffffffff ffffffff ffffffff ffffffff     ................
  411084:	ffffffff ffffffff ffffffff ffffffff     ................
  411094:	ffffffff ffffffff ffffffff ffffffff     ................
  4110a4:	ffffffff ffffffff ffffffff ffffffff     ................
  4110b4:	ffffffff ffffffff 00ff0000 0000ff00     ................
  4110c4:	ff0000ff 00ff0000 0000ff00 ff0000ff     ................
  4110d4:	00ff0000 0000ff00 ff0000ff 00ff0000     ................
  4110e4:	ffffff00 ffffffff ffffffff ffffffff     ................
  4110f4:	ffffffff ffffffff ffffffff ffffffff     ................
  411104:	ffffffff ffffffff ffffffff ffffffff     ................
  411114:	ffffffff ffffffff ffffffff ffffffff     ................
  411124:	ffffffff ffffffff ffffffff ffffffff     ................
  411134:	ffffffff ffffffff ff0000ff 00ff0000     ................
  411144:	0000ff00 ff0000ff 00ff0000 0000ff00     ................
  411154:	ffffffff ffffffff ffffffff ffffffff     ................
  411164:	ffffffff ffffffff ffffffff ffffffff     ................
  411174:	ffffffff ffffffff ffffffff ffffffff     ................
  411184:	ffffffff ffffffff ffffffff ffffffff     ................
  411194:	ffffffff ffffffff ffffffff ffffffff     ................
  4111a4:	ffffffff ffffffff ffffffff ffffffff     ................
  4111b4:	ffffffff ffffffff ffffffff ffffffff     ................
  4111c4:	ffffffff ffffffff ffffffff ffffffff     ................
  4111d4:	ffffffff ffffffff ffffffff ffffffff     ................
  4111e4:	ffffffff ffffffff ffffffff ffffffff     ................
  4111f4:	ffffffff ffffffff ffffffff ffffffff     ................
  411204:	ffffffff ffffffff ffffffff ffffffff     ................
  411214:	ffffffff ffffffff ffffffff ffffffff     ................
  411224:	ffffffff ffffffff ffffffff ffffffff     ................
  411234:	ffffffff ffffffff ffffffff ffffffff     ................
  411244:	ffffffff ffffffff ffffffff ffffffff     ................
  411254:	ffffffff ffffffff ffffffff ffffffff     ................
  411264:	ffffffff ffffffff ffffffff ffffffff     ................
  411274:	ffffffff ffffffff ffffffff ffffffff     ................
  411284:	ffffffff ffffffff ffffffff ffffffff     ................
  411294:	ffffffff ffffffff ffffffff ffffffff     ................
  4112a4:	ffffffff ffffffff ffffffff ffffffff     ................
  4112b4:	ffffffff ffffffff ffffffff ffffffff     ................
  4112c4:	ffffffff ffffffff ffffffff ffffffff     ................
  4112d4:	ffffffff ffffffff ffffffff ffffffff     ................
  4112e4:	ffffffff ffffffff ffffffff ffffffff     ................
  4112f4:	ffffffff ffffffff ffffffff ffffffff     ................
  411304:	ffffffff ffffffff ffffffff ffffffff     ................
  411314:	ffffffff ffffffff ffffffff ffffffff     ................
  411324:	ffffffff ffffffff ffffffff ffffffff     ................
  411334:	ffffffff ffffffff ffffffff ffffffff     ................
  411344:	ffffffff ffffffff ffffffff ffffffff     ................
  411354:	ffffffff ffffffff ffffffff ffffffff     ................
  411364:	ffffffff ffffffff ffffffff ffffffff     ................
  411374:	ffffffff ffffffff ffffffff ffffffff     ................
  411384:	ffffffff ffffffff ffffffff ffffffff     ................
  411394:	ffffffff ffffffff ffffffff ffffffff     ................
  4113a4:	ffffffff ffffffff ffffffff ffffffff     ................
  4113b4:	ffffffff ffffffff ffffffff ffffffff     ................
  4113c4:	ffffffff ffffffff ffffffff ffffffff     ................
  4113d4:	ffffffff ffffffff ffffffff ffffffff     ................
  4113e4:	ffffffff ffffffff ffffffff ffffffff     ................
  4113f4:	ffffffff ffffffff ffffffff ffffffff     ................
  411404:	ffffffff ffffffff ffffffff ffffffff     ................
  411414:	ffffffff ffffffff ffffffff ffffffff     ................
  411424:	ffffffff ffffffff ffffffff ffffffff     ................
  411434:	ffffffff ffffffff ffffffff ffffffff     ................
  411444:	ffffffff ffffffff ffffffff ffffffff     ................
  411454:	ffffffff ffffffff ffffffff ffffffff     ................
  411464:	ffffffff ffffffff ffffffff ffffffff     ................
  411474:	ffffffff ffffffff ffffffff ffffffff     ................
  411484:	ffffffff ffffffff ffffffff ffffffff     ................
  411494:	ffffffff ffffffff ffffffff ffffffff     ................
  4114a4:	ffffffff ffffffff ffffffff ffffffff     ................
  4114b4:	ffffffff ffffffff ffffffff ffffffff     ................
  4114c4:	ffffffff ffffffff ffffffff ffffffff     ................
  4114d4:	ffffffff ffffffff ffffffff ffffffff     ................
  4114e4:	ffffffff ffffffff ffffffff ffffffff     ................
  4114f4:	ffffffff ffffffff ffffffff ffffffff     ................
  411504:	ffffffff ffffffff ffffffff ffffffff     ................
  411514:	ffffffff ffffffff ffffffff ffffffff     ................
  411524:	ffffffff ffffffff ffffffff ffffffff     ................
  411534:	ffffffff ffffffff ffffffff ffffffff     ................
  411544:	ffffffff ffffffff ffffffff ffffffff     ................
  411554:	ffffffff ffffffff ffffffff ffffffff     ................
  411564:	ffffffff ffffffff ffffffff ffffffff     ................
  411574:	ffffffff ffffffff ffffffff ffffffff     ................
  411584:	ffffffff ffffffff ffffffff ffffffff     ................
  411594:	ffffffff ffffffff ffffffff ffffffff     ................
  4115a4:	ffffffff ffffffff ffffffff ffffffff     ................
  4115b4:	ffffffff ffffffff ffffffff ffffffff     ................
  4115c4:	ffffffff ffffffff ffffffff ffffffff     ................
  4115d4:	ffffffff ffffffff ffffffff ffffffff     ................
  4115e4:	ffffffff ffffffff ffffffff ffffffff     ................
  4115f4:	ffffffff ffffffff ffffffff ffffffff     ................
  411604:	ffffffff ffffffff ffffffff ffffffff     ................
  411614:	ffffffff ffffffff ffffffff ffffffff     ................
  411624:	ffffffff ffffffff ffffffff ffffffff     ................
  411634:	ffffffff ffffffff ffffffff ffffffff     ................
  411644:	ffffffff ffffffff ffffffff ffffffff     ................
  411654:	ffffffff ffffffff ffffffff ffffffff     ................
  411664:	ffffffff ffffffff ffffffff ffffffff     ................
  411674:	ffffffff ffffffff ffffffff ffffffff     ................
  411684:	ffffffff ffffffff ffffffff ffffffff     ................
  411694:	ffffffff ffffffff ffffffff ffffffff     ................
  4116a4:	ffffffff ffffffff ffffffff ffffffff     ................
  4116b4:	ffffffff ffffffff ffffffff ffffffff     ................
  4116c4:	ffffffff ffffffff ffffffff ffffffff     ................
  4116d4:	ffffffff ffffffff ffffffff ffffffff     ................
  4116e4:	ffffffff ffffffff ffffffff ffffffff     ................
  4116f4:	ffffffff ffffffff ffffffff ffffffff     ................
  411704:	ffffffff ffffffff ffffffff ffffffff     ................
  411714:	ffffffff ffffffff ffffffff ffffffff     ................
  411724:	ffffffff ffffffff ffffffff ffffffff     ................
  411734:	ffffffff ffffffff ffffffff ffffffff     ................
  411744:	ffffffff ffffffff ffffffff ffffffff     ................
  411754:	ffffffff ffffffff ffffffff ffffffff     ................
  411764:	ffffffff ffffffff ffffffff ffffffff     ................
  411774:	ffffffff ffffffff ffffffff ffffffff     ................
  411784:	ffffffff ffffffff ffffffff ffffffff     ................
  411794:	ffffffff ffffffff ffffffff ffffffff     ................
  4117a4:	ffffffff ffffffff ffffffff ffffffff     ................
  4117b4:	ffffffff ffffffff ffffffff ffffffff     ................
  4117c4:	ffffffff ffffffff ffffffff ffffffff     ................
  4117d4:	ffffffff ffffffff ffffffff ffffffff     ................
  4117e4:	ffffffff ffffffff ffffffff ffffffff     ................
  4117f4:	ffffffff ffffffff ffffffff ffffffff     ................
  411804:	ffffffff ffffffff ffffffff ffffffff     ................
  411814:	ffffffff ffffffff ffffffff ffffffff     ................
  411824:	ffffffff ffffffff ffffffff ffffffff     ................
  411834:	ffffffff ffffffff ffffffff ffffffff     ................
  411844:	ffffffff ffffffff ffffffff ffffffff     ................
  411854:	ffffffff ffffffff ffffffff ffffffff     ................
  411864:	ffffffff ffffffff ffffffff ffffffff     ................
  411874:	ffffffff ffffffff ffffffff ffffffff     ................
  411884:	ffffffff ffffffff ffffffff ffffffff     ................
  411894:	ffffffff ffffffff ffffffff ffffffff     ................
  4118a4:	ffffffff ffffffff ffffffff ffffffff     ................
  4118b4:	ffffffff ffffffff ffffffff ffffffff     ................
  4118c4:	ffffffff ffffffff ffffffff ffffffff     ................
  4118d4:	ffffffff ffffffff ffffffff ffffffff     ................
  4118e4:	ffffffff ffffffff ffffffff ffffffff     ................
  4118f4:	ffffffff ffffffff ffffffff ffffffff     ................

00411904 <arial_72_0x35>:
  411904:	0040f1a4 00000028 00000054 00000008     ..@.(...T.......

00411914 <image_data_arial_72_0x36>:
  411914:	ffffffff ffffffff ffffffff ffffffff     ................
  411924:	ffffffff ffffffff ffffffff ffffffff     ................
  411934:	ffffffff ffffffff ffffffff ffffffff     ................
  411944:	ffffffff ffffffff ffffffff ffffffff     ................
  411954:	ffffffff ffffffff ffffffff ffffffff     ................
  411964:	ffffffff ffffffff ffffffff ffffffff     ................
  411974:	ffffffff ffffffff ffffffff ffffffff     ................
  411984:	ffffffff ffffffff ffffffff ffffffff     ................
  411994:	ffffffff ffffffff ffffffff ffffffff     ................
  4119a4:	ffffffff ffffffff ffffffff ffffffff     ................
  4119b4:	ffffffff ffffffff ffffffff ffffffff     ................
  4119c4:	ffffffff ffffffff ffffffff ffffffff     ................
  4119d4:	ffffffff ffffffff ffffffff ffffffff     ................
  4119e4:	ffffffff ffffffff ffffffff ffffffff     ................
  4119f4:	ffffffff ffffffff ffffffff ffffffff     ................
  411a04:	ffffffff ffffffff ffffffff ffffffff     ................
  411a14:	ffffffff ffffffff ffffffff ffffffff     ................
  411a24:	ffffffff ffffffff ffffffff ffffffff     ................
  411a34:	ffffffff ffffffff ffffffff ffffffff     ................
  411a44:	ffffffff ffffffff ffffffff ffffffff     ................
  411a54:	ffffffff ffffffff ffffffff ffffffff     ................
  411a64:	ffffffff ffffffff ffffffff ffffffff     ................
  411a74:	ffffffff ffffffff ffffffff ffffffff     ................
  411a84:	ffffffff ffffffff ffffffff ffffffff     ................
  411a94:	ffffffff ffffffff ffffffff ffffffff     ................
  411aa4:	ffffffff ffffffff ffffffff ffffffff     ................
  411ab4:	ffffffff ffffffff ffffffff ffffffff     ................
  411ac4:	ffffffff ffffffff ffffffff ffffffff     ................
  411ad4:	ffffffff ffffffff ffffffff ffffffff     ................
  411ae4:	ffffffff ffffffff ffffffff ffffffff     ................
  411af4:	ffffffff ffffffff ffffffff ffffffff     ................
  411b04:	ffffffff ffffffff ffffffff ffffffff     ................
  411b14:	ffffffff ffffffff ffffffff ffffffff     ................
  411b24:	ffffffff ffffffff ffffffff ffffffff     ................
  411b34:	ffffffff ffffffff ffffffff ffffffff     ................
  411b44:	ffffffff ffffffff ffffffff ffffffff     ................
  411b54:	ffffffff ffffffff ffffffff ffffffff     ................
  411b64:	ffffffff ffffffff ffffffff ffffffff     ................
  411b74:	ffffffff ffffffff ffffffff ffffffff     ................
  411b84:	ffffffff ffffffff ffffffff ffffffff     ................
  411b94:	ffffffff ffffffff ffffffff ffffffff     ................
  411ba4:	ffffffff ffffffff ffffffff ffffffff     ................
  411bb4:	ffffffff ffffffff ffffffff ffffffff     ................
  411bc4:	ffffffff ffffffff ffffffff ffffffff     ................
  411bd4:	ffffffff ffffffff ffffffff ffffffff     ................
  411be4:	ffffffff ffffffff ffffffff ffffffff     ................
  411bf4:	ffffffff ffffffff ffffffff ffffffff     ................
  411c04:	ffffffff ffffffff ffffffff ffffffff     ................
  411c14:	ffffffff ffffffff ffffffff ffffffff     ................
  411c24:	ffffffff ffffffff ffffffff ffffffff     ................
  411c34:	ffffffff ffffffff ffffffff ffffffff     ................
  411c44:	ffffffff ffffffff ffffffff ffffffff     ................
  411c54:	ffffffff ffffffff ffffffff ffffffff     ................
  411c64:	ffffffff ffffffff ffffffff ffffffff     ................
  411c74:	ffffffff ffffffff ffffffff ffffffff     ................
  411c84:	ffffffff ffffffff ffffffff ffffffff     ................
  411c94:	ffffffff ffffffff ffffffff ffffffff     ................
  411ca4:	ffffffff ffffffff ffffffff ffffffff     ................
  411cb4:	ffffffff ffffffff ffffffff ffffffff     ................
  411cc4:	ffffffff ffffffff ffffffff ffffffff     ................
  411cd4:	ffffffff ffffffff ffffffff ffffffff     ................
  411ce4:	ffffffff ffffffff ffffffff ffffffff     ................
  411cf4:	ffffffff ffffffff ffffffff ffffffff     ................
  411d04:	ffffffff ffffffff ffffffff ffffffff     ................
  411d14:	ffffffff ffffffff ffffffff ffffffff     ................
  411d24:	ffffffff ffffffff ffffffff ffffffff     ................
  411d34:	ffffffff ffffffff ffffffff ffffffff     ................
  411d44:	ffffffff ffffffff ffffffff ffffffff     ................
  411d54:	ffffffff ffffffff ffffffff ffffffff     ................
  411d64:	ffffffff ffffffff ffffffff ffffffff     ................
  411d74:	ffffffff ffffffff ffffffff ffffffff     ................
  411d84:	ffffffff ffffffff ffffffff ffffffff     ................
  411d94:	ffffffff ffffffff ffffffff ffffffff     ................
  411da4:	ffffffff ffffffff ffffffff ffffffff     ................
  411db4:	ffffffff ffffffff ffffffff ffffffff     ................
  411dc4:	ffffffff ffffffff ffffffff ffffffff     ................
  411dd4:	ffffffff ffffffff ffffffff ffffffff     ................
  411de4:	ffffffff ffffffff ffffffff ffffffff     ................
  411df4:	ffffffff ffffffff ffffffff ffffffff     ................
  411e04:	ffffffff ffffffff ffffffff ffffffff     ................
  411e14:	ffffffff ffffffff ffffffff ffffffff     ................
  411e24:	ffffffff ffffffff ffffffff ffffffff     ................
  411e34:	ffffffff ffffffff ffffffff ffffffff     ................
  411e44:	ffffffff ffffffff ffffffff ffffffff     ................
  411e54:	ffffffff ffffffff ffffffff ffffffff     ................
  411e64:	ffffffff ffffffff ffffffff ffffffff     ................
  411e74:	ffffffff ffffffff ffffffff ffffffff     ................
  411e84:	ffffffff ffffffff ffffffff ffffffff     ................
  411e94:	ffffffff ffffffff ffffffff ffffffff     ................
  411ea4:	ffffffff ffffffff ffffffff ffffffff     ................
  411eb4:	ffffffff ffffffff ffffffff ffffffff     ................
  411ec4:	ffffffff ffffffff ffffffff ffffffff     ................
  411ed4:	ffffffff ffffffff ffffffff ffffffff     ................
  411ee4:	ffffffff ffffffff ffffffff ffffffff     ................
  411ef4:	ffffffff ffffffff ffffffff ffffffff     ................
  411f04:	ffffffff ffffffff ffffffff ffffffff     ................
  411f14:	ffffffff ffffffff ffffffff ffffffff     ................
  411f24:	ffffffff ffffffff ffffffff ffffffff     ................
  411f34:	ffffffff ffffffff ffffffff ffffffff     ................
  411f44:	ffffffff ffffffff ffffffff ffffffff     ................
  411f54:	ffffffff ffffffff ffffffff ffffffff     ................
  411f64:	ffffffff ffffffff ffffffff ffffffff     ................
  411f74:	ffffffff ffffffff ffffffff ffffffff     ................
  411f84:	ffffffff ffffffff ffffffff ffffffff     ................
  411f94:	ffffffff ffffffff ffffffff ffffffff     ................
  411fa4:	ffffffff ffffffff ffffffff ffffffff     ................
  411fb4:	ffffffff ffffffff ffffffff ffffffff     ................
  411fc4:	ffffffff ffffffff ffffffff ffffffff     ................
  411fd4:	ffffffff ffffffff ffffffff ffffffff     ................
  411fe4:	ffffffff ffffffff ffffffff ffffffff     ................
  411ff4:	ffffffff ffffffff ffffffff ffffffff     ................
  412004:	ffffffff ffffffff ffffffff ffffffff     ................
  412014:	ffffffff ffffffff ffffffff ffffffff     ................
  412024:	ffffffff ffffffff ffffffff ffffffff     ................
  412034:	ffffffff ffffffff ffffffff ffffffff     ................
  412044:	ffffffff ffffffff ffffffff ffffffff     ................
  412054:	0000ffff ff0000ff 00ff0000 0000ff00     ................
  412064:	ff0000ff ffffffff ffffffff ffffffff     ................
  412074:	ffffffff ffffffff ffffffff ffffffff     ................
  412084:	ffffffff ffffffff ffffffff ffffffff     ................
  412094:	ffffffff ffffffff ffffffff ffffffff     ................
  4120a4:	ffffffff ffffffff ffffffff ffffffff     ................
  4120b4:	ffffffff ffffffff ffffffff 0000ffff     ................
  4120c4:	ff0000ff 00ff0000 0000ff00 ff0000ff     ................
  4120d4:	00ff0000 0000ff00 ff0000ff 00ff0000     ................
  4120e4:	0000ff00 ffffffff ffffffff ffffffff     ................
  4120f4:	ffffffff ffffffff ffffffff ffffffff     ................
  412104:	ffffffff ffffffff ffffffff ffffffff     ................
  412114:	ffffffff ffffffff ffffffff ffffffff     ................
  412124:	ffffffff ffffffff ffffffff ffffffff     ................
  412134:	00ff0000 0000ff00 ff0000ff 00ff0000     ................
  412144:	0000ff00 ff0000ff 00ff0000 0000ff00     ................
  412154:	ff0000ff 00ff0000 0000ff00 ff0000ff     ................
  412164:	ffff0000 ffffffff ffffffff ffffffff     ................
  412174:	ffffffff ffffffff ffffffff ffffffff     ................
  412184:	ffffffff ffffffff ffffffff ffffffff     ................
  412194:	ffffffff ffffffff ffffffff ffffffff     ................
  4121a4:	ffffffff ff0000ff 00ff0000 0000ff00     ................
  4121b4:	ff0000ff 00ff0000 0000ff00 ff0000ff     ................
  4121c4:	00ff0000 0000ff00 ff0000ff 00ff0000     ................
  4121d4:	0000ff00 ff0000ff 00ff0000 0000ff00     ................
  4121e4:	ffffffff ffffffff ffffffff ffffffff     ................
  4121f4:	ffffffff ffffffff ffffffff ffffffff     ................
  412204:	ffffffff ffffffff ffffffff ffffffff     ................
  412214:	ffffffff 00ffffff 0000ff00 ff0000ff     ................
  412224:	00ff0000 0000ff00 ff0000ff 00ff0000     ................
  412234:	0000ff00 ff0000ff 00ff0000 0000ff00     ................
  412244:	ff0000ff 00ff0000 0000ff00 ff0000ff     ................
  412254:	00ff0000 0000ff00 ff0000ff ffffffff     ................
  412264:	ffffffff ffffffff ffffffff ffffffff     ................
  412274:	ffffffff ffffffff ffffffff ffffffff     ................
  412284:	ffffffff ffffffff ffffffff 00ff0000     ................
  412294:	0000ff00 ff0000ff 00ff0000 0000ff00     ................
  4122a4:	ff0000ff 00ff0000 0000ff00 ff0000ff     ................
  4122b4:	00ff0000 0000ff00 ff0000ff 00ff0000     ................
  4122c4:	0000ff00 ff0000ff 00ff0000 0000ff00     ................
  4122d4:	ff0000ff ffffffff ffffffff ffffffff     ................
  4122e4:	ffffffff ffffffff ffffffff ffffffff     ................
  4122f4:	ffffffff ffffffff ffffffff ffffffff     ................
  412304:	ff0000ff 00ff0000 0000ff00 ff0000ff     ................
  412314:	00ff0000 0000ff00 ff0000ff 00ff0000     ................
  412324:	0000ff00 ff0000ff 00ff0000 0000ff00     ................
  412334:	ff0000ff 00ff0000 0000ff00 ff0000ff     ................
  412344:	00ff0000 0000ff00 ff0000ff ffff0000     ................
  412354:	ffffffff ffffffff ffffffff ffffffff     ................
  412364:	ffffffff ffffffff ffffffff ffffffff     ................
  412374:	ffffffff ffffffff ff0000ff 00ff0000     ................
  412384:	0000ff00 ff0000ff 00ff0000 0000ff00     ................
  412394:	ff0000ff 00ff0000 0000ff00 ff0000ff     ................
  4123a4:	00ff0000 0000ff00 ff0000ff 00ff0000     ................
  4123b4:	0000ff00 ff0000ff 00ff0000 0000ff00     ................
  4123c4:	ff0000ff 00ff0000 ffffff00 ffffffff     ................
  4123d4:	ffffffff ffffffff ffffffff ffffffff     ................
  4123e4:	ffffffff ffffffff ffffffff 0000ffff     ................
  4123f4:	ff0000ff 00ff0000 0000ff00 ff0000ff     ................
  412404:	00ff0000 0000ff00 ff0000ff 00ff0000     ................
  412414:	0000ff00 ffffffff 00ffffff 0000ff00     ................
  412424:	ff0000ff 00ff0000 0000ff00 ff0000ff     ................
  412434:	00ff0000 0000ff00 ff0000ff 00ff0000     ................
  412444:	ffffff00 ffffffff ffffffff ffffffff     ................
  412454:	ffffffff ffffffff ffffffff ffffffff     ................
  412464:	00ffffff 0000ff00 ff0000ff 00ff0000     ................
  412474:	0000ff00 ff0000ff 00ff0000 0000ff00     ................
  412484:	ff0000ff ffff0000 ffffffff ffffffff     ................
  412494:	ffffffff ffffffff ffffffff 00ff0000     ................
  4124a4:	0000ff00 ff0000ff 00ff0000 0000ff00     ................
  4124b4:	ff0000ff 00ff0000 0000ff00 ffffffff     ................
  4124c4:	ffffffff ffffffff ffffffff ffffffff     ................
  4124d4:	ffffffff ffffffff 00ffffff 0000ff00     ................
  4124e4:	ff0000ff 00ff0000 0000ff00 ff0000ff     ................
  4124f4:	00ff0000 0000ff00 ff0000ff ffffffff     ................
  412504:	ffffffff ffffffff ffffffff ffffffff     ................
  412514:	ffffffff 00ffffff 0000ff00 ff0000ff     ................
  412524:	00ff0000 0000ff00 ff0000ff 00ff0000     ................
  412534:	0000ff00 ffffffff ffffffff ffffffff     ................
  412544:	ffffffff ffffffff ffffffff ffffffff     ................
  412554:	00ffffff 0000ff00 ff0000ff 00ff0000     ................
  412564:	0000ff00 ff0000ff 00ff0000 0000ff00     ................
  412574:	ffffffff ffffffff ffffffff ffffffff     ................
  412584:	ffffffff ffffffff ffffffff 00ffffff     ................
  412594:	0000ff00 ff0000ff 00ff0000 0000ff00     ................
  4125a4:	ff0000ff 00ff0000 0000ff00 ffffffff     ................
  4125b4:	ffffffff ffffffff ffffffff ffffffff     ................
  4125c4:	ffffffff ffffffff 00ff0000 0000ff00     ................
  4125d4:	ff0000ff 00ff0000 0000ff00 ff0000ff     ................
  4125e4:	00ff0000 ffffff00 ffffffff ffffffff     ................
  4125f4:	ffffffff ffffffff ffffffff ffffffff     ................
  412604:	ffffffff ffffffff 0000ffff ff0000ff     ................
  412614:	00ff0000 0000ff00 ff0000ff 00ff0000     ................
  412624:	0000ff00 ffffffff ffffffff ffffffff     ................
  412634:	ffffffff ffffffff ffffffff ffffffff     ................
  412644:	00ff0000 0000ff00 ff0000ff 00ff0000     ................
  412654:	0000ff00 ff0000ff 00ff0000 ffffff00     ................
  412664:	ffffffff ffffffff ffffffff ffffffff     ................
  412674:	ffffffff ffffffff ffffffff ffffffff     ................
  412684:	0000ffff ff0000ff 00ff0000 0000ff00     ................
  412694:	ff0000ff ffffffff ffffffff ffffffff     ................
  4126a4:	ffffffff ffffffff ffffffff ffffffff     ................
  4126b4:	ffffffff ff0000ff 00ff0000 0000ff00     ................
  4126c4:	ff0000ff 00ff0000 0000ff00 ff0000ff     ................
  4126d4:	00ff0000 ffffff00 ffffffff ffffffff     ................
  4126e4:	ffffffff ffffffff ffffffff ffffffff     ................
  4126f4:	ffffffff ffffffff ffffffff ffffffff     ................
  412704:	ffffffff ffffffff ffffffff ffffffff     ................
  412714:	ffffffff ffffffff ffffffff ffffffff     ................
  412724:	ffffffff ffffffff ffffffff ff0000ff     ................
  412734:	00ff0000 0000ff00 ff0000ff 00ff0000     ................
  412744:	0000ff00 ff0000ff ffff0000 ffffffff     ................
  412754:	ffffffff ffffffff ffffffff ffffffff     ................
  412764:	ffffffff ffffffff ffffffff ffffffff     ................
  412774:	ffffffff ffffffff ffffffff ffffffff     ................
  412784:	ffffffff ffffffff ffffffff ffffffff     ................
  412794:	ffffffff ffffffff ffffffff ffffffff     ................
  4127a4:	ffffffff ff0000ff 00ff0000 0000ff00     ................
  4127b4:	ff0000ff 00ff0000 0000ff00 ff0000ff     ................
  4127c4:	ffff0000 ffffffff ffffffff ffffffff     ................
  4127d4:	ffffffff ffffffff ffffffff ffffffff     ................
  4127e4:	ffffffff ffffffff ffffffff ffffffff     ................
  4127f4:	ffffffff ffffffff ffffffff ffffffff     ................
  412804:	ffffffff ffffffff ffffffff ffffffff     ................
  412814:	ffffffff ffffffff ffffffff ff0000ff     ................
  412824:	00ff0000 0000ff00 ff0000ff 00ff0000     ................
  412834:	0000ff00 ff0000ff ffff0000 ffffffff     ................
  412844:	ffffffff ffffffff ffffffff ffffffff     ................
  412854:	ffffffff ffffffff ffffffff ffffffff     ................
  412864:	ffffffff ffffffff ffffffff ffffffff     ................
  412874:	ffffffff ffffffff ffffffff ffffffff     ................
  412884:	ffffffff ffffffff ffffffff ffffffff     ................
  412894:	ffffffff ff0000ff 00ff0000 0000ff00     ................
  4128a4:	ff0000ff 00ff0000 0000ff00 ff0000ff     ................
  4128b4:	ffff0000 ffffffff ffffffff ffffffff     ................
  4128c4:	ffffffff ffffffff ffffffff ffffffff     ................
  4128d4:	ffffffff ffffffff ffffffff ffffffff     ................
  4128e4:	ffffffff ffffffff ffffffff ffffffff     ................
  4128f4:	ffffffff ffffffff ffffffff ffffffff     ................
  412904:	ffffffff ffffffff ffffffff ff0000ff     ................
  412914:	00ff0000 0000ff00 ff0000ff 00ff0000     ................
  412924:	0000ff00 ff0000ff ffff0000 ffffffff     ................
  412934:	ffffffff 00ffffff 0000ff00 ff0000ff     ................
  412944:	00ff0000 0000ff00 ff0000ff 00ff0000     ................
  412954:	0000ff00 ffffffff ffffffff ffffffff     ................
  412964:	ffffffff ffffffff ffffffff ffffffff     ................
  412974:	ffffffff ffffffff ffffffff ffffffff     ................
  412984:	0000ffff ff0000ff 00ff0000 0000ff00     ................
  412994:	ff0000ff 00ff0000 0000ff00 ff0000ff     ................
  4129a4:	ffff0000 ffffffff ff0000ff 00ff0000     ................
  4129b4:	0000ff00 ff0000ff 00ff0000 0000ff00     ................
  4129c4:	ff0000ff 00ff0000 0000ff00 ff0000ff     ................
  4129d4:	ffff0000 ffffffff ffffffff ffffffff     ................
  4129e4:	ffffffff ffffffff ffffffff ffffffff     ................
  4129f4:	ffffffff ffffffff 0000ffff ff0000ff     ................
  412a04:	00ff0000 0000ff00 ff0000ff 00ff0000     ................
  412a14:	0000ff00 ff0000ff ffffffff 0000ffff     ................
  412a24:	ff0000ff 00ff0000 0000ff00 ff0000ff     ................
  412a34:	00ff0000 0000ff00 ff0000ff 00ff0000     ................
  412a44:	0000ff00 ff0000ff 00ff0000 ffffff00     ................
  412a54:	ffffffff ffffffff ffffffff ffffffff     ................
  412a64:	ffffffff ffffffff ffffffff ffffffff     ................
  412a74:	0000ffff ff0000ff 00ff0000 0000ff00     ................
  412a84:	ff0000ff 00ff0000 0000ff00 ff0000ff     ................
  412a94:	00ffffff 0000ff00 ff0000ff 00ff0000     ................
  412aa4:	0000ff00 ff0000ff 00ff0000 0000ff00     ................
  412ab4:	ff0000ff 00ff0000 0000ff00 ff0000ff     ................
  412ac4:	00ff0000 0000ff00 ffffffff ffffffff     ................
  412ad4:	ffffffff ffffffff ffffffff ffffffff     ................
  412ae4:	ffffffff ffffffff 0000ffff ff0000ff     ................
  412af4:	00ff0000 0000ff00 ff0000ff 00ff0000     ................
  412b04:	0000ff00 ff0000ff 00ff0000 0000ff00     ................
  412b14:	ff0000ff 00ff0000 0000ff00 ff0000ff     ................
  412b24:	00ff0000 0000ff00 ff0000ff 00ff0000     ................
  412b34:	0000ff00 ff0000ff 00ff0000 0000ff00     ................
  412b44:	ff0000ff ffffffff ffffffff ffffffff     ................
  412b54:	ffffffff ffffffff ffffffff ffffffff     ................
  412b64:	0000ffff ff0000ff 00ff0000 0000ff00     ................
  412b74:	ff0000ff 00ff0000 0000ff00 ff0000ff     ................
  412b84:	00ff0000 0000ff00 ff0000ff 00ff0000     ................
  412b94:	0000ff00 ff0000ff 00ff0000 0000ff00     ................
  412ba4:	ff0000ff 00ff0000 0000ff00 ff0000ff     ................
  412bb4:	00ff0000 0000ff00 ff0000ff ffff0000     ................
  412bc4:	ffffffff ffffffff ffffffff ffffffff     ................
  412bd4:	ffffffff ffffffff 0000ffff ff0000ff     ................
  412be4:	00ff0000 0000ff00 ff0000ff 00ff0000     ................
  412bf4:	0000ff00 ff0000ff 00ff0000 0000ff00     ................
  412c04:	ff0000ff 00ff0000 0000ff00 ff0000ff     ................
  412c14:	00ff0000 0000ff00 ff0000ff 00ff0000     ................
  412c24:	0000ff00 ff0000ff 00ff0000 0000ff00     ................
  412c34:	ff0000ff 00ff0000 ffffff00 ffffffff     ................
  412c44:	ffffffff ffffffff ffffffff ffffffff     ................
  412c54:	0000ffff ff0000ff 00ff0000 0000ff00     ................
  412c64:	ff0000ff 00ff0000 0000ff00 ff0000ff     ................
  412c74:	00ff0000 0000ff00 ff0000ff ffff0000     ................
  412c84:	ffffffff ffffffff ffffffff ffffffff     ................
  412c94:	ff0000ff 00ff0000 0000ff00 ff0000ff     ................
  412ca4:	00ff0000 0000ff00 ff0000ff 00ff0000     ................
  412cb4:	ffffff00 ffffffff ffffffff ffffffff     ................
  412cc4:	ffffffff ffffffff 0000ffff ff0000ff     ................
  412cd4:	00ff0000 0000ff00 ff0000ff 00ff0000     ................
  412ce4:	0000ff00 ff0000ff 00ff0000 0000ff00     ................
  412cf4:	ff0000ff ffffffff ffffffff ffffffff     ................
  412d04:	ffffffff ffffffff ffffffff 00ff0000     ................
  412d14:	0000ff00 ff0000ff 00ff0000 0000ff00     ................
  412d24:	ff0000ff 00ff0000 0000ff00 ffffffff     ................
  412d34:	ffffffff ffffffff ffffffff ffffffff     ................
  412d44:	0000ffff ff0000ff 00ff0000 0000ff00     ................
  412d54:	ff0000ff 00ff0000 0000ff00 ff0000ff     ................
  412d64:	00ff0000 0000ff00 ffffffff ffffffff     ................
  412d74:	ffffffff ffffffff ffffffff ffffffff     ................
  412d84:	ffffffff 00ffffff 0000ff00 ff0000ff     ................
  412d94:	00ff0000 0000ff00 ff0000ff 00ff0000     ................
  412da4:	0000ff00 ffffffff ffffffff ffffffff     ................
  412db4:	ffffffff ffffffff 0000ffff ff0000ff     ................
  412dc4:	00ff0000 0000ff00 ff0000ff 00ff0000     ................
  412dd4:	0000ff00 ff0000ff 00ff0000 ffffff00     ................
  412de4:	ffffffff ffffffff ffffffff ffffffff     ................
  412df4:	ffffffff ffffffff ffffffff ffffffff     ................
  412e04:	0000ffff ff0000ff 00ff0000 0000ff00     ................
  412e14:	ff0000ff 00ff0000 0000ff00 ff0000ff     ................
  412e24:	ffffffff ffffffff ffffffff ffffffff     ................
  412e34:	0000ffff ff0000ff 00ff0000 0000ff00     ................
  412e44:	ff0000ff 00ff0000 0000ff00 ff0000ff     ................
  412e54:	00ff0000 ffffff00 ffffffff ffffffff     ................
  412e64:	ffffffff ffffffff ffffffff ffffffff     ................
  412e74:	ffffffff ffffffff 0000ffff ff0000ff     ................
  412e84:	00ff0000 0000ff00 ff0000ff 00ff0000     ................
  412e94:	0000ff00 ff0000ff ffffffff ffffffff     ................
  412ea4:	ffffffff ffffffff 0000ffff ff0000ff     ................
  412eb4:	00ff0000 0000ff00 ff0000ff 00ff0000     ................
  412ec4:	0000ff00 ff0000ff ffff0000 ffffffff     ................
  412ed4:	ffffffff ffffffff ffffffff ffffffff     ................
  412ee4:	ffffffff ffffffff ffffffff ffffffff     ................
  412ef4:	0000ffff ff0000ff 00ff0000 0000ff00     ................
  412f04:	ff0000ff 00ff0000 0000ff00 ff0000ff     ................
  412f14:	ffffffff ffffffff ffffffff ffffffff     ................
  412f24:	0000ffff ff0000ff 00ff0000 0000ff00     ................
  412f34:	ff0000ff 00ff0000 0000ff00 ff0000ff     ................
  412f44:	ffff0000 ffffffff ffffffff ffffffff     ................
  412f54:	ffffffff ffffffff ffffffff ffffffff     ................
  412f64:	ffffffff ffffffff ffffffff ff0000ff     ................
  412f74:	00ff0000 0000ff00 ff0000ff 00ff0000     ................
  412f84:	0000ff00 ff0000ff ffffffff ffffffff     ................
  412f94:	ffffffff ffffffff 0000ffff ff0000ff     ................
  412fa4:	00ff0000 0000ff00 ff0000ff 00ff0000     ................
  412fb4:	0000ff00 ff0000ff ffff0000 ffffffff     ................
  412fc4:	ffffffff ffffffff ffffffff ffffffff     ................
  412fd4:	ffffffff ffffffff ffffffff ffffffff     ................
  412fe4:	ffffffff ff0000ff 00ff0000 0000ff00     ................
  412ff4:	ff0000ff 00ff0000 0000ff00 ff0000ff     ................
  413004:	ffffffff ffffffff ffffffff ffffffff     ................
  413014:	ffffffff ff0000ff 00ff0000 0000ff00     ................
  413024:	ff0000ff 00ff0000 0000ff00 ff0000ff     ................
  413034:	ffff0000 ffffffff ffffffff ffffffff     ................
  413044:	ffffffff ffffffff ffffffff ffffffff     ................
  413054:	ffffffff ffffffff ffffffff ff0000ff     ................
  413064:	00ff0000 0000ff00 ff0000ff 00ff0000     ................
  413074:	0000ff00 ff0000ff ffffffff ffffffff     ................
  413084:	ffffffff ffffffff ffffffff ff0000ff     ................
  413094:	00ff0000 0000ff00 ff0000ff 00ff0000     ................
  4130a4:	0000ff00 ff0000ff ffff0000 ffffffff     ................
  4130b4:	ffffffff ffffffff ffffffff ffffffff     ................
  4130c4:	ffffffff ffffffff ffffffff ffffffff     ................
  4130d4:	ffffffff ff0000ff 00ff0000 0000ff00     ................
  4130e4:	ff0000ff 00ff0000 0000ff00 ff0000ff     ................
  4130f4:	ffffffff ffffffff ffffffff ffffffff     ................
  413104:	ffffffff ff0000ff 00ff0000 0000ff00     ................
  413114:	ff0000ff 00ff0000 0000ff00 ff0000ff     ................
  413124:	ffff0000 ffffffff ffffffff ffffffff     ................
  413134:	ffffffff ffffffff ffffffff ffffffff     ................
  413144:	ffffffff ffffffff ffffffff ff0000ff     ................
  413154:	00ff0000 0000ff00 ff0000ff 00ff0000     ................
  413164:	0000ff00 ff0000ff ffffffff ffffffff     ................
  413174:	ffffffff ffffffff ffffffff ff0000ff     ................
  413184:	00ff0000 0000ff00 ff0000ff 00ff0000     ................
  413194:	0000ff00 ff0000ff ffff0000 ffffffff     ................
  4131a4:	ffffffff ffffffff ffffffff ffffffff     ................
  4131b4:	ffffffff ffffffff ffffffff ffffffff     ................
  4131c4:	ffffffff ff0000ff 00ff0000 0000ff00     ................
  4131d4:	ff0000ff 00ff0000 0000ff00 ff0000ff     ................
  4131e4:	ffffffff ffffffff ffffffff ffffffff     ................
  4131f4:	ffffffff ff0000ff 00ff0000 0000ff00     ................
  413204:	ff0000ff 00ff0000 0000ff00 ff0000ff     ................
  413214:	00ff0000 ffffff00 ffffffff ffffffff     ................
  413224:	ffffffff ffffffff ffffffff ffffffff     ................
  413234:	ffffffff ffffffff ffffffff ff0000ff     ................
  413244:	00ff0000 0000ff00 ff0000ff 00ff0000     ................
  413254:	0000ff00 ff0000ff ffffffff ffffffff     ................
  413264:	ffffffff ffffffff ffffffff ffffffff     ................
  413274:	00ff0000 0000ff00 ff0000ff 00ff0000     ................
  413284:	0000ff00 ff0000ff 00ff0000 ffffff00     ................
  413294:	ffffffff ffffffff ffffffff ffffffff     ................
  4132a4:	ffffffff ffffffff ffffffff ffffffff     ................
  4132b4:	0000ffff ff0000ff 00ff0000 0000ff00     ................
  4132c4:	ff0000ff 00ff0000 0000ff00 ff0000ff     ................
  4132d4:	ffffffff ffffffff ffffffff ffffffff     ................
  4132e4:	ffffffff ffffffff 00ff0000 0000ff00     ................
  4132f4:	ff0000ff 00ff0000 0000ff00 ff0000ff     ................
  413304:	00ff0000 ffffff00 ffffffff ffffffff     ................
  413314:	ffffffff ffffffff ffffffff ffffffff     ................
  413324:	ffffffff ffffffff 0000ffff ff0000ff     ................
  413334:	00ff0000 0000ff00 ff0000ff 00ff0000     ................
  413344:	0000ff00 ff0000ff ffffffff ffffffff     ................
  413354:	ffffffff ffffffff ffffffff ffffffff     ................
  413364:	00ff0000 0000ff00 ff0000ff 00ff0000     ................
  413374:	0000ff00 ff0000ff 00ff0000 0000ff00     ................
  413384:	ffffffff ffffffff ffffffff ffffffff     ................
  413394:	ffffffff ffffffff ffffffff ffffffff     ................
  4133a4:	0000ffff ff0000ff 00ff0000 0000ff00     ................
  4133b4:	ff0000ff 00ff0000 0000ff00 ff0000ff     ................
  4133c4:	ffffffff ffffffff ffffffff ffffffff     ................
  4133d4:	ffffffff ffffffff 00ffffff 0000ff00     ................
  4133e4:	ff0000ff 00ff0000 0000ff00 ff0000ff     ................
  4133f4:	00ff0000 0000ff00 ff0000ff ffffffff     ................
  413404:	ffffffff ffffffff ffffffff ffffffff     ................
  413414:	ffffffff 00ffffff 0000ff00 ff0000ff     ................
  413424:	00ff0000 0000ff00 ff0000ff 00ff0000     ................
  413434:	0000ff00 ffffffff ffffffff ffffffff     ................
  413444:	ffffffff ffffffff ffffffff ffffffff     ................
  413454:	00ffffff 0000ff00 ff0000ff 00ff0000     ................
  413464:	0000ff00 ff0000ff 00ff0000 0000ff00     ................
  413474:	ff0000ff ffff0000 ffffffff ffffffff     ................
  413484:	ffffffff ffffffff ffffffff 00ff0000     ................
  413494:	0000ff00 ff0000ff 00ff0000 0000ff00     ................
  4134a4:	ff0000ff 00ff0000 0000ff00 ffffffff     ................
  4134b4:	ffffffff ffffffff ffffffff ffffffff     ................
  4134c4:	ffffffff ffffffff ffffffff 0000ffff     ................
  4134d4:	ff0000ff 00ff0000 0000ff00 ff0000ff     ................
  4134e4:	00ff0000 0000ff00 ff0000ff 00ff0000     ................
  4134f4:	0000ff00 ffffffff ffffffff 0000ffff     ................
  413504:	ff0000ff 00ff0000 0000ff00 ff0000ff     ................
  413514:	00ff0000 0000ff00 ff0000ff 00ff0000     ................
  413524:	ffffff00 ffffffff ffffffff ffffffff     ................
  413534:	ffffffff ffffffff ffffffff ffffffff     ................
  413544:	ffffffff 0000ffff ff0000ff 00ff0000     ................
  413554:	0000ff00 ff0000ff 00ff0000 0000ff00     ................
  413564:	ff0000ff 00ff0000 0000ff00 ff0000ff     ................
  413574:	00ff0000 0000ff00 ff0000ff 00ff0000     ................
  413584:	0000ff00 ff0000ff 00ff0000 0000ff00     ................
  413594:	ff0000ff 00ff0000 ffffff00 ffffffff     ................
  4135a4:	ffffffff ffffffff ffffffff ffffffff     ................
  4135b4:	ffffffff ffffffff ffffffff ffffffff     ................
  4135c4:	ff0000ff 00ff0000 0000ff00 ff0000ff     ................
  4135d4:	00ff0000 0000ff00 ff0000ff 00ff0000     ................
  4135e4:	0000ff00 ff0000ff 00ff0000 0000ff00     ................
  4135f4:	ff0000ff 00ff0000 0000ff00 ff0000ff     ................
  413604:	00ff0000 0000ff00 ff0000ff ffff0000     ................
  413614:	ffffffff ffffffff ffffffff ffffffff     ................
  413624:	ffffffff ffffffff ffffffff ffffffff     ................
  413634:	ffffffff ffffffff ffffffff 00ff0000     ................
  413644:	0000ff00 ff0000ff 00ff0000 0000ff00     ................
  413654:	ff0000ff 00ff0000 0000ff00 ff0000ff     ................
  413664:	00ff0000 0000ff00 ff0000ff 00ff0000     ................
  413674:	0000ff00 ff0000ff 00ff0000 0000ff00     ................
  413684:	ff0000ff ffffffff ffffffff ffffffff     ................
  413694:	ffffffff ffffffff ffffffff ffffffff     ................
  4136a4:	ffffffff ffffffff ffffffff ffffffff     ................
  4136b4:	ffffffff 00ffffff 0000ff00 ff0000ff     ................
  4136c4:	00ff0000 0000ff00 ff0000ff 00ff0000     ................
  4136d4:	0000ff00 ff0000ff 00ff0000 0000ff00     ................
  4136e4:	ff0000ff 00ff0000 0000ff00 ff0000ff     ................
  4136f4:	00ff0000 0000ff00 ffffffff ffffffff     ................
  413704:	ffffffff ffffffff ffffffff ffffffff     ................
  413714:	ffffffff ffffffff ffffffff ffffffff     ................
  413724:	ffffffff ffffffff ffffffff ffffffff     ................
  413734:	0000ffff ff0000ff 00ff0000 0000ff00     ................
  413744:	ff0000ff 00ff0000 0000ff00 ff0000ff     ................
  413754:	00ff0000 0000ff00 ff0000ff 00ff0000     ................
  413764:	0000ff00 ff0000ff 00ff0000 ffffff00     ................
  413774:	ffffffff ffffffff ffffffff ffffffff     ................
  413784:	ffffffff ffffffff ffffffff ffffffff     ................
  413794:	ffffffff ffffffff ffffffff ffffffff     ................
  4137a4:	ffffffff ffffffff ffffffff ff0000ff     ................
  4137b4:	00ff0000 0000ff00 ff0000ff 00ff0000     ................
  4137c4:	0000ff00 ff0000ff 00ff0000 0000ff00     ................
  4137d4:	ff0000ff 00ff0000 0000ff00 ff0000ff     ................
  4137e4:	ffff0000 ffffffff ffffffff ffffffff     ................
  4137f4:	ffffffff ffffffff ffffffff ffffffff     ................
  413804:	ffffffff ffffffff ffffffff ffffffff     ................
  413814:	ffffffff ffffffff ffffffff ffffffff     ................
  413824:	ffffffff ffffffff 00ffffff 0000ff00     ................
  413834:	ff0000ff 00ff0000 0000ff00 ff0000ff     ................
  413844:	00ff0000 0000ff00 ff0000ff 00ff0000     ................
  413854:	0000ff00 ffffffff ffffffff ffffffff     ................
  413864:	ffffffff ffffffff ffffffff ffffffff     ................
  413874:	ffffffff ffffffff ffffffff ffffffff     ................
  413884:	ffffffff ffffffff ffffffff ffffffff     ................
  413894:	ffffffff ffffffff ffffffff ffffffff     ................
  4138a4:	ffffffff ffffffff ffffffff 00ff0000     ................
  4138b4:	0000ff00 ff0000ff 00ff0000 0000ff00     ................
  4138c4:	ff0000ff ffffffff ffffffff ffffffff     ................
  4138d4:	ffffffff ffffffff ffffffff ffffffff     ................
  4138e4:	ffffffff ffffffff ffffffff ffffffff     ................
  4138f4:	ffffffff ffffffff ffffffff ffffffff     ................
  413904:	ffffffff ffffffff ffffffff ffffffff     ................
  413914:	ffffffff ffffffff ffffffff ffffffff     ................
  413924:	ffffffff ffffffff ffffffff ffffffff     ................
  413934:	ffffffff ffffffff ffffffff ffffffff     ................
  413944:	ffffffff ffffffff ffffffff ffffffff     ................
  413954:	ffffffff ffffffff ffffffff ffffffff     ................
  413964:	ffffffff ffffffff ffffffff ffffffff     ................
  413974:	ffffffff ffffffff ffffffff ffffffff     ................
  413984:	ffffffff ffffffff ffffffff ffffffff     ................
  413994:	ffffffff ffffffff ffffffff ffffffff     ................
  4139a4:	ffffffff ffffffff ffffffff ffffffff     ................
  4139b4:	ffffffff ffffffff ffffffff ffffffff     ................
  4139c4:	ffffffff ffffffff ffffffff ffffffff     ................
  4139d4:	ffffffff ffffffff ffffffff ffffffff     ................
  4139e4:	ffffffff ffffffff ffffffff ffffffff     ................
  4139f4:	ffffffff ffffffff ffffffff ffffffff     ................
  413a04:	ffffffff ffffffff ffffffff ffffffff     ................
  413a14:	ffffffff ffffffff ffffffff ffffffff     ................
  413a24:	ffffffff ffffffff ffffffff ffffffff     ................
  413a34:	ffffffff ffffffff ffffffff ffffffff     ................
  413a44:	ffffffff ffffffff ffffffff ffffffff     ................
  413a54:	ffffffff ffffffff ffffffff ffffffff     ................
  413a64:	ffffffff ffffffff ffffffff ffffffff     ................
  413a74:	ffffffff ffffffff ffffffff ffffffff     ................
  413a84:	ffffffff ffffffff ffffffff ffffffff     ................
  413a94:	ffffffff ffffffff ffffffff ffffffff     ................
  413aa4:	ffffffff ffffffff ffffffff ffffffff     ................
  413ab4:	ffffffff ffffffff ffffffff ffffffff     ................
  413ac4:	ffffffff ffffffff ffffffff ffffffff     ................
  413ad4:	ffffffff ffffffff ffffffff ffffffff     ................
  413ae4:	ffffffff ffffffff ffffffff ffffffff     ................
  413af4:	ffffffff ffffffff ffffffff ffffffff     ................
  413b04:	ffffffff ffffffff ffffffff ffffffff     ................
  413b14:	ffffffff ffffffff ffffffff ffffffff     ................
  413b24:	ffffffff ffffffff ffffffff ffffffff     ................
  413b34:	ffffffff ffffffff ffffffff ffffffff     ................
  413b44:	ffffffff ffffffff ffffffff ffffffff     ................
  413b54:	ffffffff ffffffff ffffffff ffffffff     ................
  413b64:	ffffffff ffffffff ffffffff ffffffff     ................
  413b74:	ffffffff ffffffff ffffffff ffffffff     ................
  413b84:	ffffffff ffffffff ffffffff ffffffff     ................
  413b94:	ffffffff ffffffff ffffffff ffffffff     ................
  413ba4:	ffffffff ffffffff ffffffff ffffffff     ................
  413bb4:	ffffffff ffffffff ffffffff ffffffff     ................
  413bc4:	ffffffff ffffffff ffffffff ffffffff     ................
  413bd4:	ffffffff ffffffff ffffffff ffffffff     ................
  413be4:	ffffffff ffffffff ffffffff ffffffff     ................
  413bf4:	ffffffff ffffffff ffffffff ffffffff     ................
  413c04:	ffffffff ffffffff ffffffff ffffffff     ................
  413c14:	ffffffff ffffffff ffffffff ffffffff     ................
  413c24:	ffffffff ffffffff ffffffff ffffffff     ................
  413c34:	ffffffff ffffffff ffffffff ffffffff     ................
  413c44:	ffffffff ffffffff ffffffff ffffffff     ................
  413c54:	ffffffff ffffffff ffffffff ffffffff     ................
  413c64:	ffffffff ffffffff ffffffff ffffffff     ................
  413c74:	ffffffff ffffffff ffffffff ffffffff     ................
  413c84:	ffffffff ffffffff ffffffff ffffffff     ................
  413c94:	ffffffff ffffffff ffffffff ffffffff     ................
  413ca4:	ffffffff ffffffff ffffffff ffffffff     ................
  413cb4:	ffffffff ffffffff ffffffff ffffffff     ................
  413cc4:	ffffffff ffffffff ffffffff ffffffff     ................
  413cd4:	ffffffff ffffffff ffffffff ffffffff     ................
  413ce4:	ffffffff ffffffff ffffffff ffffffff     ................
  413cf4:	ffffffff ffffffff ffffffff ffffffff     ................
  413d04:	ffffffff ffffffff ffffffff ffffffff     ................
  413d14:	ffffffff ffffffff ffffffff ffffffff     ................
  413d24:	ffffffff ffffffff ffffffff ffffffff     ................
  413d34:	ffffffff ffffffff ffffffff ffffffff     ................
  413d44:	ffffffff ffffffff ffffffff ffffffff     ................
  413d54:	ffffffff ffffffff ffffffff ffffffff     ................
  413d64:	ffffffff ffffffff ffffffff ffffffff     ................
  413d74:	ffffffff ffffffff ffffffff ffffffff     ................
  413d84:	ffffffff ffffffff ffffffff ffffffff     ................
  413d94:	ffffffff ffffffff ffffffff ffffffff     ................
  413da4:	ffffffff ffffffff ffffffff ffffffff     ................
  413db4:	ffffffff ffffffff ffffffff ffffffff     ................
  413dc4:	ffffffff ffffffff ffffffff ffffffff     ................
  413dd4:	ffffffff ffffffff ffffffff ffffffff     ................
  413de4:	ffffffff ffffffff ffffffff ffffffff     ................
  413df4:	ffffffff ffffffff ffffffff ffffffff     ................
  413e04:	ffffffff ffffffff ffffffff ffffffff     ................
  413e14:	ffffffff ffffffff ffffffff ffffffff     ................
  413e24:	ffffffff ffffffff ffffffff ffffffff     ................
  413e34:	ffffffff ffffffff ffffffff ffffffff     ................
  413e44:	ffffffff ffffffff ffffffff ffffffff     ................
  413e54:	ffffffff ffffffff ffffffff ffffffff     ................
  413e64:	ffffffff ffffffff ffffffff ffffffff     ................
  413e74:	ffffffff ffffffff ffffffff ffffffff     ................
  413e84:	ffffffff ffffffff ffffffff ffffffff     ................
  413e94:	ffffffff ffffffff ffffffff ffffffff     ................
  413ea4:	ffffffff ffffffff ffffffff ffffffff     ................
  413eb4:	ffffffff ffffffff ffffffff ffffffff     ................
  413ec4:	ffffffff ffffffff ffffffff ffffffff     ................
  413ed4:	ffffffff ffffffff ffffffff ffffffff     ................
  413ee4:	ffffffff ffffffff ffffffff ffffffff     ................
  413ef4:	ffffffff ffffffff ffffffff ffffffff     ................
  413f04:	ffffffff ffffffff ffffffff ffffffff     ................
  413f14:	ffffffff ffffffff ffffffff ffffffff     ................
  413f24:	ffffffff ffffffff ffffffff ffffffff     ................
  413f34:	ffffffff ffffffff ffffffff ffffffff     ................
  413f44:	ffffffff ffffffff ffffffff ffffffff     ................
  413f54:	ffffffff ffffffff ffffffff ffffffff     ................
  413f64:	ffffffff ffffffff ffffffff ffffffff     ................
  413f74:	ffffffff ffffffff ffffffff ffffffff     ................
  413f84:	ffffffff ffffffff ffffffff ffffffff     ................
  413f94:	ffffffff ffffffff ffffffff ffffffff     ................
  413fa4:	ffffffff ffffffff ffffffff ffffffff     ................
  413fb4:	ffffffff ffffffff ffffffff ffffffff     ................
  413fc4:	ffffffff ffffffff ffffffff ffffffff     ................
  413fd4:	ffffffff ffffffff ffffffff ffffffff     ................
  413fe4:	ffffffff ffffffff ffffffff ffffffff     ................
  413ff4:	ffffffff ffffffff ffffffff ffffffff     ................
  414004:	ffffffff ffffffff ffffffff ffffffff     ................
  414014:	ffffffff ffffffff ffffffff ffffffff     ................
  414024:	ffffffff ffffffff ffffffff ffffffff     ................
  414034:	ffffffff ffffffff ffffffff ffffffff     ................
  414044:	ffffffff ffffffff ffffffff ffffffff     ................
  414054:	ffffffff ffffffff ffffffff ffffffff     ................
  414064:	ffffffff ffffffff ffffffff ffffffff     ................

00414074 <arial_72_0x36>:
  414074:	00411914 00000028 00000054 00000008     ..A.(...T.......

00414084 <image_data_arial_72_0x37>:
  414084:	ffffffff ffffffff ffffffff ffffffff     ................
  414094:	ffffffff ffffffff ffffffff ffffffff     ................
  4140a4:	ffffffff ffffffff ffffffff ffffffff     ................
  4140b4:	ffffffff ffffffff ffffffff ffffffff     ................
  4140c4:	ffffffff ffffffff ffffffff ffffffff     ................
  4140d4:	ffffffff ffffffff ffffffff ffffffff     ................
  4140e4:	ffffffff ffffffff ffffffff ffffffff     ................
  4140f4:	ffffffff ffffffff ffffffff ffffffff     ................
  414104:	ffffffff ffffffff ffffffff ffffffff     ................
  414114:	ffffffff ffffffff ffffffff ffffffff     ................
  414124:	ffffffff ffffffff ffffffff ffffffff     ................
  414134:	ffffffff ffffffff ffffffff ffffffff     ................
  414144:	ffffffff ffffffff ffffffff ffffffff     ................
  414154:	ffffffff ffffffff ffffffff ffffffff     ................
  414164:	ffffffff ffffffff ffffffff ffffffff     ................
  414174:	ffffffff ffffffff ffffffff ffffffff     ................
  414184:	ffffffff ffffffff ffffffff ffffffff     ................
  414194:	ffffffff ffffffff ffffffff ffffffff     ................
  4141a4:	ffffffff ffffffff ffffffff ffffffff     ................
  4141b4:	ffffffff ffffffff ffffffff ffffffff     ................
  4141c4:	ffffffff ffffffff ffffffff ffffffff     ................
  4141d4:	ffffffff ffffffff ffffffff ffffffff     ................
  4141e4:	ffffffff ffffffff ffffffff ffffffff     ................
  4141f4:	ffffffff ffffffff ffffffff ffffffff     ................
  414204:	ffffffff ffffffff ffffffff ffffffff     ................
  414214:	ffffffff ffffffff ffffffff ffffffff     ................
  414224:	ffffffff ffffffff ffffffff ffffffff     ................
  414234:	ffffffff ffffffff ffffffff ffffffff     ................
  414244:	ffffffff ffffffff ffffffff ffffffff     ................
  414254:	ffffffff ffffffff ffffffff ffffffff     ................
  414264:	ffffffff ffffffff ffffffff ffffffff     ................
  414274:	ffffffff ffffffff ffffffff ffffffff     ................
  414284:	ffffffff ffffffff ffffffff ffffffff     ................
  414294:	ffffffff ffffffff ffffffff ffffffff     ................
  4142a4:	ffffffff ffffffff ffffffff ffffffff     ................
  4142b4:	ffffffff ffffffff ffffffff ffffffff     ................
  4142c4:	ffffffff ffffffff ffffffff ffffffff     ................
  4142d4:	ffffffff ffffffff ffffffff ffffffff     ................
  4142e4:	ffffffff ffffffff ffffffff ffffffff     ................
  4142f4:	ffffffff ffffffff ffffffff ffffffff     ................
  414304:	ffffffff ffffffff ffffffff ffffffff     ................
  414314:	ffffffff ffffffff ffffffff ffffffff     ................
  414324:	ffffffff ffffffff ffffffff ffffffff     ................
  414334:	ffffffff ffffffff ffffffff ffffffff     ................
  414344:	ffffffff ffffffff ffffffff ffffffff     ................
  414354:	ffffffff ffffffff ffffffff ffffffff     ................
  414364:	ffffffff ffffffff ffffffff ffffffff     ................
  414374:	ffffffff ffffffff ffffffff ffffffff     ................
  414384:	ffffffff ffffffff ffffffff ffffffff     ................
  414394:	ffffffff ffffffff ffffffff ffffffff     ................
  4143a4:	ffffffff ffffffff ffffffff ffffffff     ................
  4143b4:	ffffffff ffffffff ffffffff ffffffff     ................
  4143c4:	ffffffff ffffffff ffffffff ffffffff     ................
  4143d4:	ffffffff ffffffff ffffffff ffffffff     ................
  4143e4:	ffffffff ffffffff ffffffff ffffffff     ................
  4143f4:	ffffffff ffffffff ffffffff ffffffff     ................
  414404:	ffffffff ffffffff ffffffff ffffffff     ................
  414414:	ffffffff ffffffff ffffffff ffffffff     ................
  414424:	ffffffff ffffffff ffffffff ffffffff     ................
  414434:	ffffffff ffffffff ffffffff ffffffff     ................
  414444:	ffffffff ffffffff ffffffff ffffffff     ................
  414454:	ffffffff ffffffff ffffffff ffffffff     ................
  414464:	ffffffff ffffffff ffffffff ffffffff     ................
  414474:	ffffffff ffffffff ffffffff ffffffff     ................
  414484:	ffffffff ffffffff ffffffff ffffffff     ................
  414494:	ffffffff ffffffff ffffffff ffffffff     ................
  4144a4:	ffffffff ffffffff ffffffff ffffffff     ................
  4144b4:	ffffffff ffffffff ffffffff ffffffff     ................
  4144c4:	ffffffff ffffffff ffffffff ffffffff     ................
  4144d4:	ffffffff ffffffff ffffffff ffffffff     ................
  4144e4:	ffffffff ffffffff ffffffff ffffffff     ................
  4144f4:	ffffffff ffffffff ffffffff ffffffff     ................
  414504:	ffffffff ffffffff ffffffff ffffffff     ................
  414514:	ffffffff ffffffff ffffffff ffffffff     ................
  414524:	ffffffff ffffffff ffffffff ffffffff     ................
  414534:	ffffffff ffffffff ffffffff ffffffff     ................
  414544:	ffffffff ffffffff ffffffff ffffffff     ................
  414554:	ffffffff ffffffff ffffffff ffffffff     ................
  414564:	ffffffff ffffffff ffffffff ffffffff     ................
  414574:	ffffffff ffffffff ffffffff ffffffff     ................
  414584:	ffffffff ffffffff ffffffff ffffffff     ................
  414594:	ffffffff ffffffff ffffffff ffffffff     ................
  4145a4:	ffffffff ffffffff ffffffff ffffffff     ................
  4145b4:	ffffffff ffffffff ffffffff ffffffff     ................
  4145c4:	ffffffff ffffffff ffffffff ffffffff     ................
  4145d4:	ffffffff ffffffff ffffffff ffffffff     ................
  4145e4:	ffffffff ffffffff ffffffff ffffffff     ................
  4145f4:	ffffffff ffffffff ffffffff ffffffff     ................
  414604:	ffffffff ffffffff ffffffff ffffffff     ................
  414614:	ffffffff ffffffff ffffffff ffffffff     ................
  414624:	ffffffff ffffffff ffffffff ffffffff     ................
  414634:	ffffffff ffffffff ffffffff ffffffff     ................
  414644:	ffffffff ffffffff ffffffff ffffffff     ................
  414654:	ffffffff ffffffff ffffffff ffffffff     ................
  414664:	ffffffff ffffffff ffffffff ffffffff     ................
  414674:	ffffffff ffffffff ffffffff ffffffff     ................
  414684:	ffffffff ffffffff ffffffff ffffffff     ................
  414694:	ffffffff ffffffff ffffffff ffffffff     ................
  4146a4:	ffffffff ffffffff ffffffff ffffffff     ................
  4146b4:	ffffffff ffffffff ffffffff ffffffff     ................
  4146c4:	ffffffff ffffffff ffffffff ffffffff     ................
  4146d4:	ffffffff ffffffff ffffffff ffffffff     ................
  4146e4:	ffffffff ffffffff ffffffff ffffffff     ................
  4146f4:	ffffffff ffffffff ffffffff ffffffff     ................
  414704:	ffffffff ffffffff ffffffff ffffffff     ................
  414714:	ffffffff ffffffff ffffffff ffffffff     ................
  414724:	ffffffff ffffffff ffffffff ffffffff     ................
  414734:	ffffffff ffffffff ffffffff ffffffff     ................
  414744:	ffffffff ffffffff ffffffff ffffffff     ................
  414754:	ffffffff ffffffff ffffffff ffffffff     ................
  414764:	ffffffff ffffffff ffffffff ffffffff     ................
  414774:	ffffffff ffffffff ffffffff ffffffff     ................
  414784:	ffffffff ffffffff ffffffff ffffffff     ................
  414794:	ffffffff ffffffff ffffffff ffffffff     ................
  4147a4:	ffffffff ffffffff ffffffff ffffffff     ................
  4147b4:	ffffffff ffffffff ffffffff ffffffff     ................
  4147c4:	ffffffff ffffffff ffffffff ffffffff     ................
  4147d4:	ffffffff ffffffff ffffffff ffffffff     ................
  4147e4:	ffffffff ffffffff ffffffff ffffffff     ................
  4147f4:	ffffffff ffffffff ffffffff ffffffff     ................
  414804:	ffffffff ffffffff 0000ffff ff0000ff     ................
  414814:	00ff0000 0000ff00 ff0000ff 00ff0000     ................
  414824:	0000ff00 ff0000ff 00ff0000 0000ff00     ................
  414834:	ff0000ff 00ff0000 0000ff00 ff0000ff     ................
  414844:	00ff0000 0000ff00 ff0000ff 00ff0000     ................
  414854:	0000ff00 ff0000ff 00ff0000 0000ff00     ................
  414864:	ff0000ff 00ff0000 0000ff00 ff0000ff     ................
  414874:	ffffffff ffffffff ffffffff ffffffff     ................
  414884:	0000ffff ff0000ff 00ff0000 0000ff00     ................
  414894:	ff0000ff 00ff0000 0000ff00 ff0000ff     ................
  4148a4:	00ff0000 0000ff00 ff0000ff 00ff0000     ................
  4148b4:	0000ff00 ff0000ff 00ff0000 0000ff00     ................
  4148c4:	ff0000ff 00ff0000 0000ff00 ff0000ff     ................
  4148d4:	00ff0000 0000ff00 ff0000ff 00ff0000     ................
  4148e4:	0000ff00 ff0000ff ffffffff ffffffff     ................
  4148f4:	ffffffff ffffffff 0000ffff ff0000ff     ................
  414904:	00ff0000 0000ff00 ff0000ff 00ff0000     ................
  414914:	0000ff00 ff0000ff 00ff0000 0000ff00     ................
  414924:	ff0000ff 00ff0000 0000ff00 ff0000ff     ................
  414934:	00ff0000 0000ff00 ff0000ff 00ff0000     ................
  414944:	0000ff00 ff0000ff 00ff0000 0000ff00     ................
  414954:	ff0000ff 00ff0000 0000ff00 ff0000ff     ................
  414964:	ffffffff ffffffff ffffffff ffffffff     ................
  414974:	0000ffff ff0000ff 00ff0000 0000ff00     ................
  414984:	ff0000ff 00ff0000 0000ff00 ff0000ff     ................
  414994:	00ff0000 0000ff00 ff0000ff 00ff0000     ................
  4149a4:	0000ff00 ff0000ff 00ff0000 0000ff00     ................
  4149b4:	ff0000ff 00ff0000 0000ff00 ff0000ff     ................
  4149c4:	00ff0000 0000ff00 ff0000ff 00ff0000     ................
  4149d4:	0000ff00 ff0000ff ffffffff ffffffff     ................
  4149e4:	ffffffff ffffffff 0000ffff ff0000ff     ................
  4149f4:	00ff0000 0000ff00 ff0000ff 00ff0000     ................
  414a04:	0000ff00 ff0000ff 00ff0000 0000ff00     ................
  414a14:	ff0000ff 00ff0000 0000ff00 ff0000ff     ................
  414a24:	00ff0000 0000ff00 ff0000ff 00ff0000     ................
  414a34:	0000ff00 ff0000ff 00ff0000 0000ff00     ................
  414a44:	ff0000ff 00ff0000 0000ff00 ff0000ff     ................
  414a54:	ffffffff ffffffff ffffffff ffffffff     ................
  414a64:	0000ffff ff0000ff 00ff0000 0000ff00     ................
  414a74:	ff0000ff 00ff0000 0000ff00 ff0000ff     ................
  414a84:	00ff0000 0000ff00 ff0000ff 00ff0000     ................
  414a94:	0000ff00 ff0000ff 00ff0000 0000ff00     ................
  414aa4:	ff0000ff 00ff0000 0000ff00 ff0000ff     ................
  414ab4:	00ff0000 0000ff00 ff0000ff 00ff0000     ................
  414ac4:	0000ff00 ff0000ff ffffffff ffffffff     ................
  414ad4:	ffffffff ffffffff 0000ffff ff0000ff     ................
  414ae4:	00ff0000 0000ff00 ff0000ff 00ff0000     ................
  414af4:	0000ff00 ff0000ff 00ff0000 0000ff00     ................
  414b04:	ff0000ff 00ff0000 0000ff00 ff0000ff     ................
  414b14:	00ff0000 0000ff00 ff0000ff 00ff0000     ................
  414b24:	0000ff00 ff0000ff 00ff0000 0000ff00     ................
  414b34:	ff0000ff 00ff0000 0000ff00 ff0000ff     ................
  414b44:	ffffffff ffffffff ffffffff ffffffff     ................
  414b54:	0000ffff ff0000ff 00ff0000 0000ff00     ................
  414b64:	ff0000ff 00ff0000 0000ff00 ff0000ff     ................
  414b74:	00ff0000 0000ff00 ff0000ff 00ff0000     ................
  414b84:	0000ff00 ff0000ff 00ff0000 0000ff00     ................
  414b94:	ff0000ff 00ff0000 0000ff00 ff0000ff     ................
  414ba4:	00ff0000 0000ff00 ff0000ff 00ff0000     ................
  414bb4:	0000ff00 ff0000ff ffffffff ffffffff     ................
  414bc4:	ffffffff ffffffff 0000ffff ff0000ff     ................
  414bd4:	00ff0000 0000ff00 ff0000ff 00ff0000     ................
  414be4:	0000ff00 ff0000ff 00ff0000 0000ff00     ................
  414bf4:	ff0000ff 00ff0000 0000ff00 ff0000ff     ................
  414c04:	00ff0000 0000ff00 ff0000ff 00ff0000     ................
  414c14:	0000ff00 ff0000ff 00ff0000 0000ff00     ................
  414c24:	ff0000ff 00ff0000 0000ff00 ffffffff     ................
  414c34:	ffffffff ffffffff ffffffff ffffffff     ................
  414c44:	ffffffff ffffffff ffffffff ffffffff     ................
  414c54:	ffffffff ffffffff ffffffff ffffffff     ................
  414c64:	ffffffff ffffffff ffffffff ffffffff     ................
  414c74:	ffffffff ffffffff ffffffff ffffffff     ................
  414c84:	ffffffff 00ff0000 0000ff00 ff0000ff     ................
  414c94:	00ff0000 0000ff00 ff0000ff 00ff0000     ................
  414ca4:	ffffff00 ffffffff ffffffff ffffffff     ................
  414cb4:	ffffffff ffffffff ffffffff ffffffff     ................
  414cc4:	ffffffff ffffffff ffffffff ffffffff     ................
  414cd4:	ffffffff ffffffff ffffffff ffffffff     ................
  414ce4:	ffffffff ffffffff ffffffff ffffffff     ................
  414cf4:	ffffffff ffffffff ffffffff 00ff0000     ................
  414d04:	0000ff00 ff0000ff 00ff0000 0000ff00     ................
  414d14:	ff0000ff ffff0000 ffffffff ffffffff     ................
  414d24:	ffffffff ffffffff ffffffff ffffffff     ................
  414d34:	ffffffff ffffffff ffffffff ffffffff     ................
  414d44:	ffffffff ffffffff ffffffff ffffffff     ................
  414d54:	ffffffff ffffffff ffffffff ffffffff     ................
  414d64:	ffffffff ffffffff ffffffff ffffffff     ................
  414d74:	ff0000ff 00ff0000 0000ff00 ff0000ff     ................
  414d84:	00ff0000 0000ff00 ff0000ff ffffffff     ................
  414d94:	ffffffff ffffffff ffffffff ffffffff     ................
  414da4:	ffffffff ffffffff ffffffff ffffffff     ................
  414db4:	ffffffff ffffffff ffffffff ffffffff     ................
  414dc4:	ffffffff ffffffff ffffffff ffffffff     ................
  414dd4:	ffffffff ffffffff ffffffff ffffffff     ................
  414de4:	ffffffff 0000ffff ff0000ff 00ff0000     ................
  414df4:	0000ff00 ff0000ff 00ff0000 0000ff00     ................
  414e04:	ff0000ff ffffffff ffffffff ffffffff     ................
  414e14:	ffffffff ffffffff ffffffff ffffffff     ................
  414e24:	ffffffff ffffffff ffffffff ffffffff     ................
  414e34:	ffffffff ffffffff ffffffff ffffffff     ................
  414e44:	ffffffff ffffffff ffffffff ffffffff     ................
  414e54:	ffffffff ffffffff 00ffffff 0000ff00     ................
  414e64:	ff0000ff 00ff0000 0000ff00 ff0000ff     ................
  414e74:	00ff0000 0000ff00 ffffffff ffffffff     ................
  414e84:	ffffffff ffffffff ffffffff ffffffff     ................
  414e94:	ffffffff ffffffff ffffffff ffffffff     ................
  414ea4:	ffffffff ffffffff ffffffff ffffffff     ................
  414eb4:	ffffffff ffffffff ffffffff ffffffff     ................
  414ec4:	ffffffff ffffffff ffffffff ffffffff     ................
  414ed4:	00ffffff 0000ff00 ff0000ff 00ff0000     ................
  414ee4:	0000ff00 ff0000ff 00ff0000 ffffff00     ................
  414ef4:	ffffffff ffffffff ffffffff ffffffff     ................
  414f04:	ffffffff ffffffff ffffffff ffffffff     ................
  414f14:	ffffffff ffffffff ffffffff ffffffff     ................
  414f24:	ffffffff ffffffff ffffffff ffffffff     ................
  414f34:	ffffffff ffffffff ffffffff ffffffff     ................
  414f44:	ffffffff ffffffff 00ff0000 0000ff00     ................
  414f54:	ff0000ff 00ff0000 0000ff00 ff0000ff     ................
  414f64:	00ff0000 ffffff00 ffffffff ffffffff     ................
  414f74:	ffffffff ffffffff ffffffff ffffffff     ................
  414f84:	ffffffff ffffffff ffffffff ffffffff     ................
  414f94:	ffffffff ffffffff ffffffff ffffffff     ................
  414fa4:	ffffffff ffffffff ffffffff ffffffff     ................
  414fb4:	ffffffff ffffffff ffffffff ffffffff     ................
  414fc4:	00ff0000 0000ff00 ff0000ff 00ff0000     ................
  414fd4:	0000ff00 ff0000ff ffff0000 ffffffff     ................
  414fe4:	ffffffff ffffffff ffffffff ffffffff     ................
  414ff4:	ffffffff ffffffff ffffffff ffffffff     ................
  415004:	ffffffff ffffffff ffffffff ffffffff     ................
  415014:	ffffffff ffffffff ffffffff ffffffff     ................
  415024:	ffffffff ffffffff ffffffff ffffffff     ................
  415034:	ffffffff ff0000ff 00ff0000 0000ff00     ................
  415044:	ff0000ff 00ff0000 0000ff00 ff0000ff     ................
  415054:	ffffffff ffffffff ffffffff ffffffff     ................
  415064:	ffffffff ffffffff ffffffff ffffffff     ................
  415074:	ffffffff ffffffff ffffffff ffffffff     ................
  415084:	ffffffff ffffffff ffffffff ffffffff     ................
  415094:	ffffffff ffffffff ffffffff ffffffff     ................
  4150a4:	ffffffff ffffffff 0000ffff ff0000ff     ................
  4150b4:	00ff0000 0000ff00 ff0000ff 00ff0000     ................
  4150c4:	0000ff00 ff0000ff ffffffff ffffffff     ................
  4150d4:	ffffffff ffffffff ffffffff ffffffff     ................
  4150e4:	ffffffff ffffffff ffffffff ffffffff     ................
  4150f4:	ffffffff ffffffff ffffffff ffffffff     ................
  415104:	ffffffff ffffffff ffffffff ffffffff     ................
  415114:	ffffffff ffffffff ffffffff ffffffff     ................
  415124:	0000ffff ff0000ff 00ff0000 0000ff00     ................
  415134:	ff0000ff 00ff0000 0000ff00 ffffffff     ................
  415144:	ffffffff ffffffff ffffffff ffffffff     ................
  415154:	ffffffff ffffffff ffffffff ffffffff     ................
  415164:	ffffffff ffffffff ffffffff ffffffff     ................
  415174:	ffffffff ffffffff ffffffff ffffffff     ................
  415184:	ffffffff ffffffff ffffffff ffffffff     ................
  415194:	ffffffff 00ffffff 0000ff00 ff0000ff     ................
  4151a4:	00ff0000 0000ff00 ff0000ff 00ff0000     ................
  4151b4:	0000ff00 ffffffff ffffffff ffffffff     ................
  4151c4:	ffffffff ffffffff ffffffff ffffffff     ................
  4151d4:	ffffffff ffffffff ffffffff ffffffff     ................
  4151e4:	ffffffff ffffffff ffffffff ffffffff     ................
  4151f4:	ffffffff ffffffff ffffffff ffffffff     ................
  415204:	ffffffff ffffffff ffffffff 00ffffff     ................
  415214:	0000ff00 ff0000ff 00ff0000 0000ff00     ................
  415224:	ff0000ff 00ff0000 ffffff00 ffffffff     ................
  415234:	ffffffff ffffffff ffffffff ffffffff     ................
  415244:	ffffffff ffffffff ffffffff ffffffff     ................
  415254:	ffffffff ffffffff ffffffff ffffffff     ................
  415264:	ffffffff ffffffff ffffffff ffffffff     ................
  415274:	ffffffff ffffffff ffffffff ffffffff     ................
  415284:	ffffffff 00ff0000 0000ff00 ff0000ff     ................
  415294:	00ff0000 0000ff00 ff0000ff 00ff0000     ................
  4152a4:	ffffff00 ffffffff ffffffff ffffffff     ................
  4152b4:	ffffffff ffffffff ffffffff ffffffff     ................
  4152c4:	ffffffff ffffffff ffffffff ffffffff     ................
  4152d4:	ffffffff ffffffff ffffffff ffffffff     ................
  4152e4:	ffffffff ffffffff ffffffff ffffffff     ................
  4152f4:	ffffffff ffffffff ffffffff 00ff0000     ................
  415304:	0000ff00 ff0000ff 00ff0000 0000ff00     ................
  415314:	ff0000ff ffff0000 ffffffff ffffffff     ................
  415324:	ffffffff ffffffff ffffffff ffffffff     ................
  415334:	ffffffff ffffffff ffffffff ffffffff     ................
  415344:	ffffffff ffffffff ffffffff ffffffff     ................
  415354:	ffffffff ffffffff ffffffff ffffffff     ................
  415364:	ffffffff ffffffff ffffffff ffffffff     ................
  415374:	ff0000ff 00ff0000 0000ff00 ff0000ff     ................
  415384:	00ff0000 0000ff00 ff0000ff ffff0000     ................
  415394:	ffffffff ffffffff ffffffff ffffffff     ................
  4153a4:	ffffffff ffffffff ffffffff ffffffff     ................
  4153b4:	ffffffff ffffffff ffffffff ffffffff     ................
  4153c4:	ffffffff ffffffff ffffffff ffffffff     ................
  4153d4:	ffffffff ffffffff ffffffff ffffffff     ................
  4153e4:	ffffffff ffffffff ff0000ff 00ff0000     ................
  4153f4:	0000ff00 ff0000ff 00ff0000 0000ff00     ................
  415404:	ff0000ff ffffffff ffffffff ffffffff     ................
  415414:	ffffffff ffffffff ffffffff ffffffff     ................
  415424:	ffffffff ffffffff ffffffff ffffffff     ................
  415434:	ffffffff ffffffff ffffffff ffffffff     ................
  415444:	ffffffff ffffffff ffffffff ffffffff     ................
  415454:	ffffffff ffffffff ffffffff ffffffff     ................
  415464:	ff0000ff 00ff0000 0000ff00 ff0000ff     ................
  415474:	00ff0000 0000ff00 ff0000ff ffffffff     ................
  415484:	ffffffff ffffffff ffffffff ffffffff     ................
  415494:	ffffffff ffffffff ffffffff ffffffff     ................
  4154a4:	ffffffff ffffffff ffffffff ffffffff     ................
  4154b4:	ffffffff ffffffff ffffffff ffffffff     ................
  4154c4:	ffffffff ffffffff ffffffff ffffffff     ................
  4154d4:	ffffffff 0000ffff ff0000ff 00ff0000     ................
  4154e4:	0000ff00 ff0000ff 00ff0000 0000ff00     ................
  4154f4:	ffffffff ffffffff ffffffff ffffffff     ................
  415504:	ffffffff ffffffff ffffffff ffffffff     ................
  415514:	ffffffff ffffffff ffffffff ffffffff     ................
  415524:	ffffffff ffffffff ffffffff ffffffff     ................
  415534:	ffffffff ffffffff ffffffff ffffffff     ................
  415544:	ffffffff ffffffff ffffffff 0000ffff     ................
  415554:	ff0000ff 00ff0000 0000ff00 ff0000ff     ................
  415564:	00ff0000 0000ff00 ffffffff ffffffff     ................
  415574:	ffffffff ffffffff ffffffff ffffffff     ................
  415584:	ffffffff ffffffff ffffffff ffffffff     ................
  415594:	ffffffff ffffffff ffffffff ffffffff     ................
  4155a4:	ffffffff ffffffff ffffffff ffffffff     ................
  4155b4:	ffffffff ffffffff ffffffff ffffffff     ................
  4155c4:	00ffffff 0000ff00 ff0000ff 00ff0000     ................
  4155d4:	0000ff00 ff0000ff 00ff0000 0000ff00     ................
  4155e4:	ffffffff ffffffff ffffffff ffffffff     ................
  4155f4:	ffffffff ffffffff ffffffff ffffffff     ................
  415604:	ffffffff ffffffff ffffffff ffffffff     ................
  415614:	ffffffff ffffffff ffffffff ffffffff     ................
  415624:	ffffffff ffffffff ffffffff ffffffff     ................
  415634:	ffffffff ffffffff 00ffffff 0000ff00     ................
  415644:	ff0000ff 00ff0000 0000ff00 ff0000ff     ................
  415654:	00ff0000 ffffff00 ffffffff ffffffff     ................
  415664:	ffffffff ffffffff ffffffff ffffffff     ................
  415674:	ffffffff ffffffff ffffffff ffffffff     ................
  415684:	ffffffff ffffffff ffffffff ffffffff     ................
  415694:	ffffffff ffffffff ffffffff ffffffff     ................
  4156a4:	ffffffff ffffffff ffffffff ffffffff     ................
  4156b4:	00ffffff 0000ff00 ff0000ff 00ff0000     ................
  4156c4:	0000ff00 ff0000ff 00ff0000 ffffff00     ................
  4156d4:	ffffffff ffffffff ffffffff ffffffff     ................
  4156e4:	ffffffff ffffffff ffffffff ffffffff     ................
  4156f4:	ffffffff ffffffff ffffffff ffffffff     ................
  415704:	ffffffff ffffffff ffffffff ffffffff     ................
  415714:	ffffffff ffffffff ffffffff ffffffff     ................
  415724:	ffffffff ffffffff 00ff0000 0000ff00     ................
  415734:	ff0000ff 00ff0000 0000ff00 ff0000ff     ................
  415744:	00ff0000 ffffff00 ffffffff ffffffff     ................
  415754:	ffffffff ffffffff ffffffff ffffffff     ................
  415764:	ffffffff ffffffff ffffffff ffffffff     ................
  415774:	ffffffff ffffffff ffffffff ffffffff     ................
  415784:	ffffffff ffffffff ffffffff ffffffff     ................
  415794:	ffffffff ffffffff ffffffff ffffffff     ................
  4157a4:	00ff0000 0000ff00 ff0000ff 00ff0000     ................
  4157b4:	0000ff00 ff0000ff ffff0000 ffffffff     ................
  4157c4:	ffffffff ffffffff ffffffff ffffffff     ................
  4157d4:	ffffffff ffffffff ffffffff ffffffff     ................
  4157e4:	ffffffff ffffffff ffffffff ffffffff     ................
  4157f4:	ffffffff ffffffff ffffffff ffffffff     ................
  415804:	ffffffff ffffffff ffffffff ffffffff     ................
  415814:	ffffffff ffffffff 00ff0000 0000ff00     ................
  415824:	ff0000ff 00ff0000 0000ff00 ff0000ff     ................
  415834:	ffff0000 ffffffff ffffffff ffffffff     ................
  415844:	ffffffff ffffffff ffffffff ffffffff     ................
  415854:	ffffffff ffffffff ffffffff ffffffff     ................
  415864:	ffffffff ffffffff ffffffff ffffffff     ................
  415874:	ffffffff ffffffff ffffffff ffffffff     ................
  415884:	ffffffff ffffffff ffffffff ff0000ff     ................
  415894:	00ff0000 0000ff00 ff0000ff 00ff0000     ................
  4158a4:	0000ff00 ff0000ff ffff0000 ffffffff     ................
  4158b4:	ffffffff ffffffff ffffffff ffffffff     ................
  4158c4:	ffffffff ffffffff ffffffff ffffffff     ................
  4158d4:	ffffffff ffffffff ffffffff ffffffff     ................
  4158e4:	ffffffff ffffffff ffffffff ffffffff     ................
  4158f4:	ffffffff ffffffff ffffffff ffffffff     ................
  415904:	ffffffff ff0000ff 00ff0000 0000ff00     ................
  415914:	ff0000ff 00ff0000 0000ff00 ff0000ff     ................
  415924:	ffff0000 ffffffff ffffffff ffffffff     ................
  415934:	ffffffff ffffffff ffffffff ffffffff     ................
  415944:	ffffffff ffffffff ffffffff ffffffff     ................
  415954:	ffffffff ffffffff ffffffff ffffffff     ................
  415964:	ffffffff ffffffff ffffffff ffffffff     ................
  415974:	ffffffff ffffffff ffffffff ff0000ff     ................
  415984:	00ff0000 0000ff00 ff0000ff 00ff0000     ................
  415994:	0000ff00 ff0000ff ffffffff ffffffff     ................
  4159a4:	ffffffff ffffffff ffffffff ffffffff     ................
  4159b4:	ffffffff ffffffff ffffffff ffffffff     ................
  4159c4:	ffffffff ffffffff ffffffff ffffffff     ................
  4159d4:	ffffffff ffffffff ffffffff ffffffff     ................
  4159e4:	ffffffff ffffffff ffffffff ffffffff     ................
  4159f4:	ffffffff ff0000ff 00ff0000 0000ff00     ................
  415a04:	ff0000ff 00ff0000 0000ff00 ff0000ff     ................
  415a14:	ffffffff ffffffff ffffffff ffffffff     ................
  415a24:	ffffffff ffffffff ffffffff ffffffff     ................
  415a34:	ffffffff ffffffff ffffffff ffffffff     ................
  415a44:	ffffffff ffffffff ffffffff ffffffff     ................
  415a54:	ffffffff ffffffff ffffffff ffffffff     ................
  415a64:	ffffffff ffffffff 0000ffff ff0000ff     ................
  415a74:	00ff0000 0000ff00 ff0000ff 00ff0000     ................
  415a84:	0000ff00 ff0000ff ffffffff ffffffff     ................
  415a94:	ffffffff ffffffff ffffffff ffffffff     ................
  415aa4:	ffffffff ffffffff ffffffff ffffffff     ................
  415ab4:	ffffffff ffffffff ffffffff ffffffff     ................
  415ac4:	ffffffff ffffffff ffffffff ffffffff     ................
  415ad4:	ffffffff ffffffff ffffffff ffffffff     ................
  415ae4:	0000ffff ff0000ff 00ff0000 0000ff00     ................
  415af4:	ff0000ff 00ff0000 0000ff00 ff0000ff     ................
  415b04:	ffffffff ffffffff ffffffff ffffffff     ................
  415b14:	ffffffff ffffffff ffffffff ffffffff     ................
  415b24:	ffffffff ffffffff ffffffff ffffffff     ................
  415b34:	ffffffff ffffffff ffffffff ffffffff     ................
  415b44:	ffffffff ffffffff ffffffff ffffffff     ................
  415b54:	ffffffff ffffffff 0000ffff ff0000ff     ................
  415b64:	00ff0000 0000ff00 ff0000ff 00ff0000     ................
  415b74:	0000ff00 ffffffff ffffffff ffffffff     ................
  415b84:	ffffffff ffffffff ffffffff ffffffff     ................
  415b94:	ffffffff ffffffff ffffffff ffffffff     ................
  415ba4:	ffffffff ffffffff ffffffff ffffffff     ................
  415bb4:	ffffffff ffffffff ffffffff ffffffff     ................
  415bc4:	ffffffff ffffffff ffffffff ffffffff     ................
  415bd4:	0000ffff ff0000ff 00ff0000 0000ff00     ................
  415be4:	ff0000ff 00ff0000 0000ff00 ffffffff     ................
  415bf4:	ffffffff ffffffff ffffffff ffffffff     ................
  415c04:	ffffffff ffffffff ffffffff ffffffff     ................
  415c14:	ffffffff ffffffff ffffffff ffffffff     ................
  415c24:	ffffffff ffffffff ffffffff ffffffff     ................
  415c34:	ffffffff ffffffff ffffffff ffffffff     ................
  415c44:	ffffffff ffffffff 0000ffff ff0000ff     ................
  415c54:	00ff0000 0000ff00 ff0000ff 00ff0000     ................
  415c64:	0000ff00 ffffffff ffffffff ffffffff     ................
  415c74:	ffffffff ffffffff ffffffff ffffffff     ................
  415c84:	ffffffff ffffffff ffffffff ffffffff     ................
  415c94:	ffffffff ffffffff ffffffff ffffffff     ................
  415ca4:	ffffffff ffffffff ffffffff ffffffff     ................
  415cb4:	ffffffff ffffffff ffffffff ffffffff     ................
  415cc4:	0000ffff ff0000ff 00ff0000 0000ff00     ................
  415cd4:	ff0000ff 00ff0000 0000ff00 ffffffff     ................
  415ce4:	ffffffff ffffffff ffffffff ffffffff     ................
  415cf4:	ffffffff ffffffff ffffffff ffffffff     ................
  415d04:	ffffffff ffffffff ffffffff ffffffff     ................
  415d14:	ffffffff ffffffff ffffffff ffffffff     ................
  415d24:	ffffffff ffffffff ffffffff ffffffff     ................
  415d34:	ffffffff 00ffffff 0000ff00 ff0000ff     ................
  415d44:	00ff0000 0000ff00 ff0000ff 00ff0000     ................
  415d54:	0000ff00 ffffffff ffffffff ffffffff     ................
  415d64:	ffffffff ffffffff ffffffff ffffffff     ................
  415d74:	ffffffff ffffffff ffffffff ffffffff     ................
  415d84:	ffffffff ffffffff ffffffff ffffffff     ................
  415d94:	ffffffff ffffffff ffffffff ffffffff     ................
  415da4:	ffffffff ffffffff ffffffff 00ffffff     ................
  415db4:	0000ff00 ff0000ff 00ff0000 0000ff00     ................
  415dc4:	ff0000ff 00ff0000 0000ff00 ffffffff     ................
  415dd4:	ffffffff ffffffff ffffffff ffffffff     ................
  415de4:	ffffffff ffffffff ffffffff ffffffff     ................
  415df4:	ffffffff ffffffff ffffffff ffffffff     ................
  415e04:	ffffffff ffffffff ffffffff ffffffff     ................
  415e14:	ffffffff ffffffff ffffffff ffffffff     ................
  415e24:	ffffffff 00ffffff 0000ff00 ff0000ff     ................
  415e34:	00ff0000 0000ff00 ff0000ff 00ff0000     ................
  415e44:	0000ff00 ffffffff ffffffff ffffffff     ................
  415e54:	ffffffff ffffffff ffffffff ffffffff     ................
  415e64:	ffffffff ffffffff ffffffff ffffffff     ................
  415e74:	ffffffff ffffffff ffffffff ffffffff     ................
  415e84:	ffffffff ffffffff ffffffff ffffffff     ................
  415e94:	ffffffff ffffffff ffffffff 00ffffff     ................
  415ea4:	0000ff00 ff0000ff 00ff0000 0000ff00     ................
  415eb4:	ff0000ff 00ff0000 0000ff00 ffffffff     ................
  415ec4:	ffffffff ffffffff ffffffff ffffffff     ................
  415ed4:	ffffffff ffffffff ffffffff ffffffff     ................
  415ee4:	ffffffff ffffffff ffffffff ffffffff     ................
  415ef4:	ffffffff ffffffff ffffffff ffffffff     ................
  415f04:	ffffffff ffffffff ffffffff ffffffff     ................
  415f14:	ffffffff 00ffffff 0000ff00 ff0000ff     ................
  415f24:	00ff0000 0000ff00 ff0000ff 00ff0000     ................
  415f34:	0000ff00 ffffffff ffffffff ffffffff     ................
  415f44:	ffffffff ffffffff ffffffff ffffffff     ................
  415f54:	ffffffff ffffffff ffffffff ffffffff     ................
  415f64:	ffffffff ffffffff ffffffff ffffffff     ................
  415f74:	ffffffff ffffffff ffffffff ffffffff     ................
  415f84:	ffffffff ffffffff ffffffff 00ffffff     ................
  415f94:	0000ff00 ff0000ff 00ff0000 0000ff00     ................
  415fa4:	ff0000ff 00ff0000 0000ff00 ffffffff     ................
  415fb4:	ffffffff ffffffff ffffffff ffffffff     ................
  415fc4:	ffffffff ffffffff ffffffff ffffffff     ................
  415fd4:	ffffffff ffffffff ffffffff ffffffff     ................
  415fe4:	ffffffff ffffffff ffffffff ffffffff     ................
  415ff4:	ffffffff ffffffff ffffffff ffffffff     ................
  416004:	ffffffff ffffffff ffffffff ffffffff     ................
  416014:	ffffffff ffffffff ffffffff ffffffff     ................
  416024:	ffffffff ffffffff ffffffff ffffffff     ................
  416034:	ffffffff ffffffff ffffffff ffffffff     ................
  416044:	ffffffff ffffffff ffffffff ffffffff     ................
  416054:	ffffffff ffffffff ffffffff ffffffff     ................
  416064:	ffffffff ffffffff ffffffff ffffffff     ................
  416074:	ffffffff ffffffff ffffffff ffffffff     ................
  416084:	ffffffff ffffffff ffffffff ffffffff     ................
  416094:	ffffffff ffffffff ffffffff ffffffff     ................
  4160a4:	ffffffff ffffffff ffffffff ffffffff     ................
  4160b4:	ffffffff ffffffff ffffffff ffffffff     ................
  4160c4:	ffffffff ffffffff ffffffff ffffffff     ................
  4160d4:	ffffffff ffffffff ffffffff ffffffff     ................
  4160e4:	ffffffff ffffffff ffffffff ffffffff     ................
  4160f4:	ffffffff ffffffff ffffffff ffffffff     ................
  416104:	ffffffff ffffffff ffffffff ffffffff     ................
  416114:	ffffffff ffffffff ffffffff ffffffff     ................
  416124:	ffffffff ffffffff ffffffff ffffffff     ................
  416134:	ffffffff ffffffff ffffffff ffffffff     ................
  416144:	ffffffff ffffffff ffffffff ffffffff     ................
  416154:	ffffffff ffffffff ffffffff ffffffff     ................
  416164:	ffffffff ffffffff ffffffff ffffffff     ................
  416174:	ffffffff ffffffff ffffffff ffffffff     ................
  416184:	ffffffff ffffffff ffffffff ffffffff     ................
  416194:	ffffffff ffffffff ffffffff ffffffff     ................
  4161a4:	ffffffff ffffffff ffffffff ffffffff     ................
  4161b4:	ffffffff ffffffff ffffffff ffffffff     ................
  4161c4:	ffffffff ffffffff ffffffff ffffffff     ................
  4161d4:	ffffffff ffffffff ffffffff ffffffff     ................
  4161e4:	ffffffff ffffffff ffffffff ffffffff     ................
  4161f4:	ffffffff ffffffff ffffffff ffffffff     ................
  416204:	ffffffff ffffffff ffffffff ffffffff     ................
  416214:	ffffffff ffffffff ffffffff ffffffff     ................
  416224:	ffffffff ffffffff ffffffff ffffffff     ................
  416234:	ffffffff ffffffff ffffffff ffffffff     ................
  416244:	ffffffff ffffffff ffffffff ffffffff     ................
  416254:	ffffffff ffffffff ffffffff ffffffff     ................
  416264:	ffffffff ffffffff ffffffff ffffffff     ................
  416274:	ffffffff ffffffff ffffffff ffffffff     ................
  416284:	ffffffff ffffffff ffffffff ffffffff     ................
  416294:	ffffffff ffffffff ffffffff ffffffff     ................
  4162a4:	ffffffff ffffffff ffffffff ffffffff     ................
  4162b4:	ffffffff ffffffff ffffffff ffffffff     ................
  4162c4:	ffffffff ffffffff ffffffff ffffffff     ................
  4162d4:	ffffffff ffffffff ffffffff ffffffff     ................
  4162e4:	ffffffff ffffffff ffffffff ffffffff     ................
  4162f4:	ffffffff ffffffff ffffffff ffffffff     ................
  416304:	ffffffff ffffffff ffffffff ffffffff     ................
  416314:	ffffffff ffffffff ffffffff ffffffff     ................
  416324:	ffffffff ffffffff ffffffff ffffffff     ................
  416334:	ffffffff ffffffff ffffffff ffffffff     ................
  416344:	ffffffff ffffffff ffffffff ffffffff     ................
  416354:	ffffffff ffffffff ffffffff ffffffff     ................
  416364:	ffffffff ffffffff ffffffff ffffffff     ................
  416374:	ffffffff ffffffff ffffffff ffffffff     ................
  416384:	ffffffff ffffffff ffffffff ffffffff     ................
  416394:	ffffffff ffffffff ffffffff ffffffff     ................
  4163a4:	ffffffff ffffffff ffffffff ffffffff     ................
  4163b4:	ffffffff ffffffff ffffffff ffffffff     ................
  4163c4:	ffffffff ffffffff ffffffff ffffffff     ................
  4163d4:	ffffffff ffffffff ffffffff ffffffff     ................
  4163e4:	ffffffff ffffffff ffffffff ffffffff     ................
  4163f4:	ffffffff ffffffff ffffffff ffffffff     ................
  416404:	ffffffff ffffffff ffffffff ffffffff     ................
  416414:	ffffffff ffffffff ffffffff ffffffff     ................
  416424:	ffffffff ffffffff ffffffff ffffffff     ................
  416434:	ffffffff ffffffff ffffffff ffffffff     ................
  416444:	ffffffff ffffffff ffffffff ffffffff     ................
  416454:	ffffffff ffffffff ffffffff ffffffff     ................
  416464:	ffffffff ffffffff ffffffff ffffffff     ................
  416474:	ffffffff ffffffff ffffffff ffffffff     ................
  416484:	ffffffff ffffffff ffffffff ffffffff     ................
  416494:	ffffffff ffffffff ffffffff ffffffff     ................
  4164a4:	ffffffff ffffffff ffffffff ffffffff     ................
  4164b4:	ffffffff ffffffff ffffffff ffffffff     ................
  4164c4:	ffffffff ffffffff ffffffff ffffffff     ................
  4164d4:	ffffffff ffffffff ffffffff ffffffff     ................
  4164e4:	ffffffff ffffffff ffffffff ffffffff     ................
  4164f4:	ffffffff ffffffff ffffffff ffffffff     ................
  416504:	ffffffff ffffffff ffffffff ffffffff     ................
  416514:	ffffffff ffffffff ffffffff ffffffff     ................
  416524:	ffffffff ffffffff ffffffff ffffffff     ................
  416534:	ffffffff ffffffff ffffffff ffffffff     ................
  416544:	ffffffff ffffffff ffffffff ffffffff     ................
  416554:	ffffffff ffffffff ffffffff ffffffff     ................
  416564:	ffffffff ffffffff ffffffff ffffffff     ................
  416574:	ffffffff ffffffff ffffffff ffffffff     ................
  416584:	ffffffff ffffffff ffffffff ffffffff     ................
  416594:	ffffffff ffffffff ffffffff ffffffff     ................
  4165a4:	ffffffff ffffffff ffffffff ffffffff     ................
  4165b4:	ffffffff ffffffff ffffffff ffffffff     ................
  4165c4:	ffffffff ffffffff ffffffff ffffffff     ................
  4165d4:	ffffffff ffffffff ffffffff ffffffff     ................
  4165e4:	ffffffff ffffffff ffffffff ffffffff     ................
  4165f4:	ffffffff ffffffff ffffffff ffffffff     ................
  416604:	ffffffff ffffffff ffffffff ffffffff     ................
  416614:	ffffffff ffffffff ffffffff ffffffff     ................
  416624:	ffffffff ffffffff ffffffff ffffffff     ................
  416634:	ffffffff ffffffff ffffffff ffffffff     ................
  416644:	ffffffff ffffffff ffffffff ffffffff     ................
  416654:	ffffffff ffffffff ffffffff ffffffff     ................
  416664:	ffffffff ffffffff ffffffff ffffffff     ................
  416674:	ffffffff ffffffff ffffffff ffffffff     ................
  416684:	ffffffff ffffffff ffffffff ffffffff     ................
  416694:	ffffffff ffffffff ffffffff ffffffff     ................
  4166a4:	ffffffff ffffffff ffffffff ffffffff     ................
  4166b4:	ffffffff ffffffff ffffffff ffffffff     ................
  4166c4:	ffffffff ffffffff ffffffff ffffffff     ................
  4166d4:	ffffffff ffffffff ffffffff ffffffff     ................
  4166e4:	ffffffff ffffffff ffffffff ffffffff     ................
  4166f4:	ffffffff ffffffff ffffffff ffffffff     ................
  416704:	ffffffff ffffffff ffffffff ffffffff     ................
  416714:	ffffffff ffffffff ffffffff ffffffff     ................
  416724:	ffffffff ffffffff ffffffff ffffffff     ................
  416734:	ffffffff ffffffff ffffffff ffffffff     ................
  416744:	ffffffff ffffffff ffffffff ffffffff     ................
  416754:	ffffffff ffffffff ffffffff ffffffff     ................
  416764:	ffffffff ffffffff ffffffff ffffffff     ................
  416774:	ffffffff ffffffff ffffffff ffffffff     ................
  416784:	ffffffff ffffffff ffffffff ffffffff     ................
  416794:	ffffffff ffffffff ffffffff ffffffff     ................
  4167a4:	ffffffff ffffffff ffffffff ffffffff     ................
  4167b4:	ffffffff ffffffff ffffffff ffffffff     ................
  4167c4:	ffffffff ffffffff ffffffff ffffffff     ................
  4167d4:	ffffffff ffffffff ffffffff ffffffff     ................

004167e4 <arial_72_0x37>:
  4167e4:	00414084 00000028 00000054 00000008     .@A.(...T.......

004167f4 <image_data_arial_72_0x38>:
  4167f4:	ffffffff ffffffff ffffffff ffffffff     ................
  416804:	ffffffff ffffffff ffffffff ffffffff     ................
  416814:	ffffffff ffffffff ffffffff ffffffff     ................
  416824:	ffffffff ffffffff ffffffff ffffffff     ................
  416834:	ffffffff ffffffff ffffffff ffffffff     ................
  416844:	ffffffff ffffffff ffffffff ffffffff     ................
  416854:	ffffffff ffffffff ffffffff ffffffff     ................
  416864:	ffffffff ffffffff ffffffff ffffffff     ................
  416874:	ffffffff ffffffff ffffffff ffffffff     ................
  416884:	ffffffff ffffffff ffffffff ffffffff     ................
  416894:	ffffffff ffffffff ffffffff ffffffff     ................
  4168a4:	ffffffff ffffffff ffffffff ffffffff     ................
  4168b4:	ffffffff ffffffff ffffffff ffffffff     ................
  4168c4:	ffffffff ffffffff ffffffff ffffffff     ................
  4168d4:	ffffffff ffffffff ffffffff ffffffff     ................
  4168e4:	ffffffff ffffffff ffffffff ffffffff     ................
  4168f4:	ffffffff ffffffff ffffffff ffffffff     ................
  416904:	ffffffff ffffffff ffffffff ffffffff     ................
  416914:	ffffffff ffffffff ffffffff ffffffff     ................
  416924:	ffffffff ffffffff ffffffff ffffffff     ................
  416934:	ffffffff ffffffff ffffffff ffffffff     ................
  416944:	ffffffff ffffffff ffffffff ffffffff     ................
  416954:	ffffffff ffffffff ffffffff ffffffff     ................
  416964:	ffffffff ffffffff ffffffff ffffffff     ................
  416974:	ffffffff ffffffff ffffffff ffffffff     ................
  416984:	ffffffff ffffffff ffffffff ffffffff     ................
  416994:	ffffffff ffffffff ffffffff ffffffff     ................
  4169a4:	ffffffff ffffffff ffffffff ffffffff     ................
  4169b4:	ffffffff ffffffff ffffffff ffffffff     ................
  4169c4:	ffffffff ffffffff ffffffff ffffffff     ................
  4169d4:	ffffffff ffffffff ffffffff ffffffff     ................
  4169e4:	ffffffff ffffffff ffffffff ffffffff     ................
  4169f4:	ffffffff ffffffff ffffffff ffffffff     ................
  416a04:	ffffffff ffffffff ffffffff ffffffff     ................
  416a14:	ffffffff ffffffff ffffffff ffffffff     ................
  416a24:	ffffffff ffffffff ffffffff ffffffff     ................
  416a34:	ffffffff ffffffff ffffffff ffffffff     ................
  416a44:	ffffffff ffffffff ffffffff ffffffff     ................
  416a54:	ffffffff ffffffff ffffffff ffffffff     ................
  416a64:	ffffffff ffffffff ffffffff ffffffff     ................
  416a74:	ffffffff ffffffff ffffffff ffffffff     ................
  416a84:	ffffffff ffffffff ffffffff ffffffff     ................
  416a94:	ffffffff ffffffff ffffffff ffffffff     ................
  416aa4:	ffffffff ffffffff ffffffff ffffffff     ................
  416ab4:	ffffffff ffffffff ffffffff ffffffff     ................
  416ac4:	ffffffff ffffffff ffffffff ffffffff     ................
  416ad4:	ffffffff ffffffff ffffffff ffffffff     ................
  416ae4:	ffffffff ffffffff ffffffff ffffffff     ................
  416af4:	ffffffff ffffffff ffffffff ffffffff     ................
  416b04:	ffffffff ffffffff ffffffff ffffffff     ................
  416b14:	ffffffff ffffffff ffffffff ffffffff     ................
  416b24:	ffffffff ffffffff ffffffff ffffffff     ................
  416b34:	ffffffff ffffffff ffffffff ffffffff     ................
  416b44:	ffffffff ffffffff ffffffff ffffffff     ................
  416b54:	ffffffff ffffffff ffffffff ffffffff     ................
  416b64:	ffffffff ffffffff ffffffff ffffffff     ................
  416b74:	ffffffff ffffffff ffffffff ffffffff     ................
  416b84:	ffffffff ffffffff ffffffff ffffffff     ................
  416b94:	ffffffff ffffffff ffffffff ffffffff     ................
  416ba4:	ffffffff ffffffff ffffffff ffffffff     ................
  416bb4:	ffffffff ffffffff ffffffff ffffffff     ................
  416bc4:	ffffffff ffffffff ffffffff ffffffff     ................
  416bd4:	ffffffff ffffffff ffffffff ffffffff     ................
  416be4:	ffffffff ffffffff ffffffff ffffffff     ................
  416bf4:	ffffffff ffffffff ffffffff ffffffff     ................
  416c04:	ffffffff ffffffff ffffffff ffffffff     ................
  416c14:	ffffffff ffffffff ffffffff ffffffff     ................
  416c24:	ffffffff ffffffff ffffffff ffffffff     ................
  416c34:	ffffffff ffffffff ffffffff ffffffff     ................
  416c44:	ffffffff ffffffff ffffffff ffffffff     ................
  416c54:	ffffffff ffffffff ffffffff ffffffff     ................
  416c64:	ffffffff ffffffff ffffffff ffffffff     ................
  416c74:	ffffffff ffffffff ffffffff ffffffff     ................
  416c84:	ffffffff ffffffff ffffffff ffffffff     ................
  416c94:	ffffffff ffffffff ffffffff ffffffff     ................
  416ca4:	ffffffff ffffffff ffffffff ffffffff     ................
  416cb4:	ffffffff ffffffff ffffffff ffffffff     ................
  416cc4:	ffffffff ffffffff ffffffff ffffffff     ................
  416cd4:	ffffffff ffffffff ffffffff ffffffff     ................
  416ce4:	ffffffff ffffffff ffffffff ffffffff     ................
  416cf4:	ffffffff ffffffff ffffffff ffffffff     ................
  416d04:	ffffffff ffffffff ffffffff ffffffff     ................
  416d14:	ffffffff ffffffff ffffffff ffffffff     ................
  416d24:	ffffffff ffffffff ffffffff ffffffff     ................
  416d34:	ffffffff ffffffff ffffffff ffffffff     ................
  416d44:	ffffffff ffffffff ffffffff ffffffff     ................
  416d54:	ffffffff ffffffff ffffffff ffffffff     ................
  416d64:	ffffffff ffffffff ffffffff ffffffff     ................
  416d74:	ffffffff ffffffff ffffffff ffffffff     ................
  416d84:	ffffffff ffffffff ffffffff ffffffff     ................
  416d94:	ffffffff ffffffff ffffffff ffffffff     ................
  416da4:	ffffffff ffffffff ffffffff ffffffff     ................
  416db4:	ffffffff ffffffff ffffffff ffffffff     ................
  416dc4:	ffffffff ffffffff ffffffff ffffffff     ................
  416dd4:	ffffffff ffffffff ffffffff ffffffff     ................
  416de4:	ffffffff ffffffff ffffffff ffffffff     ................
  416df4:	ffffffff ffffffff ffffffff ffffffff     ................
  416e04:	ffffffff ffffffff ffffffff ffffffff     ................
  416e14:	ffffffff ffffffff ffffffff ffffffff     ................
  416e24:	ffffffff ffffffff ffffffff ffffffff     ................
  416e34:	ffffffff ffffffff ffffffff ffffffff     ................
  416e44:	ffffffff ffffffff ffffffff ffffffff     ................
  416e54:	ffffffff ffffffff ffffffff ffffffff     ................
  416e64:	ffffffff ffffffff ffffffff ffffffff     ................
  416e74:	ffffffff ffffffff ffffffff ffffffff     ................
  416e84:	ffffffff ffffffff ffffffff ffffffff     ................
  416e94:	ffffffff ffffffff ffffffff ffffffff     ................
  416ea4:	ffffffff ffffffff ffffffff ffffffff     ................
  416eb4:	ffffffff ffffffff ffffffff ffffffff     ................
  416ec4:	ffffffff ffffffff ffffffff ffffffff     ................
  416ed4:	ffffffff ffffffff ffffffff ffffffff     ................
  416ee4:	ffffffff ffffffff ffffffff ffffffff     ................
  416ef4:	ffffffff ffffffff ffffffff ffffffff     ................
  416f04:	ffffffff ffffffff ffffffff ffffffff     ................
  416f14:	ffffffff ffffffff ffffffff ffffffff     ................
  416f24:	ffffffff ffffffff ff0000ff 00ff0000     ................
  416f34:	0000ff00 ff0000ff 00ff0000 ffffff00     ................
  416f44:	ffffffff ffffffff ffffffff ffffffff     ................
  416f54:	ffffffff ffffffff ffffffff ffffffff     ................
  416f64:	ffffffff ffffffff ffffffff ffffffff     ................
  416f74:	ffffffff ffffffff ffffffff ffffffff     ................
  416f84:	ffffffff ffffffff ffffffff ffffffff     ................
  416f94:	ffffffff ff0000ff 00ff0000 0000ff00     ................
  416fa4:	ff0000ff 00ff0000 0000ff00 ff0000ff     ................
  416fb4:	00ff0000 0000ff00 ff0000ff 00ff0000     ................
  416fc4:	ffffff00 ffffffff ffffffff ffffffff     ................
  416fd4:	ffffffff ffffffff ffffffff ffffffff     ................
  416fe4:	ffffffff ffffffff ffffffff ffffffff     ................
  416ff4:	ffffffff ffffffff ffffffff ffffffff     ................
  417004:	ffffffff 00ffffff 0000ff00 ff0000ff     ................
  417014:	00ff0000 0000ff00 ff0000ff 00ff0000     ................
  417024:	0000ff00 ff0000ff 00ff0000 0000ff00     ................
  417034:	ff0000ff 00ff0000 0000ff00 ff0000ff     ................
  417044:	ffffffff ffffffff ffffffff ffffffff     ................
  417054:	ffffffff ffffffff ffffffff ffffffff     ................
  417064:	ffffffff ffffffff ffffffff ffffffff     ................
  417074:	ffffffff ffffffff ffffffff 00ff0000     ................
  417084:	0000ff00 ff0000ff 00ff0000 0000ff00     ................
  417094:	ff0000ff 00ff0000 0000ff00 ff0000ff     ................
  4170a4:	00ff0000 0000ff00 ff0000ff 00ff0000     ................
  4170b4:	0000ff00 ff0000ff ffff0000 ffffffff     ................
  4170c4:	ffffffff ffffffff ffffffff ffffffff     ................
  4170d4:	ffffffff ffffffff ffffffff ffffffff     ................
  4170e4:	ffffffff ffffffff ffffffff ffffffff     ................
  4170f4:	ff0000ff 00ff0000 0000ff00 ff0000ff     ................
  417104:	00ff0000 0000ff00 ff0000ff 00ff0000     ................
  417114:	0000ff00 ff0000ff 00ff0000 0000ff00     ................
  417124:	ff0000ff 00ff0000 0000ff00 ff0000ff     ................
  417134:	00ff0000 0000ff00 ffffffff ffffffff     ................
  417144:	ffffffff ffffffff ffffffff ffffffff     ................
  417154:	ffffffff ffffffff ffffffff ffffffff     ................
  417164:	ffffffff 0000ffff ff0000ff 00ff0000     ................
  417174:	0000ff00 ff0000ff 00ff0000 0000ff00     ................
  417184:	ff0000ff 00ff0000 0000ff00 ff0000ff     ................
  417194:	00ff0000 0000ff00 ff0000ff 00ff0000     ................
  4171a4:	0000ff00 ff0000ff 00ff0000 0000ff00     ................
  4171b4:	ffffffff ffffffff ffffffff ffffffff     ................
  4171c4:	ffffffff ffffffff ffffffff ffffffff     ................
  4171d4:	ffffffff ffffffff 00ffffff 0000ff00     ................
  4171e4:	ff0000ff 00ff0000 0000ff00 ff0000ff     ................
  4171f4:	00ff0000 0000ff00 ff0000ff 00ff0000     ................
  417204:	0000ff00 ff0000ff 00ff0000 0000ff00     ................
  417214:	ff0000ff 00ff0000 0000ff00 ff0000ff     ................
  417224:	00ff0000 0000ff00 ff0000ff ffffffff     ................
  417234:	ffffffff ffffffff ffffffff ffffffff     ................
  417244:	ffffffff ffffffff ffffffff ffffffff     ................
  417254:	00ffffff 0000ff00 ff0000ff 00ff0000     ................
  417264:	0000ff00 ff0000ff 00ff0000 0000ff00     ................
  417274:	ff0000ff 00ff0000 0000ff00 ff0000ff     ................
  417284:	00ff0000 0000ff00 ff0000ff 00ff0000     ................
  417294:	0000ff00 ff0000ff 00ff0000 0000ff00     ................
  4172a4:	ff0000ff ffff0000 ffffffff ffffffff     ................
  4172b4:	ffffffff ffffffff ffffffff ffffffff     ................
  4172c4:	ffffffff ffffffff 00ff0000 0000ff00     ................
  4172d4:	ff0000ff 00ff0000 0000ff00 ff0000ff     ................
  4172e4:	00ff0000 0000ff00 ff0000ff ffffffff     ................
  4172f4:	ffffffff ffffffff 00ffffff 0000ff00     ................
  417304:	ff0000ff 00ff0000 0000ff00 ff0000ff     ................
  417314:	00ff0000 0000ff00 ff0000ff ffff0000     ................
  417324:	ffffffff ffffffff ffffffff ffffffff     ................
  417334:	ffffffff ffffffff ffffffff ffffffff     ................
  417344:	00ff0000 0000ff00 ff0000ff 00ff0000     ................
  417354:	0000ff00 ff0000ff 00ff0000 0000ff00     ................
  417364:	ffffffff ffffffff ffffffff ffffffff     ................
  417374:	ffffffff ffffffff ff0000ff 00ff0000     ................
  417384:	0000ff00 ff0000ff 00ff0000 0000ff00     ................
  417394:	ff0000ff 00ff0000 ffffff00 ffffffff     ................
  4173a4:	ffffffff ffffffff ffffffff ffffffff     ................
  4173b4:	ffffffff ffffffff 00ff0000 0000ff00     ................
  4173c4:	ff0000ff 00ff0000 0000ff00 ff0000ff     ................
  4173d4:	00ff0000 ffffff00 ffffffff ffffffff     ................
  4173e4:	ffffffff ffffffff ffffffff ffffffff     ................
  4173f4:	ffffffff 00ff0000 0000ff00 ff0000ff     ................
  417404:	00ff0000 0000ff00 ff0000ff 00ff0000     ................
  417414:	ffffff00 ffffffff ffffffff ffffffff     ................
  417424:	ffffffff ffffffff ffffffff ff0000ff     ................
  417434:	00ff0000 0000ff00 ff0000ff 00ff0000     ................
  417444:	0000ff00 ff0000ff ffff0000 ffffffff     ................
  417454:	ffffffff ffffffff ffffffff ffffffff     ................
  417464:	ffffffff ffffffff ffffffff 00ff0000     ................
  417474:	0000ff00 ff0000ff 00ff0000 0000ff00     ................
  417484:	ff0000ff 00ff0000 ffffff00 ffffffff     ................
  417494:	ffffffff ffffffff ffffffff ffffffff     ................
  4174a4:	ffffffff ff0000ff 00ff0000 0000ff00     ................
  4174b4:	ff0000ff 00ff0000 0000ff00 ff0000ff     ................
  4174c4:	ffff0000 ffffffff ffffffff ffffffff     ................
  4174d4:	ffffffff ffffffff ffffffff ffffffff     ................
  4174e4:	ffffffff 00ffffff 0000ff00 ff0000ff     ................
  4174f4:	00ff0000 0000ff00 ff0000ff 00ff0000     ................
  417504:	ffffff00 ffffffff ffffffff ffffffff     ................
  417514:	ffffffff ffffffff ffffffff ff0000ff     ................
  417524:	00ff0000 0000ff00 ff0000ff 00ff0000     ................
  417534:	0000ff00 ff0000ff ffff0000 ffffffff     ................
  417544:	ffffffff ffffffff ffffffff ffffffff     ................
  417554:	ffffffff ffffffff ffffffff 00ffffff     ................
  417564:	0000ff00 ff0000ff 00ff0000 0000ff00     ................
  417574:	ff0000ff 00ff0000 ffffff00 ffffffff     ................
  417584:	ffffffff ffffffff ffffffff ffffffff     ................
  417594:	ffffffff ff0000ff 00ff0000 0000ff00     ................
  4175a4:	ff0000ff 00ff0000 0000ff00 ff0000ff     ................
  4175b4:	ffff0000 ffffffff ffffffff ffffffff     ................
  4175c4:	ffffffff ffffffff ffffffff ffffffff     ................
  4175d4:	ffffffff 00ffffff 0000ff00 ff0000ff     ................
  4175e4:	00ff0000 0000ff00 ff0000ff 00ff0000     ................
  4175f4:	ffffff00 ffffffff ffffffff ffffffff     ................
  417604:	ffffffff ffffffff ffffffff ff0000ff     ................
  417614:	00ff0000 0000ff00 ff0000ff 00ff0000     ................
  417624:	0000ff00 ff0000ff ffff0000 ffffffff     ................
  417634:	ffffffff ffffffff ffffffff ffffffff     ................
  417644:	ffffffff ffffffff ffffffff 00ffffff     ................
  417654:	0000ff00 ff0000ff 00ff0000 0000ff00     ................
  417664:	ff0000ff 00ff0000 ffffff00 ffffffff     ................
  417674:	ffffffff ffffffff ffffffff ffffffff     ................
  417684:	ffffffff ffffffff 00ff0000 0000ff00     ................
  417694:	ff0000ff 00ff0000 0000ff00 ff0000ff     ................
  4176a4:	ffff0000 ffffffff ffffffff ffffffff     ................
  4176b4:	ffffffff ffffffff ffffffff ffffffff     ................
  4176c4:	ffffffff 00ffffff 0000ff00 ff0000ff     ................
  4176d4:	00ff0000 0000ff00 ff0000ff 00ff0000     ................
  4176e4:	ffffff00 ffffffff ffffffff ffffffff     ................
  4176f4:	ffffffff ffffffff ffffffff ffffffff     ................
  417704:	00ff0000 0000ff00 ff0000ff 00ff0000     ................
  417714:	0000ff00 ff0000ff ffff0000 ffffffff     ................
  417724:	ffffffff ffffffff ffffffff ffffffff     ................
  417734:	ffffffff ffffffff ffffffff 00ff0000     ................
  417744:	0000ff00 ff0000ff 00ff0000 0000ff00     ................
  417754:	ff0000ff ffff0000 ffffffff ffffffff     ................
  417764:	ffffffff ffffffff ffffffff ffffffff     ................
  417774:	ffffffff ffffffff 00ff0000 0000ff00     ................
  417784:	ff0000ff 00ff0000 0000ff00 ff0000ff     ................
  417794:	00ff0000 ffffff00 ffffffff ffffffff     ................
  4177a4:	ffffffff ffffffff ffffffff ffffffff     ................
  4177b4:	ff0000ff 00ff0000 0000ff00 ff0000ff     ................
  4177c4:	00ff0000 0000ff00 ff0000ff ffff0000     ................
  4177d4:	ffffffff ffffffff ffffffff ffffffff     ................
  4177e4:	ffffffff ffffffff ffffffff ffffffff     ................
  4177f4:	00ffffff 0000ff00 ff0000ff 00ff0000     ................
  417804:	0000ff00 ff0000ff 00ff0000 0000ff00     ................
  417814:	ffffffff ffffffff ffffffff ffffffff     ................
  417824:	ffffffff 0000ffff ff0000ff 00ff0000     ................
  417834:	0000ff00 ff0000ff 00ff0000 0000ff00     ................
  417844:	ff0000ff ffff0000 ffffffff ffffffff     ................
  417854:	ffffffff ffffffff ffffffff ffffffff     ................
  417864:	ffffffff ffffffff ffffffff 0000ffff     ................
  417874:	ff0000ff 00ff0000 0000ff00 ff0000ff     ................
  417884:	00ff0000 0000ff00 ff0000ff 00ff0000     ................
  417894:	0000ff00 ff0000ff 00ff0000 0000ff00     ................
  4178a4:	ff0000ff 00ff0000 0000ff00 ff0000ff     ................
  4178b4:	00ff0000 0000ff00 ff0000ff ffffffff     ................
  4178c4:	ffffffff ffffffff ffffffff ffffffff     ................
  4178d4:	ffffffff ffffffff ffffffff ffffffff     ................
  4178e4:	ffffffff 0000ffff ff0000ff 00ff0000     ................
  4178f4:	0000ff00 ff0000ff 00ff0000 0000ff00     ................
  417904:	ff0000ff 00ff0000 0000ff00 ff0000ff     ................
  417914:	00ff0000 0000ff00 ff0000ff 00ff0000     ................
  417924:	0000ff00 ff0000ff 00ff0000 0000ff00     ................
  417934:	ffffffff ffffffff ffffffff ffffffff     ................
  417944:	ffffffff ffffffff ffffffff ffffffff     ................
  417954:	ffffffff ffffffff ffffffff ffffffff     ................
  417964:	ffffffff 00ff0000 0000ff00 ff0000ff     ................
  417974:	00ff0000 0000ff00 ff0000ff 00ff0000     ................
  417984:	0000ff00 ff0000ff 00ff0000 0000ff00     ................
  417994:	ff0000ff 00ff0000 0000ff00 ff0000ff     ................
  4179a4:	00ff0000 ffffff00 ffffffff ffffffff     ................
  4179b4:	ffffffff ffffffff ffffffff ffffffff     ................
  4179c4:	ffffffff ffffffff ffffffff ffffffff     ................
  4179d4:	ffffffff ffffffff ffffffff 00ffffff     ................
  4179e4:	0000ff00 ff0000ff 00ff0000 0000ff00     ................
  4179f4:	ff0000ff 00ff0000 0000ff00 ff0000ff     ................
  417a04:	00ff0000 0000ff00 ff0000ff 00ff0000     ................
  417a14:	0000ff00 ff0000ff ffffffff ffffffff     ................
  417a24:	ffffffff ffffffff ffffffff ffffffff     ................
  417a34:	ffffffff ffffffff ffffffff ffffffff     ................
  417a44:	ffffffff ffffffff ffffffff ffffffff     ................
  417a54:	ffffffff ffffffff 0000ffff ff0000ff     ................
  417a64:	00ff0000 0000ff00 ff0000ff 00ff0000     ................
  417a74:	0000ff00 ff0000ff 00ff0000 0000ff00     ................
  417a84:	ff0000ff 00ff0000 0000ff00 ff0000ff     ................
  417a94:	ffffffff ffffffff ffffffff ffffffff     ................
  417aa4:	ffffffff ffffffff ffffffff ffffffff     ................
  417ab4:	ffffffff ffffffff ffffffff ffffffff     ................
  417ac4:	ffffffff ffffffff ffffffff 00ff0000     ................
  417ad4:	0000ff00 ff0000ff 00ff0000 0000ff00     ................
  417ae4:	ff0000ff 00ff0000 0000ff00 ff0000ff     ................
  417af4:	00ff0000 0000ff00 ff0000ff 00ff0000     ................
  417b04:	0000ff00 ff0000ff 00ff0000 ffffff00     ................
  417b14:	ffffffff ffffffff ffffffff ffffffff     ................
  417b24:	ffffffff ffffffff ffffffff ffffffff     ................
  417b34:	ffffffff ffffffff ffffffff ffffffff     ................
  417b44:	ff0000ff 00ff0000 0000ff00 ff0000ff     ................
  417b54:	00ff0000 0000ff00 ff0000ff 00ff0000     ................
  417b64:	0000ff00 ff0000ff 00ff0000 0000ff00     ................
  417b74:	ff0000ff 00ff0000 0000ff00 ff0000ff     ................
  417b84:	00ff0000 0000ff00 ffffffff ffffffff     ................
  417b94:	ffffffff ffffffff ffffffff ffffffff     ................
  417ba4:	ffffffff ffffffff ffffffff ffffffff     ................
  417bb4:	ffffffff 0000ffff ff0000ff 00ff0000     ................
  417bc4:	0000ff00 ff0000ff 00ff0000 0000ff00     ................
  417bd4:	ff0000ff 00ff0000 0000ff00 ff0000ff     ................
  417be4:	00ff0000 0000ff00 ff0000ff 00ff0000     ................
  417bf4:	0000ff00 ff0000ff 00ff0000 0000ff00     ................
  417c04:	ff0000ff ffffffff ffffffff ffffffff     ................
  417c14:	ffffffff ffffffff ffffffff ffffffff     ................
  417c24:	ffffffff ffffffff 00ffffff 0000ff00     ................
  417c34:	ff0000ff 00ff0000 0000ff00 ff0000ff     ................
  417c44:	00ff0000 0000ff00 ff0000ff 00ff0000     ................
  417c54:	ffffff00 ffffffff 00ff0000 0000ff00     ................
  417c64:	ff0000ff 00ff0000 0000ff00 ff0000ff     ................
  417c74:	00ff0000 0000ff00 ff0000ff ffff0000     ................
  417c84:	ffffffff ffffffff ffffffff ffffffff     ................
  417c94:	ffffffff ffffffff ffffffff ffffffff     ................
  417ca4:	00ff0000 0000ff00 ff0000ff 00ff0000     ................
  417cb4:	0000ff00 ff0000ff 00ff0000 0000ff00     ................
  417cc4:	ffffffff ffffffff ffffffff ffffffff     ................
  417cd4:	ffffffff ffffffff ff0000ff 00ff0000     ................
  417ce4:	0000ff00 ff0000ff 00ff0000 0000ff00     ................
  417cf4:	ff0000ff 00ff0000 ffffff00 ffffffff     ................
  417d04:	ffffffff ffffffff ffffffff ffffffff     ................
  417d14:	ffffffff ffffffff 00ff0000 0000ff00     ................
  417d24:	ff0000ff 00ff0000 0000ff00 ff0000ff     ................
  417d34:	00ff0000 ffffff00 ffffffff ffffffff     ................
  417d44:	ffffffff ffffffff ffffffff ffffffff     ................
  417d54:	ffffffff 00ff0000 0000ff00 ff0000ff     ................
  417d64:	00ff0000 0000ff00 ff0000ff 00ff0000     ................
  417d74:	ffffff00 ffffffff ffffffff ffffffff     ................
  417d84:	ffffffff ffffffff ffffffff ff0000ff     ................
  417d94:	00ff0000 0000ff00 ff0000ff 00ff0000     ................
  417da4:	0000ff00 ff0000ff ffff0000 ffffffff     ................
  417db4:	ffffffff ffffffff ffffffff ffffffff     ................
  417dc4:	ffffffff ffffffff ffffffff 00ffffff     ................
  417dd4:	0000ff00 ff0000ff 00ff0000 0000ff00     ................
  417de4:	ff0000ff 00ff0000 0000ff00 ffffffff     ................
  417df4:	ffffffff ffffffff ffffffff ffffffff     ................
  417e04:	ffffffff ff0000ff 00ff0000 0000ff00     ................
  417e14:	ff0000ff 00ff0000 0000ff00 ff0000ff     ................
  417e24:	ffff0000 ffffffff ffffffff ffffffff     ................
  417e34:	ffffffff ffffffff ffffffff ffffffff     ................
  417e44:	ffffffff 00ffffff 0000ff00 ff0000ff     ................
  417e54:	00ff0000 0000ff00 ff0000ff 00ff0000     ................
  417e64:	0000ff00 ffffffff ffffffff ffffffff     ................
  417e74:	ffffffff ffffffff 0000ffff ff0000ff     ................
  417e84:	00ff0000 0000ff00 ff0000ff 00ff0000     ................
  417e94:	0000ff00 ff0000ff ffffffff ffffffff     ................
  417ea4:	ffffffff ffffffff ffffffff ffffffff     ................
  417eb4:	ffffffff ffffffff ffffffff ffffffff     ................
  417ec4:	0000ffff ff0000ff 00ff0000 0000ff00     ................
  417ed4:	ff0000ff 00ff0000 0000ff00 ffffffff     ................
  417ee4:	ffffffff ffffffff ffffffff ffffffff     ................
  417ef4:	0000ffff ff0000ff 00ff0000 0000ff00     ................
  417f04:	ff0000ff 00ff0000 0000ff00 ff0000ff     ................
  417f14:	ffffffff ffffffff ffffffff ffffffff     ................
  417f24:	ffffffff ffffffff ffffffff ffffffff     ................
  417f34:	ffffffff ffffffff 0000ffff ff0000ff     ................
  417f44:	00ff0000 0000ff00 ff0000ff 00ff0000     ................
  417f54:	0000ff00 ff0000ff ffffffff ffffffff     ................
  417f64:	ffffffff ffffffff 0000ffff ff0000ff     ................
  417f74:	00ff0000 0000ff00 ff0000ff 00ff0000     ................
  417f84:	0000ff00 ff0000ff ffffffff ffffffff     ................
  417f94:	ffffffff ffffffff ffffffff ffffffff     ................
  417fa4:	ffffffff ffffffff ffffffff ffffffff     ................
  417fb4:	0000ffff ff0000ff 00ff0000 0000ff00     ................
  417fc4:	ff0000ff 00ff0000 0000ff00 ff0000ff     ................
  417fd4:	ffffffff ffffffff ffffffff ffffffff     ................
  417fe4:	0000ffff ff0000ff 00ff0000 0000ff00     ................
  417ff4:	ff0000ff 00ff0000 0000ff00 ff0000ff     ................
  418004:	ffffffff ffffffff ffffffff ffffffff     ................
  418014:	ffffffff ffffffff ffffffff ffffffff     ................
  418024:	ffffffff ffffffff 0000ffff ff0000ff     ................
  418034:	00ff0000 0000ff00 ff0000ff 00ff0000     ................
  418044:	0000ff00 ff0000ff ffffffff ffffffff     ................
  418054:	ffffffff ffffffff 0000ffff ff0000ff     ................
  418064:	00ff0000 0000ff00 ff0000ff 00ff0000     ................
  418074:	0000ff00 ff0000ff ffffffff ffffffff     ................
  418084:	ffffffff ffffffff ffffffff ffffffff     ................
  418094:	ffffffff ffffffff ffffffff ffffffff     ................
  4180a4:	0000ffff ff0000ff 00ff0000 0000ff00     ................
  4180b4:	ff0000ff 00ff0000 0000ff00 ff0000ff     ................
  4180c4:	ffffffff ffffffff ffffffff ffffffff     ................
  4180d4:	0000ffff ff0000ff 00ff0000 0000ff00     ................
  4180e4:	ff0000ff 00ff0000 0000ff00 ff0000ff     ................
  4180f4:	ffffffff ffffffff ffffffff ffffffff     ................
  418104:	ffffffff ffffffff ffffffff ffffffff     ................
  418114:	ffffffff ffffffff 0000ffff ff0000ff     ................
  418124:	00ff0000 0000ff00 ff0000ff 00ff0000     ................
  418134:	0000ff00 ff0000ff ffffffff ffffffff     ................
  418144:	ffffffff ffffffff 0000ffff ff0000ff     ................
  418154:	00ff0000 0000ff00 ff0000ff 00ff0000     ................
  418164:	0000ff00 ff0000ff ffffffff ffffffff     ................
  418174:	ffffffff ffffffff ffffffff ffffffff     ................
  418184:	ffffffff ffffffff ffffffff ffffffff     ................
  418194:	0000ffff ff0000ff 00ff0000 0000ff00     ................
  4181a4:	ff0000ff 00ff0000 0000ff00 ff0000ff     ................
  4181b4:	ffffffff ffffffff ffffffff ffffffff     ................
  4181c4:	0000ffff ff0000ff 00ff0000 0000ff00     ................
  4181d4:	ff0000ff 00ff0000 0000ff00 ff0000ff     ................
  4181e4:	ffffffff ffffffff ffffffff ffffffff     ................
  4181f4:	ffffffff ffffffff ffffffff ffffffff     ................
  418204:	ffffffff 00ffffff 0000ff00 ff0000ff     ................
  418214:	00ff0000 0000ff00 ff0000ff 00ff0000     ................
  418224:	0000ff00 ffffffff ffffffff ffffffff     ................
  418234:	ffffffff ffffffff 0000ffff ff0000ff     ................
  418244:	00ff0000 0000ff00 ff0000ff 00ff0000     ................
  418254:	0000ff00 ff0000ff ffff0000 ffffffff     ................
  418264:	ffffffff ffffffff ffffffff ffffffff     ................
  418274:	ffffffff ffffffff ffffffff 00ffffff     ................
  418284:	0000ff00 ff0000ff 00ff0000 0000ff00     ................
  418294:	ff0000ff 00ff0000 0000ff00 ffffffff     ................
  4182a4:	ffffffff ffffffff ffffffff ffffffff     ................
  4182b4:	ffffffff ff0000ff 00ff0000 0000ff00     ................
  4182c4:	ff0000ff 00ff0000 0000ff00 ff0000ff     ................
  4182d4:	00ff0000 ffffff00 ffffffff ffffffff     ................
  4182e4:	ffffffff ffffffff ffffffff ffffffff     ................
  4182f4:	ffffffff 00ff0000 0000ff00 ff0000ff     ................
  418304:	00ff0000 0000ff00 ff0000ff 00ff0000     ................
  418314:	0000ff00 ffffffff ffffffff ffffffff     ................
  418324:	ffffffff ffffffff ffffffff ff0000ff     ................
  418334:	00ff0000 0000ff00 ff0000ff 00ff0000     ................
  418344:	0000ff00 ff0000ff 00ff0000 0000ff00     ................
  418354:	ffffffff ffffffff ffffffff ffffffff     ................
  418364:	ffffffff ffffffff ff0000ff 00ff0000     ................
  418374:	0000ff00 ff0000ff 00ff0000 0000ff00     ................
  418384:	ff0000ff 00ff0000 0000ff00 ffffffff     ................
  418394:	ffffffff ffffffff ffffffff ffffffff     ................
  4183a4:	ffffffff ffffffff 00ff0000 0000ff00     ................
  4183b4:	ff0000ff 00ff0000 0000ff00 ff0000ff     ................
  4183c4:	00ff0000 0000ff00 ff0000ff ffffffff     ................
  4183d4:	ffffffff ffffffff ffffffff 0000ffff     ................
  4183e4:	ff0000ff 00ff0000 0000ff00 ff0000ff     ................
  4183f4:	00ff0000 0000ff00 ff0000ff 00ff0000     ................
  418404:	ffffff00 ffffffff ffffffff ffffffff     ................
  418414:	ffffffff ffffffff ffffffff ffffffff     ................
  418424:	00ff0000 0000ff00 ff0000ff 00ff0000     ................
  418434:	0000ff00 ff0000ff 00ff0000 0000ff00     ................
  418444:	ff0000ff 00ff0000 0000ff00 ff0000ff     ................
  418454:	00ff0000 0000ff00 ff0000ff 00ff0000     ................
  418464:	0000ff00 ff0000ff 00ff0000 0000ff00     ................
  418474:	ff0000ff 00ff0000 ffffff00 ffffffff     ................
  418484:	ffffffff ffffffff ffffffff ffffffff     ................
  418494:	ffffffff ffffffff 00ffffff 0000ff00     ................
  4184a4:	ff0000ff 00ff0000 0000ff00 ff0000ff     ................
  4184b4:	00ff0000 0000ff00 ff0000ff 00ff0000     ................
  4184c4:	0000ff00 ff0000ff 00ff0000 0000ff00     ................
  4184d4:	ff0000ff 00ff0000 0000ff00 ff0000ff     ................
  4184e4:	00ff0000 0000ff00 ff0000ff ffff0000     ................
  4184f4:	ffffffff ffffffff ffffffff ffffffff     ................
  418504:	ffffffff ffffffff ffffffff ffffffff     ................
  418514:	ffffffff 0000ffff ff0000ff 00ff0000     ................
  418524:	0000ff00 ff0000ff 00ff0000 0000ff00     ................
  418534:	ff0000ff 00ff0000 0000ff00 ff0000ff     ................
  418544:	00ff0000 0000ff00 ff0000ff 00ff0000     ................
  418554:	0000ff00 ff0000ff 00ff0000 0000ff00     ................
  418564:	ff0000ff ffffffff ffffffff ffffffff     ................
  418574:	ffffffff ffffffff ffffffff ffffffff     ................
  418584:	ffffffff ffffffff ffffffff ffffffff     ................
  418594:	ff0000ff 00ff0000 0000ff00 ff0000ff     ................
  4185a4:	00ff0000 0000ff00 ff0000ff 00ff0000     ................
  4185b4:	0000ff00 ff0000ff 00ff0000 0000ff00     ................
  4185c4:	ff0000ff 00ff0000 0000ff00 ff0000ff     ................
  4185d4:	00ff0000 0000ff00 ffffffff ffffffff     ................
  4185e4:	ffffffff ffffffff ffffffff ffffffff     ................
  4185f4:	ffffffff ffffffff ffffffff ffffffff     ................
  418604:	ffffffff ffffffff ffffffff 00ff0000     ................
  418614:	0000ff00 ff0000ff 00ff0000 0000ff00     ................
  418624:	ff0000ff 00ff0000 0000ff00 ff0000ff     ................
  418634:	00ff0000 0000ff00 ff0000ff 00ff0000     ................
  418644:	0000ff00 ff0000ff 00ff0000 ffffff00     ................
  418654:	ffffffff ffffffff ffffffff ffffffff     ................
  418664:	ffffffff ffffffff ffffffff ffffffff     ................
  418674:	ffffffff ffffffff ffffffff ffffffff     ................
  418684:	ffffffff 00ffffff 0000ff00 ff0000ff     ................
  418694:	00ff0000 0000ff00 ff0000ff 00ff0000     ................
  4186a4:	0000ff00 ff0000ff 00ff0000 0000ff00     ................
  4186b4:	ff0000ff 00ff0000 0000ff00 ff0000ff     ................
  4186c4:	ffff0000 ffffffff ffffffff ffffffff     ................
  4186d4:	ffffffff ffffffff ffffffff ffffffff     ................
  4186e4:	ffffffff ffffffff ffffffff ffffffff     ................
  4186f4:	ffffffff ffffffff ffffffff ffffffff     ................
  418704:	ffffffff ffffffff 00ff0000 0000ff00     ................
  418714:	ff0000ff 00ff0000 0000ff00 ff0000ff     ................
  418724:	00ff0000 0000ff00 ff0000ff 00ff0000     ................
  418734:	0000ff00 ffffffff ffffffff ffffffff     ................
  418744:	ffffffff ffffffff ffffffff ffffffff     ................
  418754:	ffffffff ffffffff ffffffff ffffffff     ................
  418764:	ffffffff ffffffff ffffffff ffffffff     ................
  418774:	ffffffff ffffffff ffffffff ffffffff     ................
  418784:	ffffffff ffffffff ff0000ff 00ff0000     ................
  418794:	0000ff00 ff0000ff 00ff0000 0000ff00     ................
  4187a4:	ffffffff ffffffff ffffffff ffffffff     ................
  4187b4:	ffffffff ffffffff ffffffff ffffffff     ................
  4187c4:	ffffffff ffffffff ffffffff ffffffff     ................
  4187d4:	ffffffff ffffffff ffffffff ffffffff     ................
  4187e4:	ffffffff ffffffff ffffffff ffffffff     ................
  4187f4:	ffffffff ffffffff ffffffff ffffffff     ................
  418804:	ffffffff ffffffff ffffffff ffffffff     ................
  418814:	ffffffff ffffffff ffffffff ffffffff     ................
  418824:	ffffffff ffffffff ffffffff ffffffff     ................
  418834:	ffffffff ffffffff ffffffff ffffffff     ................
  418844:	ffffffff ffffffff ffffffff ffffffff     ................
  418854:	ffffffff ffffffff ffffffff ffffffff     ................
  418864:	ffffffff ffffffff ffffffff ffffffff     ................
  418874:	ffffffff ffffffff ffffffff ffffffff     ................
  418884:	ffffffff ffffffff ffffffff ffffffff     ................
  418894:	ffffffff ffffffff ffffffff ffffffff     ................
  4188a4:	ffffffff ffffffff ffffffff ffffffff     ................
  4188b4:	ffffffff ffffffff ffffffff ffffffff     ................
  4188c4:	ffffffff ffffffff ffffffff ffffffff     ................
  4188d4:	ffffffff ffffffff ffffffff ffffffff     ................
  4188e4:	ffffffff ffffffff ffffffff ffffffff     ................
  4188f4:	ffffffff ffffffff ffffffff ffffffff     ................
  418904:	ffffffff ffffffff ffffffff ffffffff     ................
  418914:	ffffffff ffffffff ffffffff ffffffff     ................
  418924:	ffffffff ffffffff ffffffff ffffffff     ................
  418934:	ffffffff ffffffff ffffffff ffffffff     ................
  418944:	ffffffff ffffffff ffffffff ffffffff     ................
  418954:	ffffffff ffffffff ffffffff ffffffff     ................
  418964:	ffffffff ffffffff ffffffff ffffffff     ................
  418974:	ffffffff ffffffff ffffffff ffffffff     ................
  418984:	ffffffff ffffffff ffffffff ffffffff     ................
  418994:	ffffffff ffffffff ffffffff ffffffff     ................
  4189a4:	ffffffff ffffffff ffffffff ffffffff     ................
  4189b4:	ffffffff ffffffff ffffffff ffffffff     ................
  4189c4:	ffffffff ffffffff ffffffff ffffffff     ................
  4189d4:	ffffffff ffffffff ffffffff ffffffff     ................
  4189e4:	ffffffff ffffffff ffffffff ffffffff     ................
  4189f4:	ffffffff ffffffff ffffffff ffffffff     ................
  418a04:	ffffffff ffffffff ffffffff ffffffff     ................
  418a14:	ffffffff ffffffff ffffffff ffffffff     ................
  418a24:	ffffffff ffffffff ffffffff ffffffff     ................
  418a34:	ffffffff ffffffff ffffffff ffffffff     ................
  418a44:	ffffffff ffffffff ffffffff ffffffff     ................
  418a54:	ffffffff ffffffff ffffffff ffffffff     ................
  418a64:	ffffffff ffffffff ffffffff ffffffff     ................
  418a74:	ffffffff ffffffff ffffffff ffffffff     ................
  418a84:	ffffffff ffffffff ffffffff ffffffff     ................
  418a94:	ffffffff ffffffff ffffffff ffffffff     ................
  418aa4:	ffffffff ffffffff ffffffff ffffffff     ................
  418ab4:	ffffffff ffffffff ffffffff ffffffff     ................
  418ac4:	ffffffff ffffffff ffffffff ffffffff     ................
  418ad4:	ffffffff ffffffff ffffffff ffffffff     ................
  418ae4:	ffffffff ffffffff ffffffff ffffffff     ................
  418af4:	ffffffff ffffffff ffffffff ffffffff     ................
  418b04:	ffffffff ffffffff ffffffff ffffffff     ................
  418b14:	ffffffff ffffffff ffffffff ffffffff     ................
  418b24:	ffffffff ffffffff ffffffff ffffffff     ................
  418b34:	ffffffff ffffffff ffffffff ffffffff     ................
  418b44:	ffffffff ffffffff ffffffff ffffffff     ................
  418b54:	ffffffff ffffffff ffffffff ffffffff     ................
  418b64:	ffffffff ffffffff ffffffff ffffffff     ................
  418b74:	ffffffff ffffffff ffffffff ffffffff     ................
  418b84:	ffffffff ffffffff ffffffff ffffffff     ................
  418b94:	ffffffff ffffffff ffffffff ffffffff     ................
  418ba4:	ffffffff ffffffff ffffffff ffffffff     ................
  418bb4:	ffffffff ffffffff ffffffff ffffffff     ................
  418bc4:	ffffffff ffffffff ffffffff ffffffff     ................
  418bd4:	ffffffff ffffffff ffffffff ffffffff     ................
  418be4:	ffffffff ffffffff ffffffff ffffffff     ................
  418bf4:	ffffffff ffffffff ffffffff ffffffff     ................
  418c04:	ffffffff ffffffff ffffffff ffffffff     ................
  418c14:	ffffffff ffffffff ffffffff ffffffff     ................
  418c24:	ffffffff ffffffff ffffffff ffffffff     ................
  418c34:	ffffffff ffffffff ffffffff ffffffff     ................
  418c44:	ffffffff ffffffff ffffffff ffffffff     ................
  418c54:	ffffffff ffffffff ffffffff ffffffff     ................
  418c64:	ffffffff ffffffff ffffffff ffffffff     ................
  418c74:	ffffffff ffffffff ffffffff ffffffff     ................
  418c84:	ffffffff ffffffff ffffffff ffffffff     ................
  418c94:	ffffffff ffffffff ffffffff ffffffff     ................
  418ca4:	ffffffff ffffffff ffffffff ffffffff     ................
  418cb4:	ffffffff ffffffff ffffffff ffffffff     ................
  418cc4:	ffffffff ffffffff ffffffff ffffffff     ................
  418cd4:	ffffffff ffffffff ffffffff ffffffff     ................
  418ce4:	ffffffff ffffffff ffffffff ffffffff     ................
  418cf4:	ffffffff ffffffff ffffffff ffffffff     ................
  418d04:	ffffffff ffffffff ffffffff ffffffff     ................
  418d14:	ffffffff ffffffff ffffffff ffffffff     ................
  418d24:	ffffffff ffffffff ffffffff ffffffff     ................
  418d34:	ffffffff ffffffff ffffffff ffffffff     ................
  418d44:	ffffffff ffffffff ffffffff ffffffff     ................
  418d54:	ffffffff ffffffff ffffffff ffffffff     ................
  418d64:	ffffffff ffffffff ffffffff ffffffff     ................
  418d74:	ffffffff ffffffff ffffffff ffffffff     ................
  418d84:	ffffffff ffffffff ffffffff ffffffff     ................
  418d94:	ffffffff ffffffff ffffffff ffffffff     ................
  418da4:	ffffffff ffffffff ffffffff ffffffff     ................
  418db4:	ffffffff ffffffff ffffffff ffffffff     ................
  418dc4:	ffffffff ffffffff ffffffff ffffffff     ................
  418dd4:	ffffffff ffffffff ffffffff ffffffff     ................
  418de4:	ffffffff ffffffff ffffffff ffffffff     ................
  418df4:	ffffffff ffffffff ffffffff ffffffff     ................
  418e04:	ffffffff ffffffff ffffffff ffffffff     ................
  418e14:	ffffffff ffffffff ffffffff ffffffff     ................
  418e24:	ffffffff ffffffff ffffffff ffffffff     ................
  418e34:	ffffffff ffffffff ffffffff ffffffff     ................
  418e44:	ffffffff ffffffff ffffffff ffffffff     ................
  418e54:	ffffffff ffffffff ffffffff ffffffff     ................
  418e64:	ffffffff ffffffff ffffffff ffffffff     ................
  418e74:	ffffffff ffffffff ffffffff ffffffff     ................
  418e84:	ffffffff ffffffff ffffffff ffffffff     ................
  418e94:	ffffffff ffffffff ffffffff ffffffff     ................
  418ea4:	ffffffff ffffffff ffffffff ffffffff     ................
  418eb4:	ffffffff ffffffff ffffffff ffffffff     ................
  418ec4:	ffffffff ffffffff ffffffff ffffffff     ................
  418ed4:	ffffffff ffffffff ffffffff ffffffff     ................
  418ee4:	ffffffff ffffffff ffffffff ffffffff     ................
  418ef4:	ffffffff ffffffff ffffffff ffffffff     ................
  418f04:	ffffffff ffffffff ffffffff ffffffff     ................
  418f14:	ffffffff ffffffff ffffffff ffffffff     ................
  418f24:	ffffffff ffffffff ffffffff ffffffff     ................
  418f34:	ffffffff ffffffff ffffffff ffffffff     ................
  418f44:	ffffffff ffffffff ffffffff ffffffff     ................

00418f54 <arial_72_0x38>:
  418f54:	004167f4 00000028 00000054 00000008     .gA.(...T.......

00418f64 <image_data_arial_72_0x39>:
  418f64:	ffffffff ffffffff ffffffff ffffffff     ................
  418f74:	ffffffff ffffffff ffffffff ffffffff     ................
  418f84:	ffffffff ffffffff ffffffff ffffffff     ................
  418f94:	ffffffff ffffffff ffffffff ffffffff     ................
  418fa4:	ffffffff ffffffff ffffffff ffffffff     ................
  418fb4:	ffffffff ffffffff ffffffff ffffffff     ................
  418fc4:	ffffffff ffffffff ffffffff ffffffff     ................
  418fd4:	ffffffff ffffffff ffffffff ffffffff     ................
  418fe4:	ffffffff ffffffff ffffffff ffffffff     ................
  418ff4:	ffffffff ffffffff ffffffff ffffffff     ................
  419004:	ffffffff ffffffff ffffffff ffffffff     ................
  419014:	ffffffff ffffffff ffffffff ffffffff     ................
  419024:	ffffffff ffffffff ffffffff ffffffff     ................
  419034:	ffffffff ffffffff ffffffff ffffffff     ................
  419044:	ffffffff ffffffff ffffffff ffffffff     ................
  419054:	ffffffff ffffffff ffffffff ffffffff     ................
  419064:	ffffffff ffffffff ffffffff ffffffff     ................
  419074:	ffffffff ffffffff ffffffff ffffffff     ................
  419084:	ffffffff ffffffff ffffffff ffffffff     ................
  419094:	ffffffff ffffffff ffffffff ffffffff     ................
  4190a4:	ffffffff ffffffff ffffffff ffffffff     ................
  4190b4:	ffffffff ffffffff ffffffff ffffffff     ................
  4190c4:	ffffffff ffffffff ffffffff ffffffff     ................
  4190d4:	ffffffff ffffffff ffffffff ffffffff     ................
  4190e4:	ffffffff ffffffff ffffffff ffffffff     ................
  4190f4:	ffffffff ffffffff ffffffff ffffffff     ................
  419104:	ffffffff ffffffff ffffffff ffffffff     ................
  419114:	ffffffff ffffffff ffffffff ffffffff     ................
  419124:	ffffffff ffffffff ffffffff ffffffff     ................
  419134:	ffffffff ffffffff ffffffff ffffffff     ................
  419144:	ffffffff ffffffff ffffffff ffffffff     ................
  419154:	ffffffff ffffffff ffffffff ffffffff     ................
  419164:	ffffffff ffffffff ffffffff ffffffff     ................
  419174:	ffffffff ffffffff ffffffff ffffffff     ................
  419184:	ffffffff ffffffff ffffffff ffffffff     ................
  419194:	ffffffff ffffffff ffffffff ffffffff     ................
  4191a4:	ffffffff ffffffff ffffffff ffffffff     ................
  4191b4:	ffffffff ffffffff ffffffff ffffffff     ................
  4191c4:	ffffffff ffffffff ffffffff ffffffff     ................
  4191d4:	ffffffff ffffffff ffffffff ffffffff     ................
  4191e4:	ffffffff ffffffff ffffffff ffffffff     ................
  4191f4:	ffffffff ffffffff ffffffff ffffffff     ................
  419204:	ffffffff ffffffff ffffffff ffffffff     ................
  419214:	ffffffff ffffffff ffffffff ffffffff     ................
  419224:	ffffffff ffffffff ffffffff ffffffff     ................
  419234:	ffffffff ffffffff ffffffff ffffffff     ................
  419244:	ffffffff ffffffff ffffffff ffffffff     ................
  419254:	ffffffff ffffffff ffffffff ffffffff     ................
  419264:	ffffffff ffffffff ffffffff ffffffff     ................
  419274:	ffffffff ffffffff ffffffff ffffffff     ................
  419284:	ffffffff ffffffff ffffffff ffffffff     ................
  419294:	ffffffff ffffffff ffffffff ffffffff     ................
  4192a4:	ffffffff ffffffff ffffffff ffffffff     ................
  4192b4:	ffffffff ffffffff ffffffff ffffffff     ................
  4192c4:	ffffffff ffffffff ffffffff ffffffff     ................
  4192d4:	ffffffff ffffffff ffffffff ffffffff     ................
  4192e4:	ffffffff ffffffff ffffffff ffffffff     ................
  4192f4:	ffffffff ffffffff ffffffff ffffffff     ................
  419304:	ffffffff ffffffff ffffffff ffffffff     ................
  419314:	ffffffff ffffffff ffffffff ffffffff     ................
  419324:	ffffffff ffffffff ffffffff ffffffff     ................
  419334:	ffffffff ffffffff ffffffff ffffffff     ................
  419344:	ffffffff ffffffff ffffffff ffffffff     ................
  419354:	ffffffff ffffffff ffffffff ffffffff     ................
  419364:	ffffffff ffffffff ffffffff ffffffff     ................
  419374:	ffffffff ffffffff ffffffff ffffffff     ................
  419384:	ffffffff ffffffff ffffffff ffffffff     ................
  419394:	ffffffff ffffffff ffffffff ffffffff     ................
  4193a4:	ffffffff ffffffff ffffffff ffffffff     ................
  4193b4:	ffffffff ffffffff ffffffff ffffffff     ................
  4193c4:	ffffffff ffffffff ffffffff ffffffff     ................
  4193d4:	ffffffff ffffffff ffffffff ffffffff     ................
  4193e4:	ffffffff ffffffff ffffffff ffffffff     ................
  4193f4:	ffffffff ffffffff ffffffff ffffffff     ................
  419404:	ffffffff ffffffff ffffffff ffffffff     ................
  419414:	ffffffff ffffffff ffffffff ffffffff     ................
  419424:	ffffffff ffffffff ffffffff ffffffff     ................
  419434:	ffffffff ffffffff ffffffff ffffffff     ................
  419444:	ffffffff ffffffff ffffffff ffffffff     ................
  419454:	ffffffff ffffffff ffffffff ffffffff     ................
  419464:	ffffffff ffffffff ffffffff ffffffff     ................
  419474:	ffffffff ffffffff ffffffff ffffffff     ................
  419484:	ffffffff ffffffff ffffffff ffffffff     ................
  419494:	ffffffff ffffffff ffffffff ffffffff     ................
  4194a4:	ffffffff ffffffff ffffffff ffffffff     ................
  4194b4:	ffffffff ffffffff ffffffff ffffffff     ................
  4194c4:	ffffffff ffffffff ffffffff ffffffff     ................
  4194d4:	ffffffff ffffffff ffffffff ffffffff     ................
  4194e4:	ffffffff ffffffff ffffffff ffffffff     ................
  4194f4:	ffffffff ffffffff ffffffff ffffffff     ................
  419504:	ffffffff ffffffff ffffffff ffffffff     ................
  419514:	ffffffff ffffffff ffffffff ffffffff     ................
  419524:	ffffffff ffffffff ffffffff ffffffff     ................
  419534:	ffffffff ffffffff ffffffff ffffffff     ................
  419544:	ffffffff ffffffff ffffffff ffffffff     ................
  419554:	ffffffff ffffffff ffffffff ffffffff     ................
  419564:	ffffffff ffffffff ffffffff ffffffff     ................
  419574:	ffffffff ffffffff ffffffff ffffffff     ................
  419584:	ffffffff ffffffff ffffffff ffffffff     ................
  419594:	ffffffff ffffffff ffffffff ffffffff     ................
  4195a4:	ffffffff ffffffff ffffffff ffffffff     ................
  4195b4:	ffffffff ffffffff ffffffff ffffffff     ................
  4195c4:	ffffffff ffffffff ffffffff ffffffff     ................
  4195d4:	ffffffff ffffffff ffffffff ffffffff     ................
  4195e4:	ffffffff ffffffff ffffffff ffffffff     ................
  4195f4:	ffffffff ffffffff ffffffff ffffffff     ................
  419604:	ffffffff ffffffff ffffffff ffffffff     ................
  419614:	ffffffff ffffffff ffffffff ffffffff     ................
  419624:	ffffffff ffffffff ffffffff ffffffff     ................
  419634:	ffffffff ffffffff ffffffff ffffffff     ................
  419644:	ffffffff ffffffff ffffffff ffffffff     ................
  419654:	ffffffff ffffffff ffffffff ffffffff     ................
  419664:	ffffffff ffffffff ffffffff ffffffff     ................
  419674:	ffffffff ffffffff ffffffff ffffffff     ................
  419684:	ffffffff ffffffff ffffffff ffffffff     ................
  419694:	ffffffff ffffffff ff0000ff 00ff0000     ................
  4196a4:	0000ff00 ff0000ff ffffffff ffffffff     ................
  4196b4:	ffffffff ffffffff ffffffff ffffffff     ................
  4196c4:	ffffffff ffffffff ffffffff ffffffff     ................
  4196d4:	ffffffff ffffffff ffffffff ffffffff     ................
  4196e4:	ffffffff ffffffff ffffffff ffffffff     ................
  4196f4:	ffffffff ffffffff ffffffff ffffffff     ................
  419704:	ffffffff ff0000ff 00ff0000 0000ff00     ................
  419714:	ff0000ff 00ff0000 0000ff00 ff0000ff     ................
  419724:	00ff0000 0000ff00 ff0000ff ffffffff     ................
  419734:	ffffffff ffffffff ffffffff ffffffff     ................
  419744:	ffffffff ffffffff ffffffff ffffffff     ................
  419754:	ffffffff ffffffff ffffffff ffffffff     ................
  419764:	ffffffff ffffffff ffffffff ffffffff     ................
  419774:	ffffffff 00ffffff 0000ff00 ff0000ff     ................
  419784:	00ff0000 0000ff00 ff0000ff 00ff0000     ................
  419794:	0000ff00 ff0000ff 00ff0000 0000ff00     ................
  4197a4:	ff0000ff 00ff0000 ffffff00 ffffffff     ................
  4197b4:	ffffffff ffffffff ffffffff ffffffff     ................
  4197c4:	ffffffff ffffffff ffffffff ffffffff     ................
  4197d4:	ffffffff ffffffff ffffffff ffffffff     ................
  4197e4:	ffffffff ffffffff ffffffff 00ff0000     ................
  4197f4:	0000ff00 ff0000ff 00ff0000 0000ff00     ................
  419804:	ff0000ff 00ff0000 0000ff00 ff0000ff     ................
  419814:	00ff0000 0000ff00 ff0000ff 00ff0000     ................
  419824:	0000ff00 ff0000ff ffffffff ffffffff     ................
  419834:	ffffffff ffffffff ffffffff ffffffff     ................
  419844:	ffffffff ffffffff ffffffff ffffffff     ................
  419854:	ffffffff ffffffff ffffffff ffffffff     ................
  419864:	ff0000ff 00ff0000 0000ff00 ff0000ff     ................
  419874:	00ff0000 0000ff00 ff0000ff 00ff0000     ................
  419884:	0000ff00 ff0000ff 00ff0000 0000ff00     ................
  419894:	ff0000ff 00ff0000 0000ff00 ff0000ff     ................
  4198a4:	ffff0000 ffffffff ffffffff ffffffff     ................
  4198b4:	ffffffff ffffffff ffffffff ffffffff     ................
  4198c4:	ffffffff ffffffff ffffffff ffffffff     ................
  4198d4:	ffffffff 0000ffff ff0000ff 00ff0000     ................
  4198e4:	0000ff00 ff0000ff 00ff0000 0000ff00     ................
  4198f4:	ff0000ff 00ff0000 0000ff00 ff0000ff     ................
  419904:	00ff0000 0000ff00 ff0000ff 00ff0000     ................
  419914:	0000ff00 ff0000ff 00ff0000 ffffff00     ................
  419924:	ffffffff ffffffff ffffffff ffffffff     ................
  419934:	ffffffff ffffffff ffffffff ffffffff     ................
  419944:	ffffffff ffffffff 00ffffff 0000ff00     ................
  419954:	ff0000ff 00ff0000 0000ff00 ff0000ff     ................
  419964:	00ff0000 0000ff00 ff0000ff 00ff0000     ................
  419974:	0000ff00 ff0000ff 00ff0000 0000ff00     ................
  419984:	ff0000ff 00ff0000 0000ff00 ff0000ff     ................
  419994:	00ff0000 0000ff00 ffffffff ffffffff     ................
  4199a4:	ffffffff ffffffff ffffffff ffffffff     ................
  4199b4:	ffffffff ffffffff ffffffff ffffffff     ................
  4199c4:	00ff0000 0000ff00 ff0000ff 00ff0000     ................
  4199d4:	0000ff00 ff0000ff 00ff0000 0000ff00     ................
  4199e4:	ff0000ff 00ff0000 0000ff00 ff0000ff     ................
  4199f4:	00ff0000 0000ff00 ff0000ff 00ff0000     ................
  419a04:	0000ff00 ff0000ff 00ff0000 0000ff00     ................
  419a14:	ff0000ff ffffffff ffffffff ffffffff     ................
  419a24:	ffffffff ffffffff ffffffff ffffffff     ................
  419a34:	ffffffff ff0000ff 00ff0000 0000ff00     ................
  419a44:	ff0000ff 00ff0000 0000ff00 ff0000ff     ................
  419a54:	00ff0000 0000ff00 ff0000ff ffff0000     ................
  419a64:	0000ffff ff0000ff 00ff0000 0000ff00     ................
  419a74:	ff0000ff 00ff0000 0000ff00 ff0000ff     ................
  419a84:	00ff0000 0000ff00 ff0000ff ffffffff     ................
  419a94:	ffffffff ffffffff ffffffff ffffffff     ................
  419aa4:	ffffffff ffffffff ffffffff ff0000ff     ................
  419ab4:	00ff0000 0000ff00 ff0000ff 00ff0000     ................
  419ac4:	0000ff00 ff0000ff 00ff0000 ffffff00     ................
  419ad4:	ffffffff ffffffff ffffffff ffffffff     ................
  419ae4:	00ffffff 0000ff00 ff0000ff 00ff0000     ................
  419af4:	0000ff00 ff0000ff 00ff0000 0000ff00     ................
  419b04:	ff0000ff ffff0000 ffffffff ffffffff     ................
  419b14:	ffffffff ffffffff ffffffff ffffffff     ................
  419b24:	ffffffff ff0000ff 00ff0000 0000ff00     ................
  419b34:	ff0000ff 00ff0000 0000ff00 ff0000ff     ................
  419b44:	ffff0000 ffffffff ffffffff ffffffff     ................
  419b54:	ffffffff ffffffff ffffffff 0000ffff     ................
  419b64:	ff0000ff 00ff0000 0000ff00 ff0000ff     ................
  419b74:	00ff0000 0000ff00 ff0000ff ffff0000     ................
  419b84:	ffffffff ffffffff ffffffff ffffffff     ................
  419b94:	ffffffff ffffffff 0000ffff ff0000ff     ................
  419ba4:	00ff0000 0000ff00 ff0000ff 00ff0000     ................
  419bb4:	0000ff00 ff0000ff ffffffff ffffffff     ................
  419bc4:	ffffffff ffffffff ffffffff ffffffff     ................
  419bd4:	ffffffff ffffffff ff0000ff 00ff0000     ................
  419be4:	0000ff00 ff0000ff 00ff0000 0000ff00     ................
  419bf4:	ff0000ff ffff0000 ffffffff ffffffff     ................
  419c04:	ffffffff ffffffff ffffffff ffffffff     ................
  419c14:	0000ffff ff0000ff 00ff0000 0000ff00     ................
  419c24:	ff0000ff 00ff0000 0000ff00 ff0000ff     ................
  419c34:	ffffffff ffffffff ffffffff ffffffff     ................
  419c44:	ffffffff ffffffff ffffffff ffffffff     ................
  419c54:	ff0000ff 00ff0000 0000ff00 ff0000ff     ................
  419c64:	00ff0000 0000ff00 ff0000ff 00ff0000     ................
  419c74:	ffffff00 ffffffff ffffffff ffffffff     ................
  419c84:	ffffffff ffffffff 0000ffff ff0000ff     ................
  419c94:	00ff0000 0000ff00 ff0000ff 00ff0000     ................
  419ca4:	0000ff00 ffffffff ffffffff ffffffff     ................
  419cb4:	ffffffff ffffffff ffffffff ffffffff     ................
  419cc4:	ffffffff ffffffff ffffffff 00ff0000     ................
  419cd4:	0000ff00 ff0000ff 00ff0000 0000ff00     ................
  419ce4:	ff0000ff 00ff0000 ffffff00 ffffffff     ................
  419cf4:	ffffffff ffffffff ffffffff ffffffff     ................
  419d04:	0000ffff ff0000ff 00ff0000 0000ff00     ................
  419d14:	ff0000ff 00ff0000 0000ff00 ffffffff     ................
  419d24:	ffffffff ffffffff ffffffff ffffffff     ................
  419d34:	ffffffff ffffffff ffffffff ffffffff     ................
  419d44:	ffffffff 00ff0000 0000ff00 ff0000ff     ................
  419d54:	00ff0000 0000ff00 ff0000ff 00ff0000     ................
  419d64:	ffffff00 ffffffff ffffffff ffffffff     ................
  419d74:	ffffffff 00ffffff 0000ff00 ff0000ff     ................
  419d84:	00ff0000 0000ff00 ff0000ff 00ff0000     ................
  419d94:	0000ff00 ffffffff ffffffff ffffffff     ................
  419da4:	ffffffff ffffffff ffffffff ffffffff     ................
  419db4:	ffffffff ffffffff ffffffff 00ff0000     ................
  419dc4:	0000ff00 ff0000ff 00ff0000 0000ff00     ................
  419dd4:	ff0000ff 00ff0000 0000ff00 ffffffff     ................
  419de4:	ffffffff ffffffff ffffffff 00ffffff     ................
  419df4:	0000ff00 ff0000ff 00ff0000 0000ff00     ................
  419e04:	ff0000ff 00ff0000 0000ff00 ffffffff     ................
  419e14:	ffffffff ffffffff ffffffff ffffffff     ................
  419e24:	ffffffff ffffffff ffffffff ffffffff     ................
  419e34:	ffffffff 00ffffff 0000ff00 ff0000ff     ................
  419e44:	00ff0000 0000ff00 ff0000ff 00ff0000     ................
  419e54:	0000ff00 ffffffff ffffffff ffffffff     ................
  419e64:	ffffffff 00ffffff 0000ff00 ff0000ff     ................
  419e74:	00ff0000 0000ff00 ff0000ff 00ff0000     ................
  419e84:	0000ff00 ffffffff ffffffff ffffffff     ................
  419e94:	ffffffff ffffffff ffffffff ffffffff     ................
  419ea4:	ffffffff ffffffff ffffffff 00ffffff     ................
  419eb4:	0000ff00 ff0000ff 00ff0000 0000ff00     ................
  419ec4:	ff0000ff 00ff0000 0000ff00 ffffffff     ................
  419ed4:	ffffffff ffffffff ffffffff 00ffffff     ................
  419ee4:	0000ff00 ff0000ff 00ff0000 0000ff00     ................
  419ef4:	ff0000ff 00ff0000 0000ff00 ffffffff     ................
  419f04:	ffffffff ffffffff ffffffff ffffffff     ................
  419f14:	ffffffff ffffffff ffffffff ffffffff     ................
  419f24:	ffffffff 00ffffff 0000ff00 ff0000ff     ................
  419f34:	00ff0000 0000ff00 ff0000ff 00ff0000     ................
  419f44:	0000ff00 ffffffff ffffffff ffffffff     ................
  419f54:	ffffffff 00ffffff 0000ff00 ff0000ff     ................
  419f64:	00ff0000 0000ff00 ff0000ff 00ff0000     ................
  419f74:	0000ff00 ffffffff ffffffff ffffffff     ................
  419f84:	ffffffff ffffffff ffffffff ffffffff     ................
  419f94:	ffffffff ffffffff ffffffff 00ffffff     ................
  419fa4:	0000ff00 ff0000ff 00ff0000 0000ff00     ................
  419fb4:	ff0000ff 00ff0000 0000ff00 ffffffff     ................
  419fc4:	ffffffff ffffffff ffffffff ffffffff     ................
  419fd4:	0000ffff ff0000ff 00ff0000 0000ff00     ................
  419fe4:	ff0000ff 00ff0000 0000ff00 ffffffff     ................
  419ff4:	ffffffff ffffffff ffffffff ffffffff     ................
  41a004:	ffffffff ffffffff ffffffff ffffffff     ................
  41a014:	ffffffff 00ffffff 0000ff00 ff0000ff     ................
  41a024:	00ff0000 0000ff00 ff0000ff 00ff0000     ................
  41a034:	0000ff00 ffffffff ffffffff ffffffff     ................
  41a044:	ffffffff ffffffff 0000ffff ff0000ff     ................
  41a054:	00ff0000 0000ff00 ff0000ff 00ff0000     ................
  41a064:	0000ff00 ffffffff ffffffff ffffffff     ................
  41a074:	ffffffff ffffffff ffffffff ffffffff     ................
  41a084:	ffffffff ffffffff ffffffff 00ff0000     ................
  41a094:	0000ff00 ff0000ff 00ff0000 0000ff00     ................
  41a0a4:	ff0000ff 00ff0000 0000ff00 ffffffff     ................
  41a0b4:	ffffffff ffffffff ffffffff ffffffff     ................
  41a0c4:	0000ffff ff0000ff 00ff0000 0000ff00     ................
  41a0d4:	ff0000ff 00ff0000 0000ff00 ff0000ff     ................
  41a0e4:	ffffffff ffffffff ffffffff ffffffff     ................
  41a0f4:	ffffffff ffffffff ffffffff ffffffff     ................
  41a104:	ffffffff 00ff0000 0000ff00 ff0000ff     ................
  41a114:	00ff0000 0000ff00 ff0000ff 00ff0000     ................
  41a124:	0000ff00 ff0000ff ffffffff ffffffff     ................
  41a134:	ffffffff ffffffff 0000ffff ff0000ff     ................
  41a144:	00ff0000 0000ff00 ff0000ff 00ff0000     ................
  41a154:	0000ff00 ff0000ff ffffffff ffffffff     ................
  41a164:	ffffffff ffffffff ffffffff ffffffff     ................
  41a174:	ffffffff ffffffff ffffffff 00ff0000     ................
  41a184:	0000ff00 ff0000ff 00ff0000 0000ff00     ................
  41a194:	ff0000ff 00ff0000 0000ff00 ff0000ff     ................
  41a1a4:	ffffffff ffffffff ffffffff ffffffff     ................
  41a1b4:	0000ffff ff0000ff 00ff0000 0000ff00     ................
  41a1c4:	ff0000ff 00ff0000 0000ff00 ff0000ff     ................
  41a1d4:	ffff0000 ffffffff ffffffff ffffffff     ................
  41a1e4:	ffffffff ffffffff ffffffff ffffffff     ................
  41a1f4:	ff0000ff 00ff0000 0000ff00 ff0000ff     ................
  41a204:	00ff0000 0000ff00 ff0000ff 00ff0000     ................
  41a214:	0000ff00 ff0000ff ffffffff ffffffff     ................
  41a224:	ffffffff ffffffff ffffffff ff0000ff     ................
  41a234:	00ff0000 0000ff00 ff0000ff 00ff0000     ................
  41a244:	0000ff00 ff0000ff ffff0000 ffffffff     ................
  41a254:	ffffffff ffffffff ffffffff ffffffff     ................
  41a264:	ffffffff 0000ffff ff0000ff 00ff0000     ................
  41a274:	0000ff00 ff0000ff 00ff0000 0000ff00     ................
  41a284:	ff0000ff 00ff0000 0000ff00 ff0000ff     ................
  41a294:	ffffffff ffffffff ffffffff ffffffff     ................
  41a2a4:	ffffffff ff0000ff 00ff0000 0000ff00     ................
  41a2b4:	ff0000ff 00ff0000 0000ff00 ff0000ff     ................
  41a2c4:	00ff0000 0000ff00 ffffffff ffffffff     ................
  41a2d4:	ffffffff ffffffff 00ffffff 0000ff00     ................
  41a2e4:	ff0000ff 00ff0000 0000ff00 ff0000ff     ................
  41a2f4:	00ff0000 0000ff00 ff0000ff 00ff0000     ................
  41a304:	0000ff00 ff0000ff ffffffff ffffffff     ................
  41a314:	ffffffff ffffffff ffffffff ffffffff     ................
  41a324:	00ff0000 0000ff00 ff0000ff 00ff0000     ................
  41a334:	0000ff00 ff0000ff 00ff0000 0000ff00     ................
  41a344:	ff0000ff 00ff0000 0000ff00 ff0000ff     ................
  41a354:	00ff0000 0000ff00 ff0000ff 00ff0000     ................
  41a364:	0000ff00 ff0000ff 00ff0000 0000ff00     ................
  41a374:	ff0000ff 00ff0000 0000ff00 ff0000ff     ................
  41a384:	ffffffff ffffffff ffffffff ffffffff     ................
  41a394:	ffffffff ffffffff 00ffffff 0000ff00     ................
  41a3a4:	ff0000ff 00ff0000 0000ff00 ff0000ff     ................
  41a3b4:	00ff0000 0000ff00 ff0000ff 00ff0000     ................
  41a3c4:	0000ff00 ff0000ff 00ff0000 0000ff00     ................
  41a3d4:	ff0000ff 00ff0000 0000ff00 ff0000ff     ................
  41a3e4:	00ff0000 0000ff00 ff0000ff 00ff0000     ................
  41a3f4:	0000ff00 ff0000ff ffffffff ffffffff     ................
  41a404:	ffffffff ffffffff ffffffff ffffffff     ................
  41a414:	00ffffff 0000ff00 ff0000ff 00ff0000     ................
  41a424:	0000ff00 ff0000ff 00ff0000 0000ff00     ................
  41a434:	ff0000ff 00ff0000 0000ff00 ff0000ff     ................
  41a444:	00ff0000 0000ff00 ff0000ff 00ff0000     ................
  41a454:	0000ff00 ff0000ff 00ff0000 0000ff00     ................
  41a464:	ff0000ff 00ff0000 0000ff00 ff0000ff     ................
  41a474:	ffffffff ffffffff ffffffff ffffffff     ................
  41a484:	ffffffff ffffffff ffffffff 0000ffff     ................
  41a494:	ff0000ff 00ff0000 0000ff00 ff0000ff     ................
  41a4a4:	00ff0000 0000ff00 ff0000ff 00ff0000     ................
  41a4b4:	0000ff00 ff0000ff 00ff0000 0000ff00     ................
  41a4c4:	ff0000ff 00ff0000 0000ff00 ff0000ff     ................
  41a4d4:	00ff0000 0000ff00 ff0000ff 00ff0000     ................
  41a4e4:	0000ff00 ffffffff ffffffff ffffffff     ................
  41a4f4:	ffffffff ffffffff ffffffff ffffffff     ................
  41a504:	ffffffff ffffffff ff0000ff 00ff0000     ................
  41a514:	0000ff00 ff0000ff 00ff0000 0000ff00     ................
  41a524:	ff0000ff 00ff0000 0000ff00 ff0000ff     ................
  41a534:	00ff0000 0000ff00 ff0000ff 00ffffff     ................
  41a544:	0000ff00 ff0000ff 00ff0000 0000ff00     ................
  41a554:	ff0000ff 00ff0000 0000ff00 ffffffff     ................
  41a564:	ffffffff ffffffff ffffffff ffffffff     ................
  41a574:	ffffffff ffffffff ffffffff ffffffff     ................
  41a584:	ffffffff 00ffffff 0000ff00 ff0000ff     ................
  41a594:	00ff0000 0000ff00 ff0000ff 00ff0000     ................
  41a5a4:	0000ff00 ff0000ff 00ff0000 0000ff00     ................
  41a5b4:	ffffffff 00ffffff 0000ff00 ff0000ff     ................
  41a5c4:	00ff0000 0000ff00 ff0000ff 00ff0000     ................
  41a5d4:	0000ff00 ffffffff ffffffff ffffffff     ................
  41a5e4:	ffffffff ffffffff ffffffff ffffffff     ................
  41a5f4:	ffffffff ffffffff ffffffff ffffffff     ................
  41a604:	ffffffff ff0000ff 00ff0000 0000ff00     ................
  41a614:	ff0000ff 00ff0000 0000ff00 ff0000ff     ................
  41a624:	ffff0000 ffffffff ffffffff 00ffffff     ................
  41a634:	0000ff00 ff0000ff 00ff0000 0000ff00     ................
  41a644:	ff0000ff 00ff0000 0000ff00 ffffffff     ................
  41a654:	ffffffff ffffffff ffffffff ffffffff     ................
  41a664:	ffffffff ffffffff ffffffff ffffffff     ................
  41a674:	ffffffff ffffffff ffffffff ffffffff     ................
  41a684:	ffffffff ffffffff ff0000ff ffff0000     ................
  41a694:	ffffffff ffffffff ffffffff ffffffff     ................
  41a6a4:	ffffffff 00ffffff 0000ff00 ff0000ff     ................
  41a6b4:	00ff0000 0000ff00 ff0000ff 00ff0000     ................
  41a6c4:	0000ff00 ffffffff ffffffff ffffffff     ................
  41a6d4:	ffffffff ffffffff ffffffff ffffffff     ................
  41a6e4:	ffffffff ffffffff ffffffff ffffffff     ................
  41a6f4:	ffffffff ffffffff ffffffff ffffffff     ................
  41a704:	ffffffff ffffffff ffffffff ffffffff     ................
  41a714:	ffffffff ffffffff ffffffff 00ffffff     ................
  41a724:	0000ff00 ff0000ff 00ff0000 0000ff00     ................
  41a734:	ff0000ff 00ff0000 0000ff00 ffffffff     ................
  41a744:	ffffffff ffffffff ffffffff ffffffff     ................
  41a754:	ffffffff ffffffff ffffffff ffffffff     ................
  41a764:	ffffffff ffffffff ffffffff ffffffff     ................
  41a774:	ffffffff ffffffff ffffffff ffffffff     ................
  41a784:	ffffffff ffffffff ffffffff ffffffff     ................
  41a794:	ffffffff 00ffffff 0000ff00 ff0000ff     ................
  41a7a4:	00ff0000 0000ff00 ff0000ff 00ff0000     ................
  41a7b4:	0000ff00 ffffffff ffffffff ffffffff     ................
  41a7c4:	ffffffff ffffffff ffffffff ffffffff     ................
  41a7d4:	ffffffff ffffffff ffffffff ffffffff     ................
  41a7e4:	ffffffff ffffffff ffffffff ffffffff     ................
  41a7f4:	ffffffff ffffffff ffffffff ffffffff     ................
  41a804:	ffffffff ffffffff ffffffff 00ffffff     ................
  41a814:	0000ff00 ff0000ff 00ff0000 0000ff00     ................
  41a824:	ff0000ff 00ff0000 0000ff00 ffffffff     ................
  41a834:	ffffffff ffffffff ffffffff ffffffff     ................
  41a844:	ffffffff ffffffff ffffffff ffffffff     ................
  41a854:	ffffffff ffffffff ffffffff ffffffff     ................
  41a864:	ffffffff ffffffff ffffffff ffffffff     ................
  41a874:	ffffffff ffffffff ffffffff ffffffff     ................
  41a884:	ffffffff 00ff0000 0000ff00 ff0000ff     ................
  41a894:	00ff0000 0000ff00 ff0000ff 00ff0000     ................
  41a8a4:	ffffff00 ffffffff ffffffff ffffffff     ................
  41a8b4:	ffffffff ffffffff ffffffff ffffffff     ................
  41a8c4:	ffffffff ffffffff ffffffff 00ff0000     ................
  41a8d4:	0000ff00 ff0000ff ffffffff ffffffff     ................
  41a8e4:	ffffffff ffffffff ffffffff ffffffff     ................
  41a8f4:	ffffffff ffffffff ffffffff 00ff0000     ................
  41a904:	0000ff00 ff0000ff 00ff0000 0000ff00     ................
  41a914:	ff0000ff 00ff0000 ffffff00 ffffffff     ................
  41a924:	ffffffff ffffffff ffffffff ffffffff     ................
  41a934:	0000ffff ff0000ff 00ff0000 0000ff00     ................
  41a944:	ff0000ff 00ff0000 0000ff00 ff0000ff     ................
  41a954:	ffffffff ffffffff ffffffff ffffffff     ................
  41a964:	ffffffff ffffffff ffffffff ffffffff     ................
  41a974:	ffffffff 00ff0000 0000ff00 ff0000ff     ................
  41a984:	00ff0000 0000ff00 ff0000ff 00ff0000     ................
  41a994:	ffffff00 ffffffff ffffffff ffffffff     ................
  41a9a4:	ffffffff ffffffff ffffffff ff0000ff     ................
  41a9b4:	00ff0000 0000ff00 ff0000ff 00ff0000     ................
  41a9c4:	0000ff00 ff0000ff ffffffff ffffffff     ................
  41a9d4:	ffffffff ffffffff ffffffff ffffffff     ................
  41a9e4:	ffffffff ffffffff ff0000ff 00ff0000     ................
  41a9f4:	0000ff00 ff0000ff 00ff0000 0000ff00     ................
  41aa04:	ff0000ff ffff0000 ffffffff ffffffff     ................
  41aa14:	ffffffff ffffffff ffffffff ffffffff     ................
  41aa24:	ffffffff ff0000ff 00ff0000 0000ff00     ................
  41aa34:	ff0000ff 00ff0000 0000ff00 ff0000ff     ................
  41aa44:	ffff0000 ffffffff ffffffff ffffffff     ................
  41aa54:	ffffffff ffffffff ffffffff 0000ffff     ................
  41aa64:	ff0000ff 00ff0000 0000ff00 ff0000ff     ................
  41aa74:	00ff0000 0000ff00 ff0000ff ffff0000     ................
  41aa84:	ffffffff ffffffff ffffffff ffffffff     ................
  41aa94:	ffffffff ffffffff ffffffff ff0000ff     ................
  41aaa4:	00ff0000 0000ff00 ff0000ff 00ff0000     ................
  41aab4:	0000ff00 ff0000ff 00ff0000 ffffff00     ................
  41aac4:	ffffffff ffffffff ffffffff ffffffff     ................
  41aad4:	00ffffff 0000ff00 ff0000ff 00ff0000     ................
  41aae4:	0000ff00 ff0000ff 00ff0000 0000ff00     ................
  41aaf4:	ff0000ff ffffffff ffffffff ffffffff     ................
  41ab04:	ffffffff ffffffff ffffffff ffffffff     ................
  41ab14:	ffffffff ffffffff 00ff0000 0000ff00     ................
  41ab24:	ff0000ff 00ff0000 0000ff00 ff0000ff     ................
  41ab34:	00ff0000 0000ff00 ff0000ff ffffffff     ................
  41ab44:	ffffffff ff0000ff 00ff0000 0000ff00     ................
  41ab54:	ff0000ff 00ff0000 0000ff00 ff0000ff     ................
  41ab64:	00ff0000 0000ff00 ff0000ff ffffffff     ................
  41ab74:	ffffffff ffffffff ffffffff ffffffff     ................
  41ab84:	ffffffff ffffffff ffffffff ffffffff     ................
  41ab94:	00ff0000 0000ff00 ff0000ff 00ff0000     ................
  41aba4:	0000ff00 ff0000ff 00ff0000 0000ff00     ................
  41abb4:	ff0000ff 00ff0000 0000ff00 ff0000ff     ................
  41abc4:	00ff0000 0000ff00 ff0000ff 00ff0000     ................
  41abd4:	0000ff00 ff0000ff 00ff0000 0000ff00     ................
  41abe4:	ffffffff ffffffff ffffffff ffffffff     ................
  41abf4:	ffffffff ffffffff ffffffff ffffffff     ................
  41ac04:	ffffffff ffffffff 00ffffff 0000ff00     ................
  41ac14:	ff0000ff 00ff0000 0000ff00 ff0000ff     ................
  41ac24:	00ff0000 0000ff00 ff0000ff 00ff0000     ................
  41ac34:	0000ff00 ff0000ff 00ff0000 0000ff00     ................
  41ac44:	ff0000ff 00ff0000 0000ff00 ff0000ff     ................
  41ac54:	00ff0000 0000ff00 ffffffff ffffffff     ................
  41ac64:	ffffffff ffffffff ffffffff ffffffff     ................
  41ac74:	ffffffff ffffffff ffffffff ffffffff     ................
  41ac84:	00ffffff 0000ff00 ff0000ff 00ff0000     ................
  41ac94:	0000ff00 ff0000ff 00ff0000 0000ff00     ................
  41aca4:	ff0000ff 00ff0000 0000ff00 ff0000ff     ................
  41acb4:	00ff0000 0000ff00 ff0000ff 00ff0000     ................
  41acc4:	0000ff00 ff0000ff 00ff0000 ffffff00     ................
  41acd4:	ffffffff ffffffff ffffffff ffffffff     ................
  41ace4:	ffffffff ffffffff ffffffff ffffffff     ................
  41acf4:	ffffffff ffffffff ffffffff 0000ffff     ................
  41ad04:	ff0000ff 00ff0000 0000ff00 ff0000ff     ................
  41ad14:	00ff0000 0000ff00 ff0000ff 00ff0000     ................
  41ad24:	0000ff00 ff0000ff 00ff0000 0000ff00     ................
  41ad34:	ff0000ff 00ff0000 0000ff00 ff0000ff     ................
  41ad44:	ffff0000 ffffffff ffffffff ffffffff     ................
  41ad54:	ffffffff ffffffff ffffffff ffffffff     ................
  41ad64:	ffffffff ffffffff ffffffff ffffffff     ................
  41ad74:	ffffffff ffffffff ff0000ff 00ff0000     ................
  41ad84:	0000ff00 ff0000ff 00ff0000 0000ff00     ................
  41ad94:	ff0000ff 00ff0000 0000ff00 ff0000ff     ................
  41ada4:	00ff0000 0000ff00 ff0000ff 00ff0000     ................
  41adb4:	0000ff00 ffffffff ffffffff ffffffff     ................
  41adc4:	ffffffff ffffffff ffffffff ffffffff     ................
  41add4:	ffffffff ffffffff ffffffff ffffffff     ................
  41ade4:	ffffffff ffffffff ffffffff ffffffff     ................
  41adf4:	ffffffff 00ff0000 0000ff00 ff0000ff     ................
  41ae04:	00ff0000 0000ff00 ff0000ff 00ff0000     ................
  41ae14:	0000ff00 ff0000ff 00ff0000 0000ff00     ................
  41ae24:	ff0000ff 00ff0000 ffffff00 ffffffff     ................
  41ae34:	ffffffff ffffffff ffffffff ffffffff     ................
  41ae44:	ffffffff ffffffff ffffffff ffffffff     ................
  41ae54:	ffffffff ffffffff ffffffff ffffffff     ................
  41ae64:	ffffffff ffffffff ffffffff ffffffff     ................
  41ae74:	0000ffff ff0000ff 00ff0000 0000ff00     ................
  41ae84:	ff0000ff 00ff0000 0000ff00 ff0000ff     ................
  41ae94:	00ff0000 0000ff00 ff0000ff ffffffff     ................
  41aea4:	ffffffff ffffffff ffffffff ffffffff     ................
  41aeb4:	ffffffff ffffffff ffffffff ffffffff     ................
  41aec4:	ffffffff ffffffff ffffffff ffffffff     ................
  41aed4:	ffffffff ffffffff ffffffff ffffffff     ................
  41aee4:	ffffffff ffffffff ffffffff ffffffff     ................
  41aef4:	00ffffff 0000ff00 ff0000ff 00ff0000     ................
  41af04:	0000ff00 ff0000ff ffff0000 ffffffff     ................
  41af14:	ffffffff ffffffff ffffffff ffffffff     ................
  41af24:	ffffffff ffffffff ffffffff ffffffff     ................
  41af34:	ffffffff ffffffff ffffffff ffffffff     ................
  41af44:	ffffffff ffffffff ffffffff ffffffff     ................
  41af54:	ffffffff ffffffff ffffffff ffffffff     ................
  41af64:	ffffffff ffffffff ffffffff ffffffff     ................
  41af74:	ffffffff ffffffff ffffffff ffffffff     ................
  41af84:	ffffffff ffffffff ffffffff ffffffff     ................
  41af94:	ffffffff ffffffff ffffffff ffffffff     ................
  41afa4:	ffffffff ffffffff ffffffff ffffffff     ................
  41afb4:	ffffffff ffffffff ffffffff ffffffff     ................
  41afc4:	ffffffff ffffffff ffffffff ffffffff     ................
  41afd4:	ffffffff ffffffff ffffffff ffffffff     ................
  41afe4:	ffffffff ffffffff ffffffff ffffffff     ................
  41aff4:	ffffffff ffffffff ffffffff ffffffff     ................
  41b004:	ffffffff ffffffff ffffffff ffffffff     ................
  41b014:	ffffffff ffffffff ffffffff ffffffff     ................
  41b024:	ffffffff ffffffff ffffffff ffffffff     ................
  41b034:	ffffffff ffffffff ffffffff ffffffff     ................
  41b044:	ffffffff ffffffff ffffffff ffffffff     ................
  41b054:	ffffffff ffffffff ffffffff ffffffff     ................
  41b064:	ffffffff ffffffff ffffffff ffffffff     ................
  41b074:	ffffffff ffffffff ffffffff ffffffff     ................
  41b084:	ffffffff ffffffff ffffffff ffffffff     ................
  41b094:	ffffffff ffffffff ffffffff ffffffff     ................
  41b0a4:	ffffffff ffffffff ffffffff ffffffff     ................
  41b0b4:	ffffffff ffffffff ffffffff ffffffff     ................
  41b0c4:	ffffffff ffffffff ffffffff ffffffff     ................
  41b0d4:	ffffffff ffffffff ffffffff ffffffff     ................
  41b0e4:	ffffffff ffffffff ffffffff ffffffff     ................
  41b0f4:	ffffffff ffffffff ffffffff ffffffff     ................
  41b104:	ffffffff ffffffff ffffffff ffffffff     ................
  41b114:	ffffffff ffffffff ffffffff ffffffff     ................
  41b124:	ffffffff ffffffff ffffffff ffffffff     ................
  41b134:	ffffffff ffffffff ffffffff ffffffff     ................
  41b144:	ffffffff ffffffff ffffffff ffffffff     ................
  41b154:	ffffffff ffffffff ffffffff ffffffff     ................
  41b164:	ffffffff ffffffff ffffffff ffffffff     ................
  41b174:	ffffffff ffffffff ffffffff ffffffff     ................
  41b184:	ffffffff ffffffff ffffffff ffffffff     ................
  41b194:	ffffffff ffffffff ffffffff ffffffff     ................
  41b1a4:	ffffffff ffffffff ffffffff ffffffff     ................
  41b1b4:	ffffffff ffffffff ffffffff ffffffff     ................
  41b1c4:	ffffffff ffffffff ffffffff ffffffff     ................
  41b1d4:	ffffffff ffffffff ffffffff ffffffff     ................
  41b1e4:	ffffffff ffffffff ffffffff ffffffff     ................
  41b1f4:	ffffffff ffffffff ffffffff ffffffff     ................
  41b204:	ffffffff ffffffff ffffffff ffffffff     ................
  41b214:	ffffffff ffffffff ffffffff ffffffff     ................
  41b224:	ffffffff ffffffff ffffffff ffffffff     ................
  41b234:	ffffffff ffffffff ffffffff ffffffff     ................
  41b244:	ffffffff ffffffff ffffffff ffffffff     ................
  41b254:	ffffffff ffffffff ffffffff ffffffff     ................
  41b264:	ffffffff ffffffff ffffffff ffffffff     ................
  41b274:	ffffffff ffffffff ffffffff ffffffff     ................
  41b284:	ffffffff ffffffff ffffffff ffffffff     ................
  41b294:	ffffffff ffffffff ffffffff ffffffff     ................
  41b2a4:	ffffffff ffffffff ffffffff ffffffff     ................
  41b2b4:	ffffffff ffffffff ffffffff ffffffff     ................
  41b2c4:	ffffffff ffffffff ffffffff ffffffff     ................
  41b2d4:	ffffffff ffffffff ffffffff ffffffff     ................
  41b2e4:	ffffffff ffffffff ffffffff ffffffff     ................
  41b2f4:	ffffffff ffffffff ffffffff ffffffff     ................
  41b304:	ffffffff ffffffff ffffffff ffffffff     ................
  41b314:	ffffffff ffffffff ffffffff ffffffff     ................
  41b324:	ffffffff ffffffff ffffffff ffffffff     ................
  41b334:	ffffffff ffffffff ffffffff ffffffff     ................
  41b344:	ffffffff ffffffff ffffffff ffffffff     ................
  41b354:	ffffffff ffffffff ffffffff ffffffff     ................
  41b364:	ffffffff ffffffff ffffffff ffffffff     ................
  41b374:	ffffffff ffffffff ffffffff ffffffff     ................
  41b384:	ffffffff ffffffff ffffffff ffffffff     ................
  41b394:	ffffffff ffffffff ffffffff ffffffff     ................
  41b3a4:	ffffffff ffffffff ffffffff ffffffff     ................
  41b3b4:	ffffffff ffffffff ffffffff ffffffff     ................
  41b3c4:	ffffffff ffffffff ffffffff ffffffff     ................
  41b3d4:	ffffffff ffffffff ffffffff ffffffff     ................
  41b3e4:	ffffffff ffffffff ffffffff ffffffff     ................
  41b3f4:	ffffffff ffffffff ffffffff ffffffff     ................
  41b404:	ffffffff ffffffff ffffffff ffffffff     ................
  41b414:	ffffffff ffffffff ffffffff ffffffff     ................
  41b424:	ffffffff ffffffff ffffffff ffffffff     ................
  41b434:	ffffffff ffffffff ffffffff ffffffff     ................
  41b444:	ffffffff ffffffff ffffffff ffffffff     ................
  41b454:	ffffffff ffffffff ffffffff ffffffff     ................
  41b464:	ffffffff ffffffff ffffffff ffffffff     ................
  41b474:	ffffffff ffffffff ffffffff ffffffff     ................
  41b484:	ffffffff ffffffff ffffffff ffffffff     ................
  41b494:	ffffffff ffffffff ffffffff ffffffff     ................
  41b4a4:	ffffffff ffffffff ffffffff ffffffff     ................
  41b4b4:	ffffffff ffffffff ffffffff ffffffff     ................
  41b4c4:	ffffffff ffffffff ffffffff ffffffff     ................
  41b4d4:	ffffffff ffffffff ffffffff ffffffff     ................
  41b4e4:	ffffffff ffffffff ffffffff ffffffff     ................
  41b4f4:	ffffffff ffffffff ffffffff ffffffff     ................
  41b504:	ffffffff ffffffff ffffffff ffffffff     ................
  41b514:	ffffffff ffffffff ffffffff ffffffff     ................
  41b524:	ffffffff ffffffff ffffffff ffffffff     ................
  41b534:	ffffffff ffffffff ffffffff ffffffff     ................
  41b544:	ffffffff ffffffff ffffffff ffffffff     ................
  41b554:	ffffffff ffffffff ffffffff ffffffff     ................
  41b564:	ffffffff ffffffff ffffffff ffffffff     ................
  41b574:	ffffffff ffffffff ffffffff ffffffff     ................
  41b584:	ffffffff ffffffff ffffffff ffffffff     ................
  41b594:	ffffffff ffffffff ffffffff ffffffff     ................
  41b5a4:	ffffffff ffffffff ffffffff ffffffff     ................
  41b5b4:	ffffffff ffffffff ffffffff ffffffff     ................
  41b5c4:	ffffffff ffffffff ffffffff ffffffff     ................
  41b5d4:	ffffffff ffffffff ffffffff ffffffff     ................
  41b5e4:	ffffffff ffffffff ffffffff ffffffff     ................
  41b5f4:	ffffffff ffffffff ffffffff ffffffff     ................
  41b604:	ffffffff ffffffff ffffffff ffffffff     ................
  41b614:	ffffffff ffffffff ffffffff ffffffff     ................
  41b624:	ffffffff ffffffff ffffffff ffffffff     ................
  41b634:	ffffffff ffffffff ffffffff ffffffff     ................
  41b644:	ffffffff ffffffff ffffffff ffffffff     ................
  41b654:	ffffffff ffffffff ffffffff ffffffff     ................
  41b664:	ffffffff ffffffff ffffffff ffffffff     ................
  41b674:	ffffffff ffffffff ffffffff ffffffff     ................
  41b684:	ffffffff ffffffff ffffffff ffffffff     ................
  41b694:	ffffffff ffffffff ffffffff ffffffff     ................
  41b6a4:	ffffffff ffffffff ffffffff ffffffff     ................
  41b6b4:	ffffffff ffffffff ffffffff ffffffff     ................

0041b6c4 <arial_72_0x39>:
  41b6c4:	00418f64 00000028 00000054 00000008     d.A.(...T.......

0041b6d4 <arial_72_array>:
  41b6d4:	00000030 004053d4 00000031 00407b44     0....S@.1...D{@.
  41b6e4:	00000032 0040a2b4 00000033 0040ca24     2.....@.3...$.@.
  41b6f4:	00000034 0040f194 00000035 00411904     4.....@.5.....A.
  41b704:	00000036 00414074 00000037 004167e4     6...t@A.7....gA.
  41b714:	00000038 00418f54 00000039 0041b6c4     8...T.A.9.....A.

0041b724 <arial_72>:
  41b724:	0000000a 0041b6d4 00003930 34323031     ......A.09..1024
  41b734:	00003635                                56..

0041b738 <_global_impure_ptr>:
  41b738:	20400010                                ..@ 

0041b73c <_init>:
  41b73c:	b5f8      	push	{r3, r4, r5, r6, r7, lr}
  41b73e:	bf00      	nop
  41b740:	bcf8      	pop	{r3, r4, r5, r6, r7}
  41b742:	bc08      	pop	{r3}
  41b744:	469e      	mov	lr, r3
  41b746:	4770      	bx	lr

0041b748 <__init_array_start>:
  41b748:	00402b55 	.word	0x00402b55

0041b74c <__frame_dummy_init_array_entry>:
  41b74c:	0040018d                                ..@.

0041b750 <_fini>:
  41b750:	b5f8      	push	{r3, r4, r5, r6, r7, lr}
  41b752:	bf00      	nop
  41b754:	bcf8      	pop	{r3, r4, r5, r6, r7}
  41b756:	bc08      	pop	{r3}
  41b758:	469e      	mov	lr, r3
  41b75a:	4770      	bx	lr

0041b75c <__fini_array_start>:
  41b75c:	00400169 	.word	0x00400169
